---
triple:          'x86_64-apple-darwin'
binary-path:     item37
relocations:
  - { offsetInCU: 0x3F, offset: 0x3F, size: 0x8, addend: 0x0, symName: _t, symObjAddr: 0x47A68, symBinAddr: 0x10000C000, symSize: 0x0 }
  - { offsetInCU: 0x31C9, offset: 0x31C9, size: 0x8, addend: 0x0, symName: __ZNSt3__15asyncB7v160006IRFvvEJEEENS_6futureINS_11__invoke_ofINS_5decayIT_E4typeEJDpNS5_IT0_E4typeEEE4typeEEENS_6launchEOS6_DpOS9_, symObjAddr: 0x1730, symBinAddr: 0x100003D00, symSize: 0x130 }
  - { offsetInCU: 0x770C, offset: 0x770C, size: 0x8, addend: 0x0, symName: __ZNSt3__15asyncB7v160006IRFvvEJEEENS_6futureINS_11__invoke_ofINS_5decayIT_E4typeEJDpNS5_IT0_E4typeEEE4typeEEEOS6_DpOS9_, symObjAddr: 0x80, symBinAddr: 0x100002650, symSize: 0x30 }
  - { offsetInCU: 0x7748, offset: 0x7748, size: 0x8, addend: 0x0, symName: __ZNSt3__119__debug_db_insert_cB7v160006INS_6vectorIiNS_9allocatorIiEEEEEEvPT_, symObjAddr: 0x3C0, symBinAddr: 0x100002990, symSize: 0x10 }
  - { offsetInCU: 0x7779, offset: 0x7779, size: 0x8, addend: 0x0, symName: __ZNSt3__122__libcpp_thread_isnullB7v160006EPKP17_opaque_pthread_t, symObjAddr: 0x580, symBinAddr: 0x100002B50, symSize: 0x30 }
  - { offsetInCU: 0x77A7, offset: 0x77A7, size: 0x8, addend: 0x0, symName: __ZNSt3__122__libcpp_thread_get_idB7v160006EPKP17_opaque_pthread_t, symObjAddr: 0x5B0, symBinAddr: 0x100002B80, symSize: 0x20 }
  - { offsetInCU: 0x77D5, offset: 0x77D5, size: 0x8, addend: 0x0, symName: __ZNSt3__118__debug_db_erase_cB7v160006INS_6vectorIiNS_9allocatorIiEEEEEEvPT_, symObjAddr: 0x7A0, symBinAddr: 0x100002D70, symSize: 0x10 }
  - { offsetInCU: 0x7806, offset: 0x7806, size: 0x8, addend: 0x0, symName: __ZNSt3__112__to_addressB7v160006IiEEPT_S2_, symObjAddr: 0x8B0, symBinAddr: 0x100002E80, symSize: 0x10 }
  - { offsetInCU: 0x783B, offset: 0x783B, size: 0x8, addend: 0x0, symName: __ZNSt3__110destroy_atB7v160006IiLi0EEEvPT_, symObjAddr: 0x960, symBinAddr: 0x100002F30, symSize: 0x20 }
  - { offsetInCU: 0x7872, offset: 0x7872, size: 0x8, addend: 0x0, symName: __ZNSt3__112__destroy_atB7v160006IiLi0EEEvPT_, symObjAddr: 0x980, symBinAddr: 0x100002F50, symSize: 0x10 }
  - { offsetInCU: 0x78A9, offset: 0x78A9, size: 0x8, addend: 0x0, symName: __ZNSt3__119__libcpp_deallocateB7v160006EPvmm, symObjAddr: 0x9D0, symBinAddr: 0x100002FA0, symSize: 0x60 }
  - { offsetInCU: 0x790E, offset: 0x790E, size: 0x8, addend: 0x0, symName: __ZNSt3__124__is_overaligned_for_newB7v160006Em, symObjAddr: 0xA30, symBinAddr: 0x100003000, symSize: 0x20 }
  - { offsetInCU: 0x793C, offset: 0x793C, size: 0x8, addend: 0x0, symName: __ZNSt3__127__do_deallocate_handle_sizeB7v160006IJSt11align_val_tEEEvPvmDpT_, symObjAddr: 0xA50, symBinAddr: 0x100003020, symSize: 0x30 }
  - { offsetInCU: 0x798F, offset: 0x798F, size: 0x8, addend: 0x0, symName: __ZNSt3__127__do_deallocate_handle_sizeB7v160006IJEEEvPvmDpT_, symObjAddr: 0xA80, symBinAddr: 0x100003050, symSize: 0x20 }
  - { offsetInCU: 0x79CD, offset: 0x79CD, size: 0x8, addend: 0x0, symName: __ZNSt3__124__libcpp_operator_deleteB7v160006IJPvSt11align_val_tEEEvDpT_, symObjAddr: 0xAA0, symBinAddr: 0x100003070, symSize: 0x30 }
  - { offsetInCU: 0x7A16, offset: 0x7A16, size: 0x8, addend: 0x0, symName: __ZNSt3__124__libcpp_operator_deleteB7v160006IJPvEEEvDpT_, symObjAddr: 0xAD0, symBinAddr: 0x1000030A0, symSize: 0x20 }
  - { offsetInCU: 0x7E48, offset: 0x7E48, size: 0x8, addend: 0x0, symName: __ZNSt3__122__libcpp_thread_createB7v160006EPP17_opaque_pthread_tPFPvS3_ES3_, symObjAddr: 0xD40, symBinAddr: 0x100003310, symSize: 0x30 }
  - { offsetInCU: 0x7E94, offset: 0x7E94, size: 0x8, addend: 0x0, symName: __ZNSt3__114__thread_proxyB7v160006INS_5tupleIJNS_10unique_ptrINS_15__thread_structENS_14default_deleteIS3_EEEEPFvvEEEEEEPvSA_, symObjAddr: 0xD70, symBinAddr: 0x100003340, symSize: 0xA0 }
  - { offsetInCU: 0x7FF5, offset: 0x7FF5, size: 0x8, addend: 0x0, symName: __ZNSt3__13getB7v160006ILm0EJNS_10unique_ptrINS_15__thread_structENS_14default_deleteIS2_EEEEPFvvEEEERNS_13tuple_elementIXT_ENS_5tupleIJDpT0_EEEE4typeERSC_, symObjAddr: 0x1380, symBinAddr: 0x100003950, symSize: 0x20 }
  - { offsetInCU: 0x803D, offset: 0x803D, size: 0x8, addend: 0x0, symName: __ZNSt3__116__thread_executeB7v160006INS_10unique_ptrINS_15__thread_structENS_14default_deleteIS2_EEEEPFvvEJEJEEEvRNS_5tupleIJT_T0_DpT1_EEENS_15__tuple_indicesIJXspT2_EEEE, symObjAddr: 0x13A0, symBinAddr: 0x100003970, symSize: 0x30 }
  - { offsetInCU: 0x808E, offset: 0x808E, size: 0x8, addend: 0x0, symName: __ZNSt3__116__libcpp_tls_setB7v160006EmPv, symObjAddr: 0x13D0, symBinAddr: 0x1000039A0, symSize: 0x30 }
  - { offsetInCU: 0x80CB, offset: 0x80CB, size: 0x8, addend: 0x0, symName: __ZNSt3__18__invokeB7v160006IPFvvEJEEEDTclclsr3stdE7declvalIT_EEspclsr3stdE7declvalIT0_EEEEOS3_DpOS4_, symObjAddr: 0x1410, symBinAddr: 0x1000039E0, symSize: 0x20 }
  - { offsetInCU: 0x8103, offset: 0x8103, size: 0x8, addend: 0x0, symName: __ZNSt3__13getB7v160006ILm1EJNS_10unique_ptrINS_15__thread_structENS_14default_deleteIS2_EEEEPFvvEEEERNS_13tuple_elementIXT_ENS_5tupleIJDpT0_EEEE4typeERSC_, symObjAddr: 0x1430, symBinAddr: 0x100003A00, symSize: 0x20 }
  - { offsetInCU: 0x814B, offset: 0x814B, size: 0x8, addend: 0x0, symName: __ZNSt3__121__does_policy_containB7v160006ENS_6launchES0_, symObjAddr: 0x1860, symBinAddr: 0x100003E30, symSize: 0x20 }
  - { offsetInCU: 0x8188, offset: 0x8188, size: 0x8, addend: 0x0, symName: __ZNSt3__124__make_async_assoc_stateB7v160006IvNS_12__async_funcIPFvvEJEEEEENS_6futureIT_EEOT0_, symObjAddr: 0x1880, symBinAddr: 0x100003E50, symSize: 0x120 }
  - { offsetInCU: 0x81D3, offset: 0x81D3, size: 0x8, addend: 0x0, symName: __ZNSt3__127__make_deferred_assoc_stateB7v160006IvNS_12__async_funcIPFvvEJEEEEENS_6futureIT_EEOT0_, symObjAddr: 0x19D0, symBinAddr: 0x100003FA0, symSize: 0xC0 }
  - { offsetInCU: 0x8607, offset: 0x8607, size: 0x8, addend: 0x0, symName: __ZNSt3__13getB7v160006ILm0EJPFvvEEEERNS_13tuple_elementIXT_ENS_5tupleIJDpT0_EEEE4typeERS7_, symObjAddr: 0x1FE0, symBinAddr: 0x1000045B0, symSize: 0x20 }
  - { offsetInCU: 0x8A47, offset: 0x8A47, size: 0x8, addend: 0x0, symName: __ZNSt3__114__thread_proxyB7v160006INS_5tupleIJNS_10unique_ptrINS_15__thread_structENS_14default_deleteIS3_EEEEMNS_19__async_assoc_stateIvNS_12__async_funcIPFvvEJEEEEEFvvEPSC_EEEEEPvSH_, symObjAddr: 0x22E0, symBinAddr: 0x1000048B0, symSize: 0xA0 }
  - { offsetInCU: 0x8AAC, offset: 0x8AAC, size: 0x8, addend: 0x0, symName: __ZNSt3__13getB7v160006ILm0EJNS_10unique_ptrINS_15__thread_structENS_14default_deleteIS2_EEEEMNS_19__async_assoc_stateIvNS_12__async_funcIPFvvEJEEEEEFvvEPSB_EEERNS_13tuple_elementIXT_ENS_5tupleIJDpT0_EEEE4typeERSJ_, symObjAddr: 0x2610, symBinAddr: 0x100004BE0, symSize: 0x20 }
  - { offsetInCU: 0x8AF9, offset: 0x8AF9, size: 0x8, addend: 0x0, symName: __ZNSt3__116__thread_executeB7v160006INS_10unique_ptrINS_15__thread_structENS_14default_deleteIS2_EEEEMNS_19__async_assoc_stateIvNS_12__async_funcIPFvvEJEEEEEFvvEJPSB_EJLm2EEEEvRNS_5tupleIJT_T0_DpT1_EEENS_15__tuple_indicesIJXspT2_EEEE, symObjAddr: 0x2630, symBinAddr: 0x100004C00, symSize: 0x40 }
  - { offsetInCU: 0x8B57, offset: 0x8B57, size: 0x8, addend: 0x0, symName: __ZNSt3__18__invokeB7v160006IMNS_19__async_assoc_stateIvNS_12__async_funcIPFvvEJEEEEEFvvEPS6_JEvEEDTcldsdeclsr3stdE7declvalIT0_EEclsr3stdE7declvalIT_EEspclsr3stdE7declvalIT1_EEEEOSB_OSA_DpOSC_, symObjAddr: 0x2670, symBinAddr: 0x100004C40, symSize: 0x70 }
  - { offsetInCU: 0x8BA8, offset: 0x8BA8, size: 0x8, addend: 0x0, symName: __ZNSt3__13getB7v160006ILm1EJNS_10unique_ptrINS_15__thread_structENS_14default_deleteIS2_EEEEMNS_19__async_assoc_stateIvNS_12__async_funcIPFvvEJEEEEEFvvEPSB_EEERNS_13tuple_elementIXT_ENS_5tupleIJDpT0_EEEE4typeERSJ_, symObjAddr: 0x26E0, symBinAddr: 0x100004CB0, symSize: 0x20 }
  - { offsetInCU: 0x8BF5, offset: 0x8BF5, size: 0x8, addend: 0x0, symName: __ZNSt3__13getB7v160006ILm2EJNS_10unique_ptrINS_15__thread_structENS_14default_deleteIS2_EEEEMNS_19__async_assoc_stateIvNS_12__async_funcIPFvvEJEEEEEFvvEPSB_EEERNS_13tuple_elementIXT_ENS_5tupleIJDpT0_EEEE4typeERSJ_, symObjAddr: 0x2700, symBinAddr: 0x100004CD0, symSize: 0x20 }
  - { offsetInCU: 0x8C42, offset: 0x8C42, size: 0x8, addend: 0x0, symName: __ZNSt3__134__libcpp_atomic_refcount_decrementB7v160006IlEET_RS1_, symObjAddr: 0x2A90, symBinAddr: 0x100005060, symSize: 0x30 }
  - { offsetInCU: 0x9426, offset: 0x9426, size: 0x8, addend: 0x0, symName: '__ZNSt3__114__thread_proxyB7v160006INS_5tupleIJNS_10unique_ptrINS_15__thread_structENS_14default_deleteIS3_EEEEZ6doWorkNS_8functionIFbiEEEiE3$_0EEEEEPvSC_', symObjAddr: 0x31E0, symBinAddr: 0x1000057B0, symSize: 0xA0 }
  - { offsetInCU: 0x9487, offset: 0x9487, size: 0x8, addend: 0x0, symName: '__ZNSt3__13getB7v160006ILm0EJNS_10unique_ptrINS_15__thread_structENS_14default_deleteIS2_EEEEZ6doWorkNS_8functionIFbiEEEiE3$_0EEERNS_13tuple_elementIXT_ENS_5tupleIJDpT0_EEEE4typeERSE_', symObjAddr: 0x34B0, symBinAddr: 0x100005A80, symSize: 0x20 }
  - { offsetInCU: 0x94D0, offset: 0x94D0, size: 0x8, addend: 0x0, symName: '__ZNSt3__116__thread_executeB7v160006INS_10unique_ptrINS_15__thread_structENS_14default_deleteIS2_EEEEZ6doWorkNS_8functionIFbiEEEiE3$_0JEJEEEvRNS_5tupleIJT_T0_DpT1_EEENS_15__tuple_indicesIJXspT2_EEEE', symObjAddr: 0x34D0, symBinAddr: 0x100005AA0, symSize: 0x30 }
  - { offsetInCU: 0x9522, offset: 0x9522, size: 0x8, addend: 0x0, symName: '__ZNSt3__18__invokeB7v160006IZ6doWorkNS_8functionIFbiEEEiE3$_0JEEEDTclclsr3stdE7declvalIT_EEspclsr3stdE7declvalIT0_EEEEOS5_DpOS6_', symObjAddr: 0x3500, symBinAddr: 0x100005AD0, symSize: 0x20 }
  - { offsetInCU: 0x955B, offset: 0x955B, size: 0x8, addend: 0x0, symName: '__ZNSt3__13getB7v160006ILm1EJNS_10unique_ptrINS_15__thread_structENS_14default_deleteIS2_EEEEZ6doWorkNS_8functionIFbiEEEiE3$_0EEERNS_13tuple_elementIXT_ENS_5tupleIJDpT0_EEEE4typeERSE_', symObjAddr: 0x3520, symBinAddr: 0x100005AF0, symSize: 0x20 }
  - { offsetInCU: 0x95A4, offset: 0x95A4, size: 0x8, addend: 0x0, symName: __ZNSt3__125__throw_bad_function_callB7v160006Ev, symObjAddr: 0x36A0, symBinAddr: 0x100005C70, symSize: 0x40 }
  - { offsetInCU: 0x961B, offset: 0x961B, size: 0x8, addend: 0x0, symName: __ZNSt3__112construct_atB7v160006IiJRKiEPiEEPT_S5_DpOT0_, symObjAddr: 0x3A40, symBinAddr: 0x100006010, symSize: 0x30 }
  - { offsetInCU: 0x968D, offset: 0x968D, size: 0x8, addend: 0x0, symName: __ZNSt3__13maxB7v160006ImEERKT_S3_S3_, symObjAddr: 0x3D40, symBinAddr: 0x100006310, symSize: 0x30 }
  - { offsetInCU: 0x96D0, offset: 0x96D0, size: 0x8, addend: 0x0, symName: __ZNSt3__13minB7v160006ImEERKT_S3_S3_, symObjAddr: 0x3D70, symBinAddr: 0x100006340, symSize: 0x30 }
  - { offsetInCU: 0x98FD, offset: 0x98FD, size: 0x8, addend: 0x0, symName: __ZNSt3__13minB7v160006ImNS_6__lessImmEEEERKT_S5_S5_T0_, symObjAddr: 0x3DF0, symBinAddr: 0x1000063C0, symSize: 0x50 }
  - { offsetInCU: 0x9B7F, offset: 0x9B7F, size: 0x8, addend: 0x0, symName: __ZNSt3__120__throw_length_errorB7v160006EPKc, symObjAddr: 0x3ED0, symBinAddr: 0x1000064A0, symSize: 0x70 }
  - { offsetInCU: 0x9BA7, offset: 0x9BA7, size: 0x8, addend: 0x0, symName: __ZNSt3__13maxB7v160006ImNS_6__lessImmEEEERKT_S5_S5_T0_, symObjAddr: 0x3FB0, symBinAddr: 0x100006580, symSize: 0x50 }
  - { offsetInCU: 0x9C01, offset: 0x9C01, size: 0x8, addend: 0x0, symName: __ZNSt3__119__allocate_at_leastB7v160006INS_9allocatorIiEEEENS_19__allocation_resultINS_16allocator_traitsIT_E7pointerEEERS5_m, symObjAddr: 0x4100, symBinAddr: 0x1000066D0, symSize: 0x40 }
  - { offsetInCU: 0x9C44, offset: 0x9C44, size: 0x8, addend: 0x0, symName: __ZNSt3__117__libcpp_allocateB7v160006Emm, symObjAddr: 0x4270, symBinAddr: 0x100006840, symSize: 0x60 }
  - { offsetInCU: 0x9C9E, offset: 0x9C9E, size: 0x8, addend: 0x0, symName: __ZNSt3__121__libcpp_operator_newB7v160006IJmSt11align_val_tEEEPvDpT_, symObjAddr: 0x42D0, symBinAddr: 0x1000068A0, symSize: 0x30 }
  - { offsetInCU: 0x9CEB, offset: 0x9CEB, size: 0x8, addend: 0x0, symName: __ZNSt3__121__libcpp_operator_newB7v160006IJmEEEPvDpT_, symObjAddr: 0x4300, symBinAddr: 0x1000068D0, symSize: 0x20 }
  - { offsetInCU: 0x9D24, offset: 0x9D24, size: 0x8, addend: 0x0, symName: __ZNSt3__142__uninitialized_allocator_move_if_noexceptB7v160006INS_9allocatorIiEENS_16reverse_iteratorIPiEES5_ivEET1_RT_T0_S9_S6_, symObjAddr: 0x4380, symBinAddr: 0x100006950, symSize: 0x70 }
  - { offsetInCU: 0x9DA0, offset: 0x9DA0, size: 0x8, addend: 0x0, symName: __ZNSt3__14swapB7v160006IPiEENS_9enable_ifIXaasr21is_move_constructibleIT_EE5valuesr18is_move_assignableIS3_EE5valueEvE4typeERS3_S6_, symObjAddr: 0x4440, symBinAddr: 0x100006A10, symSize: 0x40 }
  - { offsetInCU: 0x9DF2, offset: 0x9DF2, size: 0x8, addend: 0x0, symName: __ZNSt3__125__debug_db_invalidate_allB7v160006INS_6vectorIiNS_9allocatorIiEEEEEEvPT_, symObjAddr: 0x4530, symBinAddr: 0x100006B00, symSize: 0x10 }
  - { offsetInCU: 0x9E23, offset: 0x9E23, size: 0x8, addend: 0x0, symName: __ZNSt3__14moveB7v160006INS_16reverse_iteratorIPiEES3_EET0_T_S5_S4_, symObjAddr: 0x4540, symBinAddr: 0x100006B10, symSize: 0x80 }
  - { offsetInCU: 0x9E7D, offset: 0x9E7D, size: 0x8, addend: 0x0, symName: __ZNSt3__16__moveB7v160006INS_17_ClassicAlgPolicyENS_16reverse_iteratorIPiEES4_S4_EENS_4pairIT0_T2_EES6_T1_S7_, symObjAddr: 0x45C0, symBinAddr: 0x100006B90, symSize: 0x90 }
  - { offsetInCU: 0x9EE9, offset: 0x9EE9, size: 0x8, addend: 0x0, symName: __ZNSt3__123__dispatch_copy_or_moveB7v160006INS_17_ClassicAlgPolicyENS_11__move_loopIS1_EENS_14__move_trivialENS_16reverse_iteratorIPiEES7_S7_EENS_4pairIT2_T4_EES9_T3_SA_, symObjAddr: 0x4650, symBinAddr: 0x100006C20, symSize: 0x90 }
  - { offsetInCU: 0x9F67, offset: 0x9F67, size: 0x8, addend: 0x0, symName: __ZNSt3__121__unwrap_and_dispatchB7v160006INS_10__overloadINS_11__move_loopINS_17_ClassicAlgPolicyEEENS_14__move_trivialEEENS_16reverse_iteratorIPiEES9_S9_Li0EEENS_4pairIT0_T2_EESB_T1_SC_, symObjAddr: 0x46E0, symBinAddr: 0x100006CB0, symSize: 0x210 }
  - { offsetInCU: 0x9FF8, offset: 0x9FF8, size: 0x8, addend: 0x0, symName: __ZNSt3__114__unwrap_rangeB7v160006INS_16reverse_iteratorIPiEES3_EEDaT_T0_, symObjAddr: 0x48F0, symBinAddr: 0x100006EC0, symSize: 0x60 }
  - { offsetInCU: 0xA173, offset: 0xA173, size: 0x8, addend: 0x0, symName: __ZNSt3__113__unwrap_iterB7v160006INS_16reverse_iteratorIPiEENS_18__unwrap_iter_implIS3_Lb0EEELi0EEEDTclsrT0_8__unwrapclsr3stdE7declvalIT_EEEES7_, symObjAddr: 0x49F0, symBinAddr: 0x100006FC0, symSize: 0x40 }
  - { offsetInCU: 0xA1B7, offset: 0xA1B7, size: 0x8, addend: 0x0, symName: __ZNSt3__19make_pairB7v160006INS_16reverse_iteratorIPiEES3_EENS_4pairINS_18__unwrap_ref_decayIT_E4typeENS5_IT0_E4typeEEEOS6_OS9_, symObjAddr: 0x4A30, symBinAddr: 0x100007000, symSize: 0x30 }
  - { offsetInCU: 0xA206, offset: 0xA206, size: 0x8, addend: 0x0, symName: __ZNSt3__114__rewrap_rangeB7v160006INS_16reverse_iteratorIPiEES3_S3_EET0_S4_T1_, symObjAddr: 0x4A60, symBinAddr: 0x100007030, symSize: 0x60 }
  - { offsetInCU: 0xA25B, offset: 0xA25B, size: 0x8, addend: 0x0, symName: __ZNSt3__113__rewrap_iterB7v160006INS_16reverse_iteratorIPiEES3_NS_18__unwrap_iter_implIS3_Lb0EEEEET_S6_T0_, symObjAddr: 0x4AC0, symBinAddr: 0x100007090, symSize: 0x70 }
  - { offsetInCU: 0xA300, offset: 0xA300, size: 0x8, addend: 0x0, symName: __ZNSt3__1neB7v160006IPiS1_EEbRKNS_16reverse_iteratorIT_EERKNS2_IT0_EE, symObjAddr: 0x4C30, symBinAddr: 0x100007200, symSize: 0x40 }
  - { offsetInCU: 0xA851, offset: 0xA851, size: 0x8, addend: 0x0, symName: __ZSt28__throw_bad_array_new_lengthB7v160006v, symObjAddr: 0x4230, symBinAddr: 0x100006800, symSize: 0x40 }
  - { offsetInCU: 0xA968, offset: 0xA968, size: 0x8, addend: 0x0, symName: _t1, symObjAddr: 0x47A70, symBinAddr: 0x10000C008, symSize: 0x0 }
  - { offsetInCU: 0xA97D, offset: 0xA97D, size: 0x8, addend: 0x0, symName: _t2, symObjAddr: 0x47A78, symBinAddr: 0x10000C010, symSize: 0x0 }
  - { offsetInCU: 0xA992, offset: 0xA992, size: 0x8, addend: 0x0, symName: _f, symObjAddr: 0x47A80, symBinAddr: 0x10000C018, symSize: 0x0 }
  - { offsetInCU: 0xAC59, offset: 0xAC59, size: 0x8, addend: 0x0, symName: _t3, symObjAddr: 0x47A88, symBinAddr: 0x10000C020, symSize: 0x0 }
  - { offsetInCU: 0xAC6E, offset: 0xAC6E, size: 0x8, addend: 0x0, symName: _handle, symObjAddr: 0x47A90, symBinAddr: 0x10000C028, symSize: 0x0 }
  - { offsetInCU: 0xB20E, offset: 0xB20E, size: 0x8, addend: 0x0, symName: __Z6doWorkNSt3__18functionIFbiEEEi, symObjAddr: 0xD0, symBinAddr: 0x1000026A0, symSize: 0x130 }
  - { offsetInCU: 0xB5E6, offset: 0xB5E6, size: 0x8, addend: 0x0, symName: __ZNSt3__16vectorIiNS_9allocatorIiEEE26__swap_out_circular_bufferERNS_14__split_bufferIiRS2_EE, symObjAddr: 0x3B70, symBinAddr: 0x100006140, symSize: 0x130 }
  - { offsetInCU: 0xD8ED, offset: 0xD8ED, size: 0x8, addend: 0x0, symName: __Z7doWork1v, symObjAddr: 0x0, symBinAddr: 0x1000025D0, symSize: 0x10 }
  - { offsetInCU: 0xD90D, offset: 0xD90D, size: 0x8, addend: 0x0, symName: __ZNSt3__16threadC1IRFvvEJEvEEOT_DpOT0_, symObjAddr: 0x10, symBinAddr: 0x1000025E0, symSize: 0x30 }
  - { offsetInCU: 0xD955, offset: 0xD955, size: 0x8, addend: 0x0, symName: __ZNSt3__16threadC1B7v160006EOS0_, symObjAddr: 0x40, symBinAddr: 0x100002610, symSize: 0x30 }
  - { offsetInCU: 0xD98D, offset: 0xD98D, size: 0x8, addend: 0x0, symName: __Z9audioTaskv, symObjAddr: 0x70, symBinAddr: 0x100002640, symSize: 0x10 }
  - { offsetInCU: 0xD9A7, offset: 0xD9A7, size: 0x8, addend: 0x0, symName: __ZNSt3__16thread13native_handleB7v160006Ev, symObjAddr: 0xB0, symBinAddr: 0x100002680, symSize: 0x20 }
  - { offsetInCU: 0xD9CD, offset: 0xD9CD, size: 0x8, addend: 0x0, symName: __ZNSt3__16vectorIiNS_9allocatorIiEEEC1B7v160006Ev, symObjAddr: 0x200, symBinAddr: 0x1000027D0, symSize: 0x20 }
  - { offsetInCU: 0xD9FD, offset: 0xD9FD, size: 0x8, addend: 0x0, symName: '__ZNSt3__16threadC1IZ6doWorkNS_8functionIFbiEEEiE3$_0JEvEEOT_DpOT0_', symObjAddr: 0x220, symBinAddr: 0x1000027F0, symSize: 0x30 }
  - { offsetInCU: 0xDA45, offset: 0xDA45, size: 0x8, addend: 0x0, symName: __ZN10ThreadRAIIC1EONSt3__16threadENS_10DtorActionE, symObjAddr: 0x250, symBinAddr: 0x100002820, symSize: 0x30 }
  - { offsetInCU: 0xDA8B, offset: 0xDA8B, size: 0x8, addend: 0x0, symName: __ZN10ThreadRAII3getEv, symObjAddr: 0x280, symBinAddr: 0x100002850, symSize: 0x20 }
  - { offsetInCU: 0xDAB1, offset: 0xDAB1, size: 0x8, addend: 0x0, symName: __ZN10ThreadRAIID1Ev, symObjAddr: 0x2A0, symBinAddr: 0x100002870, symSize: 0x20 }
  - { offsetInCU: 0xDADB, offset: 0xDADB, size: 0x8, addend: 0x0, symName: __ZNSt3__16vectorIiNS_9allocatorIiEEED1B7v160006Ev, symObjAddr: 0x2C0, symBinAddr: 0x100002890, symSize: 0x20 }
  - { offsetInCU: 0xDB05, offset: 0xDB05, size: 0x8, addend: 0x0, symName: _main, symObjAddr: 0x2E0, symBinAddr: 0x1000028B0, symSize: 0x10 }
  - { offsetInCU: 0xDB1F, offset: 0xDB1F, size: 0x8, addend: 0x0, symName: __ZNSt3__16threadC2B7v160006EOS0_, symObjAddr: 0x2F0, symBinAddr: 0x1000028C0, symSize: 0x30 }
  - { offsetInCU: 0xDB57, offset: 0xDB57, size: 0x8, addend: 0x0, symName: __ZNSt3__16vectorIiNS_9allocatorIiEEEC2B7v160006Ev, symObjAddr: 0x320, symBinAddr: 0x1000028F0, symSize: 0x60 }
  - { offsetInCU: 0xDB8D, offset: 0xDB8D, size: 0x8, addend: 0x0, symName: __ZNSt3__117__compressed_pairIPiNS_9allocatorIiEEEC1B7v160006IDnNS_18__default_init_tagEEEOT_OT0_, symObjAddr: 0x380, symBinAddr: 0x100002950, symSize: 0x30 }
  - { offsetInCU: 0xDBE5, offset: 0xDBE5, size: 0x8, addend: 0x0, symName: __ZNSt3__117__compressed_pairIPiNS_9allocatorIiEEEC2B7v160006IDnNS_18__default_init_tagEEEOT_OT0_, symObjAddr: 0x3D0, symBinAddr: 0x1000029A0, symSize: 0x40 }
  - { offsetInCU: 0xDC3D, offset: 0xDC3D, size: 0x8, addend: 0x0, symName: __ZNSt3__122__compressed_pair_elemIPiLi0ELb0EEC2B7v160006IDnvEEOT_, symObjAddr: 0x410, symBinAddr: 0x1000029E0, symSize: 0x20 }
  - { offsetInCU: 0xDC7F, offset: 0xDC7F, size: 0x8, addend: 0x0, symName: __ZNSt3__122__compressed_pair_elemINS_9allocatorIiEELi1ELb1EEC2B7v160006ENS_18__default_init_tagE, symObjAddr: 0x430, symBinAddr: 0x100002A00, symSize: 0x20 }
  - { offsetInCU: 0xDCB4, offset: 0xDCB4, size: 0x8, addend: 0x0, symName: __ZNSt3__19allocatorIiEC2B7v160006Ev, symObjAddr: 0x450, symBinAddr: 0x100002A20, symSize: 0x20 }
  - { offsetInCU: 0xDCDE, offset: 0xDCDE, size: 0x8, addend: 0x0, symName: __ZNSt3__116__non_trivial_ifILb1ENS_9allocatorIiEEEC2B7v160006Ev, symObjAddr: 0x470, symBinAddr: 0x100002A40, symSize: 0x10 }
  - { offsetInCU: 0xDD08, offset: 0xDD08, size: 0x8, addend: 0x0, symName: __ZN10ThreadRAIIC2EONSt3__16threadENS_10DtorActionE, symObjAddr: 0x480, symBinAddr: 0x100002A50, symSize: 0x30 }
  - { offsetInCU: 0xDD4E, offset: 0xDD4E, size: 0x8, addend: 0x0, symName: __ZN10ThreadRAIID2Ev, symObjAddr: 0x4B0, symBinAddr: 0x100002A80, symSize: 0x90 }
  - { offsetInCU: 0xDD78, offset: 0xDD78, size: 0x8, addend: 0x0, symName: __ZNKSt3__16thread8joinableB7v160006Ev, symObjAddr: 0x540, symBinAddr: 0x100002B10, symSize: 0x40 }
  - { offsetInCU: 0xDD9E, offset: 0xDD9E, size: 0x8, addend: 0x0, symName: __ZNSt3__16vectorIiNS_9allocatorIiEEED2B7v160006Ev, symObjAddr: 0x5D0, symBinAddr: 0x100002BA0, symSize: 0x40 }
  - { offsetInCU: 0xDDC8, offset: 0xDDC8, size: 0x8, addend: 0x0, symName: __ZNSt3__16vectorIiNS_9allocatorIiEEE16__destroy_vectorC1ERS3_, symObjAddr: 0x610, symBinAddr: 0x100002BE0, symSize: 0x30 }
  - { offsetInCU: 0xDE01, offset: 0xDE01, size: 0x8, addend: 0x0, symName: __ZNSt3__16vectorIiNS_9allocatorIiEEE16__destroy_vectorclB7v160006Ev, symObjAddr: 0x640, symBinAddr: 0x100002C10, symSize: 0x90 }
  - { offsetInCU: 0xDE27, offset: 0xDE27, size: 0x8, addend: 0x0, symName: __ZNSt3__16vectorIiNS_9allocatorIiEEE16__destroy_vectorC2ERS3_, symObjAddr: 0x6D0, symBinAddr: 0x100002CA0, symSize: 0x20 }
  - { offsetInCU: 0xDE60, offset: 0xDE60, size: 0x8, addend: 0x0, symName: __ZNKSt3__16vectorIiNS_9allocatorIiEEE17__annotate_deleteB7v160006Ev, symObjAddr: 0x6F0, symBinAddr: 0x100002CC0, symSize: 0xB0 }
  - { offsetInCU: 0xDE86, offset: 0xDE86, size: 0x8, addend: 0x0, symName: __ZNSt3__16vectorIiNS_9allocatorIiEEE7__clearB7v160006Ev, symObjAddr: 0x7B0, symBinAddr: 0x100002D80, symSize: 0x20 }
  - { offsetInCU: 0xDEAC, offset: 0xDEAC, size: 0x8, addend: 0x0, symName: __ZNSt3__116allocator_traitsINS_9allocatorIiEEE10deallocateB7v160006ERS2_Pim, symObjAddr: 0x7D0, symBinAddr: 0x100002DA0, symSize: 0x30 }
  - { offsetInCU: 0xDEEE, offset: 0xDEEE, size: 0x8, addend: 0x0, symName: __ZNSt3__16vectorIiNS_9allocatorIiEEE7__allocB7v160006Ev, symObjAddr: 0x800, symBinAddr: 0x100002DD0, symSize: 0x20 }
  - { offsetInCU: 0xDF14, offset: 0xDF14, size: 0x8, addend: 0x0, symName: __ZNKSt3__16vectorIiNS_9allocatorIiEEE8capacityB7v160006Ev, symObjAddr: 0x820, symBinAddr: 0x100002DF0, symSize: 0x30 }
  - { offsetInCU: 0xDF3A, offset: 0xDF3A, size: 0x8, addend: 0x0, symName: __ZNKSt3__16vectorIiNS_9allocatorIiEEE31__annotate_contiguous_containerB7v160006EPKvS5_S5_S5_, symObjAddr: 0x850, symBinAddr: 0x100002E20, symSize: 0x20 }
  - { offsetInCU: 0xDF8C, offset: 0xDF8C, size: 0x8, addend: 0x0, symName: __ZNKSt3__16vectorIiNS_9allocatorIiEEE4dataB7v160006Ev, symObjAddr: 0x870, symBinAddr: 0x100002E40, symSize: 0x20 }
  - { offsetInCU: 0xDFB2, offset: 0xDFB2, size: 0x8, addend: 0x0, symName: __ZNKSt3__16vectorIiNS_9allocatorIiEEE4sizeB7v160006Ev, symObjAddr: 0x890, symBinAddr: 0x100002E60, symSize: 0x20 }
  - { offsetInCU: 0xDFD8, offset: 0xDFD8, size: 0x8, addend: 0x0, symName: __ZNSt3__16vectorIiNS_9allocatorIiEEE22__base_destruct_at_endB7v160006EPi, symObjAddr: 0x8C0, symBinAddr: 0x100002E90, symSize: 0x80 }
  - { offsetInCU: 0xE01C, offset: 0xE01C, size: 0x8, addend: 0x0, symName: __ZNSt3__116allocator_traitsINS_9allocatorIiEEE7destroyB7v160006IivvEEvRS2_PT_, symObjAddr: 0x940, symBinAddr: 0x100002F10, symSize: 0x20 }
  - { offsetInCU: 0xE056, offset: 0xE056, size: 0x8, addend: 0x0, symName: __ZNSt3__19allocatorIiE10deallocateB7v160006EPim, symObjAddr: 0x990, symBinAddr: 0x100002F60, symSize: 0x40 }
  - { offsetInCU: 0xE098, offset: 0xE098, size: 0x8, addend: 0x0, symName: __ZNSt3__117__compressed_pairIPiNS_9allocatorIiEEE6secondB7v160006Ev, symObjAddr: 0xAF0, symBinAddr: 0x1000030C0, symSize: 0x20 }
  - { offsetInCU: 0xE0BE, offset: 0xE0BE, size: 0x8, addend: 0x0, symName: __ZNSt3__122__compressed_pair_elemINS_9allocatorIiEELi1ELb1EE5__getB7v160006Ev, symObjAddr: 0xB10, symBinAddr: 0x1000030E0, symSize: 0x10 }
  - { offsetInCU: 0xE0E4, offset: 0xE0E4, size: 0x8, addend: 0x0, symName: __ZNKSt3__16vectorIiNS_9allocatorIiEEE9__end_capB7v160006Ev, symObjAddr: 0xB20, symBinAddr: 0x1000030F0, symSize: 0x20 }
  - { offsetInCU: 0xE10A, offset: 0xE10A, size: 0x8, addend: 0x0, symName: __ZNKSt3__117__compressed_pairIPiNS_9allocatorIiEEE5firstB7v160006Ev, symObjAddr: 0xB40, symBinAddr: 0x100003110, symSize: 0x20 }
  - { offsetInCU: 0xE130, offset: 0xE130, size: 0x8, addend: 0x0, symName: __ZNKSt3__122__compressed_pair_elemIPiLi0ELb0EE5__getB7v160006Ev, symObjAddr: 0xB60, symBinAddr: 0x100003130, symSize: 0x10 }
  - { offsetInCU: 0xE156, offset: 0xE156, size: 0x8, addend: 0x0, symName: __ZNSt3__16threadC2IRFvvEJEvEEOT_DpOT0_, symObjAddr: 0xB70, symBinAddr: 0x100003140, symSize: 0x140 }
  - { offsetInCU: 0xE1D2, offset: 0xE1D2, size: 0x8, addend: 0x0, symName: __ZNSt3__110unique_ptrINS_15__thread_structENS_14default_deleteIS1_EEEC1B7v160006ILb1EvEEPS1_, symObjAddr: 0xCB0, symBinAddr: 0x100003280, symSize: 0x30 }
  - { offsetInCU: 0xE215, offset: 0xE215, size: 0x8, addend: 0x0, symName: __ZNSt3__15tupleIJNS_10unique_ptrINS_15__thread_structENS_14default_deleteIS2_EEEEPFvvEEEC1B7v160006IJS5_RS6_ELi0EEEDpOT_, symObjAddr: 0xCE0, symBinAddr: 0x1000032B0, symSize: 0x30 }
  - { offsetInCU: 0xE321, offset: 0xE321, size: 0x8, addend: 0x0, symName: __ZNSt3__110unique_ptrINS_5tupleIJNS0_INS_15__thread_structENS_14default_deleteIS2_EEEEPFvvEEEENS3_IS8_EEEC1B7v160006ILb1EvEEPS8_, symObjAddr: 0xD10, symBinAddr: 0x1000032E0, symSize: 0x30 }
  - { offsetInCU: 0xE364, offset: 0xE364, size: 0x8, addend: 0x0, symName: __ZNKSt3__110unique_ptrINS_5tupleIJNS0_INS_15__thread_structENS_14default_deleteIS2_EEEEPFvvEEEENS3_IS8_EEE3getB7v160006Ev, symObjAddr: 0xE10, symBinAddr: 0x1000033E0, symSize: 0x20 }
  - { offsetInCU: 0xE38A, offset: 0xE38A, size: 0x8, addend: 0x0, symName: __ZNSt3__110unique_ptrINS_5tupleIJNS0_INS_15__thread_structENS_14default_deleteIS2_EEEEPFvvEEEENS3_IS8_EEE7releaseB7v160006Ev, symObjAddr: 0xE30, symBinAddr: 0x100003400, symSize: 0x40 }
  - { offsetInCU: 0xE3BF, offset: 0xE3BF, size: 0x8, addend: 0x0, symName: __ZNSt3__110unique_ptrINS_5tupleIJNS0_INS_15__thread_structENS_14default_deleteIS2_EEEEPFvvEEEENS3_IS8_EEED1B7v160006Ev, symObjAddr: 0xE70, symBinAddr: 0x100003440, symSize: 0x20 }
  - { offsetInCU: 0xE3E9, offset: 0xE3E9, size: 0x8, addend: 0x0, symName: __ZNSt3__110unique_ptrINS_15__thread_structENS_14default_deleteIS1_EEED1B7v160006Ev, symObjAddr: 0xE90, symBinAddr: 0x100003460, symSize: 0x20 }
  - { offsetInCU: 0xE413, offset: 0xE413, size: 0x8, addend: 0x0, symName: __ZNSt3__110unique_ptrINS_15__thread_structENS_14default_deleteIS1_EEEC2B7v160006ILb1EvEEPS1_, symObjAddr: 0xEB0, symBinAddr: 0x100003480, symSize: 0x40 }
  - { offsetInCU: 0xE45C, offset: 0xE45C, size: 0x8, addend: 0x0, symName: __ZNSt3__117__compressed_pairIPNS_15__thread_structENS_14default_deleteIS1_EEEC1B7v160006IRS2_NS_16__value_init_tagEEEOT_OT0_, symObjAddr: 0xEF0, symBinAddr: 0x1000034C0, symSize: 0x30 }
  - { offsetInCU: 0xE4B4, offset: 0xE4B4, size: 0x8, addend: 0x0, symName: __ZNSt3__117__compressed_pairIPNS_15__thread_structENS_14default_deleteIS1_EEEC2B7v160006IRS2_NS_16__value_init_tagEEEOT_OT0_, symObjAddr: 0xF20, symBinAddr: 0x1000034F0, symSize: 0x40 }
  - { offsetInCU: 0xE50C, offset: 0xE50C, size: 0x8, addend: 0x0, symName: __ZNSt3__122__compressed_pair_elemIPNS_15__thread_structELi0ELb0EEC2B7v160006IRS2_vEEOT_, symObjAddr: 0xF60, symBinAddr: 0x100003530, symSize: 0x20 }
  - { offsetInCU: 0xE54E, offset: 0xE54E, size: 0x8, addend: 0x0, symName: __ZNSt3__122__compressed_pair_elemINS_14default_deleteINS_15__thread_structEEELi1ELb1EEC2B7v160006ENS_16__value_init_tagE, symObjAddr: 0xF80, symBinAddr: 0x100003550, symSize: 0x10 }
  - { offsetInCU: 0xE583, offset: 0xE583, size: 0x8, addend: 0x0, symName: __ZNSt3__15tupleIJNS_10unique_ptrINS_15__thread_structENS_14default_deleteIS2_EEEEPFvvEEEC2B7v160006IJS5_RS6_ELi0EEEDpOT_, symObjAddr: 0xF90, symBinAddr: 0x100003560, symSize: 0x30 }
  - { offsetInCU: 0xE5E1, offset: 0xE5E1, size: 0x8, addend: 0x0, symName: __ZNSt3__112__tuple_implINS_15__tuple_indicesIJLm0ELm1EEEEJNS_10unique_ptrINS_15__thread_structENS_14default_deleteIS4_EEEEPFvvEEEC1B7v160006IJLm0ELm1EEJS7_S9_EJEJEJS7_RS8_EEENS1_IJXspT_EEEENS_13__tuple_typesIJDpT0_EEENS1_IJXspT1_EEEENSE_IJDpT2_EEEDpOT3_, symObjAddr: 0xFC0, symBinAddr: 0x100003590, symSize: 0x30 }
  - { offsetInCU: 0xE691, offset: 0xE691, size: 0x8, addend: 0x0, symName: __ZNSt3__112__tuple_implINS_15__tuple_indicesIJLm0ELm1EEEEJNS_10unique_ptrINS_15__thread_structENS_14default_deleteIS4_EEEEPFvvEEEC2B7v160006IJLm0ELm1EEJS7_S9_EJEJEJS7_RS8_EEENS1_IJXspT_EEEENS_13__tuple_typesIJDpT0_EEENS1_IJXspT1_EEEENSE_IJDpT2_EEEDpOT3_, symObjAddr: 0xFF0, symBinAddr: 0x1000035C0, symSize: 0x40 }
  - { offsetInCU: 0xE741, offset: 0xE741, size: 0x8, addend: 0x0, symName: __ZNSt3__112__tuple_leafILm0ENS_10unique_ptrINS_15__thread_structENS_14default_deleteIS2_EEEELb0EEC2B7v160006IS5_vEEOT_, symObjAddr: 0x1030, symBinAddr: 0x100003600, symSize: 0x30 }
  - { offsetInCU: 0xE784, offset: 0xE784, size: 0x8, addend: 0x0, symName: __ZNSt3__112__tuple_leafILm1EPFvvELb0EEC2B7v160006IRS1_vEEOT_, symObjAddr: 0x1060, symBinAddr: 0x100003630, symSize: 0x20 }
  - { offsetInCU: 0xE7C7, offset: 0xE7C7, size: 0x8, addend: 0x0, symName: __ZNSt3__110unique_ptrINS_15__thread_structENS_14default_deleteIS1_EEEC1B7v160006EOS4_, symObjAddr: 0x1080, symBinAddr: 0x100003650, symSize: 0x30 }
  - { offsetInCU: 0xE7FF, offset: 0xE7FF, size: 0x8, addend: 0x0, symName: __ZNSt3__110unique_ptrINS_15__thread_structENS_14default_deleteIS1_EEEC2B7v160006EOS4_, symObjAddr: 0x10B0, symBinAddr: 0x100003680, symSize: 0x60 }
  - { offsetInCU: 0xE837, offset: 0xE837, size: 0x8, addend: 0x0, symName: __ZNSt3__110unique_ptrINS_15__thread_structENS_14default_deleteIS1_EEE7releaseB7v160006Ev, symObjAddr: 0x1110, symBinAddr: 0x1000036E0, symSize: 0x40 }
  - { offsetInCU: 0xE86C, offset: 0xE86C, size: 0x8, addend: 0x0, symName: __ZNSt3__110unique_ptrINS_15__thread_structENS_14default_deleteIS1_EEE11get_deleterB7v160006Ev, symObjAddr: 0x1150, symBinAddr: 0x100003720, symSize: 0x20 }
  - { offsetInCU: 0xE89E, offset: 0xE89E, size: 0x8, addend: 0x0, symName: __ZNSt3__117__compressed_pairIPNS_15__thread_structENS_14default_deleteIS1_EEEC1B7v160006IS2_S4_EEOT_OT0_, symObjAddr: 0x1170, symBinAddr: 0x100003740, symSize: 0x30 }
  - { offsetInCU: 0xE8F6, offset: 0xE8F6, size: 0x8, addend: 0x0, symName: __ZNSt3__117__compressed_pairIPNS_15__thread_structENS_14default_deleteIS1_EEE5firstB7v160006Ev, symObjAddr: 0x11A0, symBinAddr: 0x100003770, symSize: 0x20 }
  - { offsetInCU: 0xE91C, offset: 0xE91C, size: 0x8, addend: 0x0, symName: __ZNSt3__122__compressed_pair_elemIPNS_15__thread_structELi0ELb0EE5__getB7v160006Ev, symObjAddr: 0x11C0, symBinAddr: 0x100003790, symSize: 0x10 }
  - { offsetInCU: 0xE942, offset: 0xE942, size: 0x8, addend: 0x0, symName: __ZNSt3__117__compressed_pairIPNS_15__thread_structENS_14default_deleteIS1_EEE6secondB7v160006Ev, symObjAddr: 0x11D0, symBinAddr: 0x1000037A0, symSize: 0x20 }
  - { offsetInCU: 0xE968, offset: 0xE968, size: 0x8, addend: 0x0, symName: __ZNSt3__122__compressed_pair_elemINS_14default_deleteINS_15__thread_structEEELi1ELb1EE5__getB7v160006Ev, symObjAddr: 0x11F0, symBinAddr: 0x1000037C0, symSize: 0x10 }
  - { offsetInCU: 0xE98E, offset: 0xE98E, size: 0x8, addend: 0x0, symName: __ZNSt3__117__compressed_pairIPNS_15__thread_structENS_14default_deleteIS1_EEEC2B7v160006IS2_S4_EEOT_OT0_, symObjAddr: 0x1200, symBinAddr: 0x1000037D0, symSize: 0x40 }
  - { offsetInCU: 0xE9E6, offset: 0xE9E6, size: 0x8, addend: 0x0, symName: __ZNSt3__122__compressed_pair_elemIPNS_15__thread_structELi0ELb0EEC2B7v160006IS2_vEEOT_, symObjAddr: 0x1240, symBinAddr: 0x100003810, symSize: 0x20 }
  - { offsetInCU: 0xEA28, offset: 0xEA28, size: 0x8, addend: 0x0, symName: __ZNSt3__122__compressed_pair_elemINS_14default_deleteINS_15__thread_structEEELi1ELb1EEC2B7v160006IS3_vEEOT_, symObjAddr: 0x1260, symBinAddr: 0x100003830, symSize: 0x10 }
  - { offsetInCU: 0xEA6A, offset: 0xEA6A, size: 0x8, addend: 0x0, symName: __ZNSt3__110unique_ptrINS_5tupleIJNS0_INS_15__thread_structENS_14default_deleteIS2_EEEEPFvvEEEENS3_IS8_EEEC2B7v160006ILb1EvEEPS8_, symObjAddr: 0x1270, symBinAddr: 0x100003840, symSize: 0x40 }
  - { offsetInCU: 0xEAAD, offset: 0xEAAD, size: 0x8, addend: 0x0, symName: __ZNSt3__117__compressed_pairIPNS_5tupleIJNS_10unique_ptrINS_15__thread_structENS_14default_deleteIS3_EEEEPFvvEEEENS4_IS9_EEEC1B7v160006IRSA_NS_16__value_init_tagEEEOT_OT0_, symObjAddr: 0x12B0, symBinAddr: 0x100003880, symSize: 0x30 }
  - { offsetInCU: 0xEB05, offset: 0xEB05, size: 0x8, addend: 0x0, symName: __ZNSt3__117__compressed_pairIPNS_5tupleIJNS_10unique_ptrINS_15__thread_structENS_14default_deleteIS3_EEEEPFvvEEEENS4_IS9_EEEC2B7v160006IRSA_NS_16__value_init_tagEEEOT_OT0_, symObjAddr: 0x12E0, symBinAddr: 0x1000038B0, symSize: 0x40 }
  - { offsetInCU: 0xEB5D, offset: 0xEB5D, size: 0x8, addend: 0x0, symName: __ZNSt3__122__compressed_pair_elemIPNS_5tupleIJNS_10unique_ptrINS_15__thread_structENS_14default_deleteIS3_EEEEPFvvEEEELi0ELb0EEC2B7v160006IRSA_vEEOT_, symObjAddr: 0x1320, symBinAddr: 0x1000038F0, symSize: 0x20 }
  - { offsetInCU: 0xEB9F, offset: 0xEB9F, size: 0x8, addend: 0x0, symName: __ZNSt3__122__compressed_pair_elemINS_14default_deleteINS_5tupleIJNS_10unique_ptrINS_15__thread_structENS1_IS4_EEEEPFvvEEEEEELi1ELb1EEC2B7v160006ENS_16__value_init_tagE, symObjAddr: 0x1340, symBinAddr: 0x100003910, symSize: 0x10 }
  - { offsetInCU: 0xEC08, offset: 0xEC08, size: 0x8, addend: 0x0, symName: __ZNSt3__121__thread_specific_ptrINS_15__thread_structEE11set_pointerEPS1_, symObjAddr: 0x1350, symBinAddr: 0x100003920, symSize: 0x30 }
  - { offsetInCU: 0xEC3D, offset: 0xEC3D, size: 0x8, addend: 0x0, symName: __ZNSt3__112__tuple_leafILm0ENS_10unique_ptrINS_15__thread_structENS_14default_deleteIS2_EEEELb0EE3getB7v160006Ev, symObjAddr: 0x1400, symBinAddr: 0x1000039D0, symSize: 0x10 }
  - { offsetInCU: 0xEC63, offset: 0xEC63, size: 0x8, addend: 0x0, symName: __ZNSt3__112__tuple_leafILm1EPFvvELb0EE3getB7v160006Ev, symObjAddr: 0x1450, symBinAddr: 0x100003A20, symSize: 0x10 }
  - { offsetInCU: 0xEC89, offset: 0xEC89, size: 0x8, addend: 0x0, symName: __ZNKSt3__117__compressed_pairIPNS_5tupleIJNS_10unique_ptrINS_15__thread_structENS_14default_deleteIS3_EEEEPFvvEEEENS4_IS9_EEE5firstB7v160006Ev, symObjAddr: 0x1460, symBinAddr: 0x100003A30, symSize: 0x20 }
  - { offsetInCU: 0xECAF, offset: 0xECAF, size: 0x8, addend: 0x0, symName: __ZNKSt3__122__compressed_pair_elemIPNS_5tupleIJNS_10unique_ptrINS_15__thread_structENS_14default_deleteIS3_EEEEPFvvEEEELi0ELb0EE5__getB7v160006Ev, symObjAddr: 0x1480, symBinAddr: 0x100003A50, symSize: 0x10 }
  - { offsetInCU: 0xECD5, offset: 0xECD5, size: 0x8, addend: 0x0, symName: __ZNSt3__117__compressed_pairIPNS_5tupleIJNS_10unique_ptrINS_15__thread_structENS_14default_deleteIS3_EEEEPFvvEEEENS4_IS9_EEE5firstB7v160006Ev, symObjAddr: 0x1490, symBinAddr: 0x100003A60, symSize: 0x20 }
  - { offsetInCU: 0xECFB, offset: 0xECFB, size: 0x8, addend: 0x0, symName: __ZNSt3__122__compressed_pair_elemIPNS_5tupleIJNS_10unique_ptrINS_15__thread_structENS_14default_deleteIS3_EEEEPFvvEEEELi0ELb0EE5__getB7v160006Ev, symObjAddr: 0x14B0, symBinAddr: 0x100003A80, symSize: 0x10 }
  - { offsetInCU: 0xED21, offset: 0xED21, size: 0x8, addend: 0x0, symName: __ZNSt3__110unique_ptrINS_5tupleIJNS0_INS_15__thread_structENS_14default_deleteIS2_EEEEPFvvEEEENS3_IS8_EEED2B7v160006Ev, symObjAddr: 0x14C0, symBinAddr: 0x100003A90, symSize: 0x20 }
  - { offsetInCU: 0xED4B, offset: 0xED4B, size: 0x8, addend: 0x0, symName: __ZNSt3__110unique_ptrINS_5tupleIJNS0_INS_15__thread_structENS_14default_deleteIS2_EEEEPFvvEEEENS3_IS8_EEE5resetB7v160006EPS8_, symObjAddr: 0x14E0, symBinAddr: 0x100003AB0, symSize: 0x70 }
  - { offsetInCU: 0xED8F, offset: 0xED8F, size: 0x8, addend: 0x0, symName: __ZNSt3__117__compressed_pairIPNS_5tupleIJNS_10unique_ptrINS_15__thread_structENS_14default_deleteIS3_EEEEPFvvEEEENS4_IS9_EEE6secondB7v160006Ev, symObjAddr: 0x1550, symBinAddr: 0x100003B20, symSize: 0x20 }
  - { offsetInCU: 0xEDB5, offset: 0xEDB5, size: 0x8, addend: 0x0, symName: __ZNKSt3__114default_deleteINS_5tupleIJNS_10unique_ptrINS_15__thread_structENS0_IS3_EEEEPFvvEEEEEclB7v160006EPS8_, symObjAddr: 0x1570, symBinAddr: 0x100003B40, symSize: 0x40 }
  - { offsetInCU: 0xEDE9, offset: 0xEDE9, size: 0x8, addend: 0x0, symName: __ZNSt3__122__compressed_pair_elemINS_14default_deleteINS_5tupleIJNS_10unique_ptrINS_15__thread_structENS1_IS4_EEEEPFvvEEEEEELi1ELb1EE5__getB7v160006Ev, symObjAddr: 0x15B0, symBinAddr: 0x100003B80, symSize: 0x10 }
  - { offsetInCU: 0xEE0F, offset: 0xEE0F, size: 0x8, addend: 0x0, symName: __ZNSt3__15tupleIJNS_10unique_ptrINS_15__thread_structENS_14default_deleteIS2_EEEEPFvvEEED1Ev, symObjAddr: 0x15C0, symBinAddr: 0x100003B90, symSize: 0x20 }
  - { offsetInCU: 0xEE3C, offset: 0xEE3C, size: 0x8, addend: 0x0, symName: __ZNSt3__15tupleIJNS_10unique_ptrINS_15__thread_structENS_14default_deleteIS2_EEEEPFvvEEED2Ev, symObjAddr: 0x15E0, symBinAddr: 0x100003BB0, symSize: 0x20 }
  - { offsetInCU: 0xEE69, offset: 0xEE69, size: 0x8, addend: 0x0, symName: __ZNSt3__112__tuple_implINS_15__tuple_indicesIJLm0ELm1EEEEJNS_10unique_ptrINS_15__thread_structENS_14default_deleteIS4_EEEEPFvvEEED1Ev, symObjAddr: 0x1600, symBinAddr: 0x100003BD0, symSize: 0x20 }
  - { offsetInCU: 0xEE96, offset: 0xEE96, size: 0x8, addend: 0x0, symName: __ZNSt3__112__tuple_implINS_15__tuple_indicesIJLm0ELm1EEEEJNS_10unique_ptrINS_15__thread_structENS_14default_deleteIS4_EEEEPFvvEEED2Ev, symObjAddr: 0x1620, symBinAddr: 0x100003BF0, symSize: 0x20 }
  - { offsetInCU: 0xEEC3, offset: 0xEEC3, size: 0x8, addend: 0x0, symName: __ZNSt3__112__tuple_leafILm0ENS_10unique_ptrINS_15__thread_structENS_14default_deleteIS2_EEEELb0EED2Ev, symObjAddr: 0x1640, symBinAddr: 0x100003C10, symSize: 0x20 }
  - { offsetInCU: 0xEEF0, offset: 0xEEF0, size: 0x8, addend: 0x0, symName: __ZNSt3__110unique_ptrINS_15__thread_structENS_14default_deleteIS1_EEED2B7v160006Ev, symObjAddr: 0x1660, symBinAddr: 0x100003C30, symSize: 0x20 }
  - { offsetInCU: 0xEF1A, offset: 0xEF1A, size: 0x8, addend: 0x0, symName: __ZNSt3__110unique_ptrINS_15__thread_structENS_14default_deleteIS1_EEE5resetB7v160006EPS1_, symObjAddr: 0x1680, symBinAddr: 0x100003C50, symSize: 0x70 }
  - { offsetInCU: 0xEF5E, offset: 0xEF5E, size: 0x8, addend: 0x0, symName: __ZNKSt3__114default_deleteINS_15__thread_structEEclB7v160006EPS1_, symObjAddr: 0x16F0, symBinAddr: 0x100003CC0, symSize: 0x40 }
  - { offsetInCU: 0xEF92, offset: 0xEF92, size: 0x8, addend: 0x0, symName: __ZNSt3__112__async_funcIPFvvEJEEC1B7v160006EOS2_, symObjAddr: 0x19A0, symBinAddr: 0x100003F70, symSize: 0x30 }
  - { offsetInCU: 0xEFCB, offset: 0xEFCB, size: 0x8, addend: 0x0, symName: __ZNSt3__16futureIvEC1B7v160006Ev, symObjAddr: 0x1A90, symBinAddr: 0x100004060, symSize: 0x20 }
  - { offsetInCU: 0xEFF5, offset: 0xEFF5, size: 0x8, addend: 0x0, symName: __ZNSt3__119__async_assoc_stateIvNS_12__async_funcIPFvvEJEEEEC1EOS4_, symObjAddr: 0x1AB0, symBinAddr: 0x100004080, symSize: 0x30 }
  - { offsetInCU: 0xF0D2, offset: 0xF0D2, size: 0x8, addend: 0x0, symName: __ZNSt3__110unique_ptrINS_19__async_assoc_stateIvNS_12__async_funcIPFvvEJEEEEENS_22__release_shared_countEEC1B7v160006ILb1EvEEPS6_, symObjAddr: 0x1AE0, symBinAddr: 0x1000040B0, symSize: 0x30 }
  - { offsetInCU: 0xF115, offset: 0xF115, size: 0x8, addend: 0x0, symName: __ZNKSt3__110unique_ptrINS_19__async_assoc_stateIvNS_12__async_funcIPFvvEJEEEEENS_22__release_shared_countEE3getB7v160006Ev, symObjAddr: 0x1B10, symBinAddr: 0x1000040E0, symSize: 0x20 }
  - { offsetInCU: 0xF147, offset: 0xF147, size: 0x8, addend: 0x0, symName: __ZNSt3__16threadC1IMNS_19__async_assoc_stateIvNS_12__async_funcIPFvvEJEEEEEFvvEJPS7_EvEEOT_DpOT0_, symObjAddr: 0x1B30, symBinAddr: 0x100004100, symSize: 0x30 }
  - { offsetInCU: 0xF1A4, offset: 0xF1A4, size: 0x8, addend: 0x0, symName: __ZNSt3__110unique_ptrINS_19__async_assoc_stateIvNS_12__async_funcIPFvvEJEEEEENS_22__release_shared_countEED1B7v160006Ev, symObjAddr: 0x1B60, symBinAddr: 0x100004130, symSize: 0x20 }
  - { offsetInCU: 0xF1CE, offset: 0xF1CE, size: 0x8, addend: 0x0, symName: __ZNSt3__119__async_assoc_stateIvNS_12__async_funcIPFvvEJEEEEC2EOS4_, symObjAddr: 0x1B80, symBinAddr: 0x100004150, symSize: 0x70 }
  - { offsetInCU: 0xF209, offset: 0xF209, size: 0x8, addend: 0x0, symName: __ZNSt3__117__assoc_sub_stateC2B7v160006Ev, symObjAddr: 0x1BF0, symBinAddr: 0x1000041C0, symSize: 0x70 }
  - { offsetInCU: 0xF233, offset: 0xF233, size: 0x8, addend: 0x0, symName: __ZNSt3__112__async_funcIPFvvEJEEC1B7v160006EOS3_, symObjAddr: 0x1C60, symBinAddr: 0x100004230, symSize: 0x30 }
  - { offsetInCU: 0xF26C, offset: 0xF26C, size: 0x8, addend: 0x0, symName: __ZNSt3__117__assoc_sub_stateD2Ev, symObjAddr: 0x1C90, symBinAddr: 0x100004260, symSize: 0x60 }
  - { offsetInCU: 0xF299, offset: 0xF299, size: 0x8, addend: 0x0, symName: __ZNSt3__119__async_assoc_stateIvNS_12__async_funcIPFvvEJEEEED1Ev, symObjAddr: 0x1CF0, symBinAddr: 0x1000042C0, symSize: 0x20 }
  - { offsetInCU: 0xF2C6, offset: 0xF2C6, size: 0x8, addend: 0x0, symName: __ZNSt3__119__async_assoc_stateIvNS_12__async_funcIPFvvEJEEEED0Ev, symObjAddr: 0x1D10, symBinAddr: 0x1000042E0, symSize: 0x30 }
  - { offsetInCU: 0xF2F3, offset: 0xF2F3, size: 0x8, addend: 0x0, symName: __ZNSt3__119__async_assoc_stateIvNS_12__async_funcIPFvvEJEEEE16__on_zero_sharedEv, symObjAddr: 0x1D40, symBinAddr: 0x100004310, symSize: 0x40 }
  - { offsetInCU: 0xF31B, offset: 0xF31B, size: 0x8, addend: 0x0, symName: __ZNSt3__119__async_assoc_stateIvNS_12__async_funcIPFvvEJEEEE9__executeEv, symObjAddr: 0x1D80, symBinAddr: 0x100004350, symSize: 0xC0 }
  - { offsetInCU: 0xF343, offset: 0xF343, size: 0x8, addend: 0x0, symName: __ZNSt3__114__shared_countC2B7v160006El, symObjAddr: 0x1E40, symBinAddr: 0x100004410, symSize: 0x30 }
  - { offsetInCU: 0xF37B, offset: 0xF37B, size: 0x8, addend: 0x0, symName: __ZNSt13exception_ptrC1B7v160006Ev, symObjAddr: 0x1E70, symBinAddr: 0x100004440, symSize: 0x20 }
  - { offsetInCU: 0xF3A5, offset: 0xF3A5, size: 0x8, addend: 0x0, symName: __ZNSt3__15mutexC1B7v160006Ev, symObjAddr: 0x1E90, symBinAddr: 0x100004460, symSize: 0x20 }
  - { offsetInCU: 0xF3CF, offset: 0xF3CF, size: 0x8, addend: 0x0, symName: __ZNSt3__118condition_variableC1B7v160006Ev, symObjAddr: 0x1EB0, symBinAddr: 0x100004480, symSize: 0x20 }
  - { offsetInCU: 0xF3F9, offset: 0xF3F9, size: 0x8, addend: 0x0, symName: __ZNSt13exception_ptrC2B7v160006Ev, symObjAddr: 0x1ED0, symBinAddr: 0x1000044A0, symSize: 0x20 }
  - { offsetInCU: 0xF423, offset: 0xF423, size: 0x8, addend: 0x0, symName: __ZNSt3__15mutexC2B7v160006Ev, symObjAddr: 0x1EF0, symBinAddr: 0x1000044C0, symSize: 0x30 }
  - { offsetInCU: 0xF44D, offset: 0xF44D, size: 0x8, addend: 0x0, symName: __ZNSt3__118condition_variableC2B7v160006Ev, symObjAddr: 0x1F20, symBinAddr: 0x1000044F0, symSize: 0x30 }
  - { offsetInCU: 0xF477, offset: 0xF477, size: 0x8, addend: 0x0, symName: __ZNSt3__112__async_funcIPFvvEJEEC2B7v160006EOS3_, symObjAddr: 0x1F50, symBinAddr: 0x100004520, symSize: 0x20 }
  - { offsetInCU: 0xF4B0, offset: 0xF4B0, size: 0x8, addend: 0x0, symName: __ZNSt3__119__async_assoc_stateIvNS_12__async_funcIPFvvEJEEEED2Ev, symObjAddr: 0x1F70, symBinAddr: 0x100004540, symSize: 0x20 }
  - { offsetInCU: 0xF4DD, offset: 0xF4DD, size: 0x8, addend: 0x0, symName: __ZNSt3__112__async_funcIPFvvEJEEclEv, symObjAddr: 0x1F90, symBinAddr: 0x100004560, symSize: 0x20 }
  - { offsetInCU: 0xF503, offset: 0xF503, size: 0x8, addend: 0x0, symName: __ZNSt3__112__async_funcIPFvvEJEE9__executeIJEEEvNS_15__tuple_indicesIJXspT_EEEE, symObjAddr: 0x1FB0, symBinAddr: 0x100004580, symSize: 0x30 }
  - { offsetInCU: 0xF539, offset: 0xF539, size: 0x8, addend: 0x0, symName: __ZNSt3__112__tuple_leafILm0EPFvvELb0EE3getB7v160006Ev, symObjAddr: 0x2000, symBinAddr: 0x1000045D0, symSize: 0x10 }
  - { offsetInCU: 0xF55F, offset: 0xF55F, size: 0x8, addend: 0x0, symName: __ZNSt3__110unique_ptrINS_19__async_assoc_stateIvNS_12__async_funcIPFvvEJEEEEENS_22__release_shared_countEEC2B7v160006ILb1EvEEPS6_, symObjAddr: 0x2010, symBinAddr: 0x1000045E0, symSize: 0x40 }
  - { offsetInCU: 0xF5A2, offset: 0xF5A2, size: 0x8, addend: 0x0, symName: __ZNSt3__117__compressed_pairIPNS_19__async_assoc_stateIvNS_12__async_funcIPFvvEJEEEEENS_22__release_shared_countEEC1B7v160006IRS7_NS_16__value_init_tagEEEOT_OT0_, symObjAddr: 0x2050, symBinAddr: 0x100004620, symSize: 0x30 }
  - { offsetInCU: 0xF5FA, offset: 0xF5FA, size: 0x8, addend: 0x0, symName: __ZNSt3__117__compressed_pairIPNS_19__async_assoc_stateIvNS_12__async_funcIPFvvEJEEEEENS_22__release_shared_countEEC2B7v160006IRS7_NS_16__value_init_tagEEEOT_OT0_, symObjAddr: 0x2080, symBinAddr: 0x100004650, symSize: 0x40 }
  - { offsetInCU: 0xF652, offset: 0xF652, size: 0x8, addend: 0x0, symName: __ZNSt3__122__compressed_pair_elemIPNS_19__async_assoc_stateIvNS_12__async_funcIPFvvEJEEEEELi0ELb0EEC2B7v160006IRS7_vEEOT_, symObjAddr: 0x20C0, symBinAddr: 0x100004690, symSize: 0x20 }
  - { offsetInCU: 0xF694, offset: 0xF694, size: 0x8, addend: 0x0, symName: __ZNSt3__122__compressed_pair_elemINS_22__release_shared_countELi1ELb1EEC2B7v160006ENS_16__value_init_tagE, symObjAddr: 0x20E0, symBinAddr: 0x1000046B0, symSize: 0x10 }
  - { offsetInCU: 0xF6C9, offset: 0xF6C9, size: 0x8, addend: 0x0, symName: __ZNKSt3__117__compressed_pairIPNS_19__async_assoc_stateIvNS_12__async_funcIPFvvEJEEEEENS_22__release_shared_countEE5firstB7v160006Ev, symObjAddr: 0x20F0, symBinAddr: 0x1000046C0, symSize: 0x20 }
  - { offsetInCU: 0xF6EF, offset: 0xF6EF, size: 0x8, addend: 0x0, symName: __ZNKSt3__122__compressed_pair_elemIPNS_19__async_assoc_stateIvNS_12__async_funcIPFvvEJEEEEELi0ELb0EE5__getB7v160006Ev, symObjAddr: 0x2110, symBinAddr: 0x1000046E0, symSize: 0x10 }
  - { offsetInCU: 0xF715, offset: 0xF715, size: 0x8, addend: 0x0, symName: __ZNSt3__16threadC2IMNS_19__async_assoc_stateIvNS_12__async_funcIPFvvEJEEEEEFvvEJPS7_EvEEOT_DpOT0_, symObjAddr: 0x2120, symBinAddr: 0x1000046F0, symSize: 0x150 }
  - { offsetInCU: 0xF7A6, offset: 0xF7A6, size: 0x8, addend: 0x0, symName: __ZNSt3__15tupleIJNS_10unique_ptrINS_15__thread_structENS_14default_deleteIS2_EEEEMNS_19__async_assoc_stateIvNS_12__async_funcIPFvvEJEEEEEFvvEPSB_EEC1B7v160006IJS5_SD_SE_ELi0EEEDpOT_, symObjAddr: 0x2270, symBinAddr: 0x100004840, symSize: 0x40 }
  - { offsetInCU: 0xF8C6, offset: 0xF8C6, size: 0x8, addend: 0x0, symName: __ZNSt3__110unique_ptrINS_5tupleIJNS0_INS_15__thread_structENS_14default_deleteIS2_EEEEMNS_19__async_assoc_stateIvNS_12__async_funcIPFvvEJEEEEEFvvEPSB_EEENS3_ISF_EEEC1B7v160006ILb1EvEEPSF_, symObjAddr: 0x22B0, symBinAddr: 0x100004880, symSize: 0x30 }
  - { offsetInCU: 0xF909, offset: 0xF909, size: 0x8, addend: 0x0, symName: __ZNKSt3__110unique_ptrINS_5tupleIJNS0_INS_15__thread_structENS_14default_deleteIS2_EEEEMNS_19__async_assoc_stateIvNS_12__async_funcIPFvvEJEEEEEFvvEPSB_EEENS3_ISF_EEE3getB7v160006Ev, symObjAddr: 0x2380, symBinAddr: 0x100004950, symSize: 0x20 }
  - { offsetInCU: 0xF92F, offset: 0xF92F, size: 0x8, addend: 0x0, symName: __ZNSt3__110unique_ptrINS_5tupleIJNS0_INS_15__thread_structENS_14default_deleteIS2_EEEEMNS_19__async_assoc_stateIvNS_12__async_funcIPFvvEJEEEEEFvvEPSB_EEENS3_ISF_EEE7releaseB7v160006Ev, symObjAddr: 0x23A0, symBinAddr: 0x100004970, symSize: 0x40 }
  - { offsetInCU: 0xF964, offset: 0xF964, size: 0x8, addend: 0x0, symName: __ZNSt3__110unique_ptrINS_5tupleIJNS0_INS_15__thread_structENS_14default_deleteIS2_EEEEMNS_19__async_assoc_stateIvNS_12__async_funcIPFvvEJEEEEEFvvEPSB_EEENS3_ISF_EEED1B7v160006Ev, symObjAddr: 0x23E0, symBinAddr: 0x1000049B0, symSize: 0x20 }
  - { offsetInCU: 0xF98E, offset: 0xF98E, size: 0x8, addend: 0x0, symName: __ZNSt3__15tupleIJNS_10unique_ptrINS_15__thread_structENS_14default_deleteIS2_EEEEMNS_19__async_assoc_stateIvNS_12__async_funcIPFvvEJEEEEEFvvEPSB_EEC2B7v160006IJS5_SD_SE_ELi0EEEDpOT_, symObjAddr: 0x2400, symBinAddr: 0x1000049D0, symSize: 0x40 }
  - { offsetInCU: 0xFA00, offset: 0xFA00, size: 0x8, addend: 0x0, symName: __ZNSt3__112__tuple_implINS_15__tuple_indicesIJLm0ELm1ELm2EEEEJNS_10unique_ptrINS_15__thread_structENS_14default_deleteIS4_EEEEMNS_19__async_assoc_stateIvNS_12__async_funcIPFvvEJEEEEEFvvEPSD_EEC1B7v160006IJLm0ELm1ELm2EEJS7_SF_SG_EJEJEJS7_SF_SG_EEENS1_IJXspT_EEEENS_13__tuple_typesIJDpT0_EEENS1_IJXspT1_EEEENSK_IJDpT2_EEEDpOT3_, symObjAddr: 0x2440, symBinAddr: 0x100004A10, symSize: 0x40 }
  - { offsetInCU: 0xFACF, offset: 0xFACF, size: 0x8, addend: 0x0, symName: __ZNSt3__112__tuple_implINS_15__tuple_indicesIJLm0ELm1ELm2EEEEJNS_10unique_ptrINS_15__thread_structENS_14default_deleteIS4_EEEEMNS_19__async_assoc_stateIvNS_12__async_funcIPFvvEJEEEEEFvvEPSD_EEC2B7v160006IJLm0ELm1ELm2EEJS7_SF_SG_EJEJEJS7_SF_SG_EEENS1_IJXspT_EEEENS_13__tuple_typesIJDpT0_EEENS1_IJXspT1_EEEENSK_IJDpT2_EEEDpOT3_, symObjAddr: 0x2480, symBinAddr: 0x100004A50, symSize: 0x60 }
  - { offsetInCU: 0xFB9E, offset: 0xFB9E, size: 0x8, addend: 0x0, symName: __ZNSt3__112__tuple_leafILm1EMNS_19__async_assoc_stateIvNS_12__async_funcIPFvvEJEEEEEFvvELb0EEC2B7v160006IS8_vEEOT_, symObjAddr: 0x24E0, symBinAddr: 0x100004AB0, symSize: 0x30 }
  - { offsetInCU: 0xFBE1, offset: 0xFBE1, size: 0x8, addend: 0x0, symName: __ZNSt3__112__tuple_leafILm2EPNS_19__async_assoc_stateIvNS_12__async_funcIPFvvEJEEEEELb0EEC2B7v160006IS7_vEEOT_, symObjAddr: 0x2510, symBinAddr: 0x100004AE0, symSize: 0x20 }
  - { offsetInCU: 0xFC24, offset: 0xFC24, size: 0x8, addend: 0x0, symName: __ZNSt3__110unique_ptrINS_5tupleIJNS0_INS_15__thread_structENS_14default_deleteIS2_EEEEMNS_19__async_assoc_stateIvNS_12__async_funcIPFvvEJEEEEEFvvEPSB_EEENS3_ISF_EEEC2B7v160006ILb1EvEEPSF_, symObjAddr: 0x2530, symBinAddr: 0x100004B00, symSize: 0x40 }
  - { offsetInCU: 0xFC67, offset: 0xFC67, size: 0x8, addend: 0x0, symName: __ZNSt3__117__compressed_pairIPNS_5tupleIJNS_10unique_ptrINS_15__thread_structENS_14default_deleteIS3_EEEEMNS_19__async_assoc_stateIvNS_12__async_funcIPFvvEJEEEEEFvvEPSC_EEENS4_ISG_EEEC1B7v160006IRSH_NS_16__value_init_tagEEEOT_OT0_, symObjAddr: 0x2570, symBinAddr: 0x100004B40, symSize: 0x30 }
  - { offsetInCU: 0xFCBF, offset: 0xFCBF, size: 0x8, addend: 0x0, symName: __ZNSt3__117__compressed_pairIPNS_5tupleIJNS_10unique_ptrINS_15__thread_structENS_14default_deleteIS3_EEEEMNS_19__async_assoc_stateIvNS_12__async_funcIPFvvEJEEEEEFvvEPSC_EEENS4_ISG_EEEC2B7v160006IRSH_NS_16__value_init_tagEEEOT_OT0_, symObjAddr: 0x25A0, symBinAddr: 0x100004B70, symSize: 0x40 }
  - { offsetInCU: 0xFD17, offset: 0xFD17, size: 0x8, addend: 0x0, symName: __ZNSt3__122__compressed_pair_elemIPNS_5tupleIJNS_10unique_ptrINS_15__thread_structENS_14default_deleteIS3_EEEEMNS_19__async_assoc_stateIvNS_12__async_funcIPFvvEJEEEEEFvvEPSC_EEELi0ELb0EEC2B7v160006IRSH_vEEOT_, symObjAddr: 0x25E0, symBinAddr: 0x100004BB0, symSize: 0x20 }
  - { offsetInCU: 0xFD59, offset: 0xFD59, size: 0x8, addend: 0x0, symName: __ZNSt3__122__compressed_pair_elemINS_14default_deleteINS_5tupleIJNS_10unique_ptrINS_15__thread_structENS1_IS4_EEEEMNS_19__async_assoc_stateIvNS_12__async_funcIPFvvEJEEEEEFvvEPSC_EEEEELi1ELb1EEC2B7v160006ENS_16__value_init_tagE, symObjAddr: 0x2600, symBinAddr: 0x100004BD0, symSize: 0x10 }
  - { offsetInCU: 0xFD8E, offset: 0xFD8E, size: 0x8, addend: 0x0, symName: __ZNSt3__112__tuple_leafILm1EMNS_19__async_assoc_stateIvNS_12__async_funcIPFvvEJEEEEEFvvELb0EE3getB7v160006Ev, symObjAddr: 0x2720, symBinAddr: 0x100004CF0, symSize: 0x10 }
  - { offsetInCU: 0xFDB4, offset: 0xFDB4, size: 0x8, addend: 0x0, symName: __ZNSt3__112__tuple_leafILm2EPNS_19__async_assoc_stateIvNS_12__async_funcIPFvvEJEEEEELb0EE3getB7v160006Ev, symObjAddr: 0x2730, symBinAddr: 0x100004D00, symSize: 0x10 }
  - { offsetInCU: 0xFDDA, offset: 0xFDDA, size: 0x8, addend: 0x0, symName: __ZNKSt3__117__compressed_pairIPNS_5tupleIJNS_10unique_ptrINS_15__thread_structENS_14default_deleteIS3_EEEEMNS_19__async_assoc_stateIvNS_12__async_funcIPFvvEJEEEEEFvvEPSC_EEENS4_ISG_EEE5firstB7v160006Ev, symObjAddr: 0x2740, symBinAddr: 0x100004D10, symSize: 0x20 }
  - { offsetInCU: 0xFE00, offset: 0xFE00, size: 0x8, addend: 0x0, symName: __ZNKSt3__122__compressed_pair_elemIPNS_5tupleIJNS_10unique_ptrINS_15__thread_structENS_14default_deleteIS3_EEEEMNS_19__async_assoc_stateIvNS_12__async_funcIPFvvEJEEEEEFvvEPSC_EEELi0ELb0EE5__getB7v160006Ev, symObjAddr: 0x2760, symBinAddr: 0x100004D30, symSize: 0x10 }
  - { offsetInCU: 0xFE26, offset: 0xFE26, size: 0x8, addend: 0x0, symName: __ZNSt3__117__compressed_pairIPNS_5tupleIJNS_10unique_ptrINS_15__thread_structENS_14default_deleteIS3_EEEEMNS_19__async_assoc_stateIvNS_12__async_funcIPFvvEJEEEEEFvvEPSC_EEENS4_ISG_EEE5firstB7v160006Ev, symObjAddr: 0x2770, symBinAddr: 0x100004D40, symSize: 0x20 }
  - { offsetInCU: 0xFE4C, offset: 0xFE4C, size: 0x8, addend: 0x0, symName: __ZNSt3__122__compressed_pair_elemIPNS_5tupleIJNS_10unique_ptrINS_15__thread_structENS_14default_deleteIS3_EEEEMNS_19__async_assoc_stateIvNS_12__async_funcIPFvvEJEEEEEFvvEPSC_EEELi0ELb0EE5__getB7v160006Ev, symObjAddr: 0x2790, symBinAddr: 0x100004D60, symSize: 0x10 }
  - { offsetInCU: 0xFE72, offset: 0xFE72, size: 0x8, addend: 0x0, symName: __ZNSt3__110unique_ptrINS_5tupleIJNS0_INS_15__thread_structENS_14default_deleteIS2_EEEEMNS_19__async_assoc_stateIvNS_12__async_funcIPFvvEJEEEEEFvvEPSB_EEENS3_ISF_EEED2B7v160006Ev, symObjAddr: 0x27A0, symBinAddr: 0x100004D70, symSize: 0x20 }
  - { offsetInCU: 0xFE9C, offset: 0xFE9C, size: 0x8, addend: 0x0, symName: __ZNSt3__110unique_ptrINS_5tupleIJNS0_INS_15__thread_structENS_14default_deleteIS2_EEEEMNS_19__async_assoc_stateIvNS_12__async_funcIPFvvEJEEEEEFvvEPSB_EEENS3_ISF_EEE5resetB7v160006EPSF_, symObjAddr: 0x27C0, symBinAddr: 0x100004D90, symSize: 0x70 }
  - { offsetInCU: 0xFEE0, offset: 0xFEE0, size: 0x8, addend: 0x0, symName: __ZNSt3__117__compressed_pairIPNS_5tupleIJNS_10unique_ptrINS_15__thread_structENS_14default_deleteIS3_EEEEMNS_19__async_assoc_stateIvNS_12__async_funcIPFvvEJEEEEEFvvEPSC_EEENS4_ISG_EEE6secondB7v160006Ev, symObjAddr: 0x2830, symBinAddr: 0x100004E00, symSize: 0x20 }
  - { offsetInCU: 0xFF06, offset: 0xFF06, size: 0x8, addend: 0x0, symName: __ZNKSt3__114default_deleteINS_5tupleIJNS_10unique_ptrINS_15__thread_structENS0_IS3_EEEEMNS_19__async_assoc_stateIvNS_12__async_funcIPFvvEJEEEEEFvvEPSB_EEEEclB7v160006EPSF_, symObjAddr: 0x2850, symBinAddr: 0x100004E20, symSize: 0x40 }
  - { offsetInCU: 0xFF3A, offset: 0xFF3A, size: 0x8, addend: 0x0, symName: __ZNSt3__122__compressed_pair_elemINS_14default_deleteINS_5tupleIJNS_10unique_ptrINS_15__thread_structENS1_IS4_EEEEMNS_19__async_assoc_stateIvNS_12__async_funcIPFvvEJEEEEEFvvEPSC_EEEEELi1ELb1EE5__getB7v160006Ev, symObjAddr: 0x2890, symBinAddr: 0x100004E60, symSize: 0x10 }
  - { offsetInCU: 0xFF60, offset: 0xFF60, size: 0x8, addend: 0x0, symName: __ZNSt3__15tupleIJNS_10unique_ptrINS_15__thread_structENS_14default_deleteIS2_EEEEMNS_19__async_assoc_stateIvNS_12__async_funcIPFvvEJEEEEEFvvEPSB_EED1Ev, symObjAddr: 0x28A0, symBinAddr: 0x100004E70, symSize: 0x20 }
  - { offsetInCU: 0xFF8D, offset: 0xFF8D, size: 0x8, addend: 0x0, symName: __ZNSt3__15tupleIJNS_10unique_ptrINS_15__thread_structENS_14default_deleteIS2_EEEEMNS_19__async_assoc_stateIvNS_12__async_funcIPFvvEJEEEEEFvvEPSB_EED2Ev, symObjAddr: 0x28C0, symBinAddr: 0x100004E90, symSize: 0x20 }
  - { offsetInCU: 0xFFBA, offset: 0xFFBA, size: 0x8, addend: 0x0, symName: __ZNSt3__112__tuple_implINS_15__tuple_indicesIJLm0ELm1ELm2EEEEJNS_10unique_ptrINS_15__thread_structENS_14default_deleteIS4_EEEEMNS_19__async_assoc_stateIvNS_12__async_funcIPFvvEJEEEEEFvvEPSD_EED1Ev, symObjAddr: 0x28E0, symBinAddr: 0x100004EB0, symSize: 0x20 }
  - { offsetInCU: 0xFFE7, offset: 0xFFE7, size: 0x8, addend: 0x0, symName: __ZNSt3__112__tuple_implINS_15__tuple_indicesIJLm0ELm1ELm2EEEEJNS_10unique_ptrINS_15__thread_structENS_14default_deleteIS4_EEEEMNS_19__async_assoc_stateIvNS_12__async_funcIPFvvEJEEEEEFvvEPSD_EED2Ev, symObjAddr: 0x2900, symBinAddr: 0x100004ED0, symSize: 0x20 }
  - { offsetInCU: 0x10014, offset: 0x10014, size: 0x8, addend: 0x0, symName: __ZNSt3__110unique_ptrINS_19__async_assoc_stateIvNS_12__async_funcIPFvvEJEEEEENS_22__release_shared_countEED2B7v160006Ev, symObjAddr: 0x2920, symBinAddr: 0x100004EF0, symSize: 0x20 }
  - { offsetInCU: 0x1003E, offset: 0x1003E, size: 0x8, addend: 0x0, symName: __ZNSt3__110unique_ptrINS_19__async_assoc_stateIvNS_12__async_funcIPFvvEJEEEEENS_22__release_shared_countEE5resetB7v160006EPS6_, symObjAddr: 0x2940, symBinAddr: 0x100004F10, symSize: 0x80 }
  - { offsetInCU: 0x10082, offset: 0x10082, size: 0x8, addend: 0x0, symName: __ZNSt3__117__compressed_pairIPNS_19__async_assoc_stateIvNS_12__async_funcIPFvvEJEEEEENS_22__release_shared_countEE5firstB7v160006Ev, symObjAddr: 0x29C0, symBinAddr: 0x100004F90, symSize: 0x20 }
  - { offsetInCU: 0x100A8, offset: 0x100A8, size: 0x8, addend: 0x0, symName: __ZNSt3__117__compressed_pairIPNS_19__async_assoc_stateIvNS_12__async_funcIPFvvEJEEEEENS_22__release_shared_countEE6secondB7v160006Ev, symObjAddr: 0x29E0, symBinAddr: 0x100004FB0, symSize: 0x20 }
  - { offsetInCU: 0x100CE, offset: 0x100CE, size: 0x8, addend: 0x0, symName: __ZNSt3__122__release_shared_countclEPNS_14__shared_countE, symObjAddr: 0x2A00, symBinAddr: 0x100004FD0, symSize: 0x20 }
  - { offsetInCU: 0x10103, offset: 0x10103, size: 0x8, addend: 0x0, symName: __ZNSt3__122__compressed_pair_elemIPNS_19__async_assoc_stateIvNS_12__async_funcIPFvvEJEEEEELi0ELb0EE5__getB7v160006Ev, symObjAddr: 0x2A20, symBinAddr: 0x100004FF0, symSize: 0x10 }
  - { offsetInCU: 0x10129, offset: 0x10129, size: 0x8, addend: 0x0, symName: __ZNSt3__122__compressed_pair_elemINS_22__release_shared_countELi1ELb1EE5__getB7v160006Ev, symObjAddr: 0x2A30, symBinAddr: 0x100005000, symSize: 0x10 }
  - { offsetInCU: 0x1014F, offset: 0x1014F, size: 0x8, addend: 0x0, symName: __ZNSt3__114__shared_count16__release_sharedB7v160006Ev, symObjAddr: 0x2A40, symBinAddr: 0x100005010, symSize: 0x50 }
  - { offsetInCU: 0x10175, offset: 0x10175, size: 0x8, addend: 0x0, symName: __ZNSt3__112__async_funcIPFvvEJEEC2B7v160006EOS2_, symObjAddr: 0x2AC0, symBinAddr: 0x100005090, symSize: 0x30 }
  - { offsetInCU: 0x101AE, offset: 0x101AE, size: 0x8, addend: 0x0, symName: __ZNSt3__15tupleIJPFvvEEEC1B7v160006IJS2_ELi0EEEDpOT_, symObjAddr: 0x2AF0, symBinAddr: 0x1000050C0, symSize: 0x30 }
  - { offsetInCU: 0x101F8, offset: 0x101F8, size: 0x8, addend: 0x0, symName: __ZNSt3__15tupleIJPFvvEEEC2B7v160006IJS2_ELi0EEEDpOT_, symObjAddr: 0x2B20, symBinAddr: 0x1000050F0, symSize: 0x30 }
  - { offsetInCU: 0x10242, offset: 0x10242, size: 0x8, addend: 0x0, symName: __ZNSt3__112__tuple_implINS_15__tuple_indicesIJLm0EEEEJPFvvEEEC1B7v160006IJLm0EEJS4_EJEJEJS4_EEENS1_IJXspT_EEEENS_13__tuple_typesIJDpT0_EEENS1_IJXspT1_EEEENS8_IJDpT2_EEEDpOT3_, symObjAddr: 0x2B50, symBinAddr: 0x100005120, symSize: 0x30 }
  - { offsetInCU: 0x102D3, offset: 0x102D3, size: 0x8, addend: 0x0, symName: __ZNSt3__112__tuple_implINS_15__tuple_indicesIJLm0EEEEJPFvvEEEC2B7v160006IJLm0EEJS4_EJEJEJS4_EEENS1_IJXspT_EEEENS_13__tuple_typesIJDpT0_EEENS1_IJXspT1_EEEENS8_IJDpT2_EEEDpOT3_, symObjAddr: 0x2B80, symBinAddr: 0x100005150, symSize: 0x30 }
  - { offsetInCU: 0x10364, offset: 0x10364, size: 0x8, addend: 0x0, symName: __ZNSt3__112__tuple_leafILm0EPFvvELb0EEC2B7v160006IS2_vEEOT_, symObjAddr: 0x2BB0, symBinAddr: 0x100005180, symSize: 0x20 }
  - { offsetInCU: 0x103AD, offset: 0x103AD, size: 0x8, addend: 0x0, symName: __ZNSt3__122__deferred_assoc_stateIvNS_12__async_funcIPFvvEJEEEEC1EOS4_, symObjAddr: 0x2BD0, symBinAddr: 0x1000051A0, symSize: 0x30 }
  - { offsetInCU: 0x1046C, offset: 0x1046C, size: 0x8, addend: 0x0, symName: __ZNSt3__110unique_ptrINS_22__deferred_assoc_stateIvNS_12__async_funcIPFvvEJEEEEENS_22__release_shared_countEEC1B7v160006ILb1EvEEPS6_, symObjAddr: 0x2C00, symBinAddr: 0x1000051D0, symSize: 0x30 }
  - { offsetInCU: 0x104AF, offset: 0x104AF, size: 0x8, addend: 0x0, symName: __ZNKSt3__110unique_ptrINS_22__deferred_assoc_stateIvNS_12__async_funcIPFvvEJEEEEENS_22__release_shared_countEE3getB7v160006Ev, symObjAddr: 0x2C30, symBinAddr: 0x100005200, symSize: 0x20 }
  - { offsetInCU: 0x104D5, offset: 0x104D5, size: 0x8, addend: 0x0, symName: __ZNSt3__110unique_ptrINS_22__deferred_assoc_stateIvNS_12__async_funcIPFvvEJEEEEENS_22__release_shared_countEED1B7v160006Ev, symObjAddr: 0x2C50, symBinAddr: 0x100005220, symSize: 0x20 }
  - { offsetInCU: 0x104FF, offset: 0x104FF, size: 0x8, addend: 0x0, symName: __ZNSt3__122__deferred_assoc_stateIvNS_12__async_funcIPFvvEJEEEEC2EOS4_, symObjAddr: 0x2C70, symBinAddr: 0x100005240, symSize: 0x80 }
  - { offsetInCU: 0x1053A, offset: 0x1053A, size: 0x8, addend: 0x0, symName: __ZNSt3__117__assoc_sub_state14__set_deferredB7v160006Ev, symObjAddr: 0x2CF0, symBinAddr: 0x1000052C0, symSize: 0x20 }
  - { offsetInCU: 0x10560, offset: 0x10560, size: 0x8, addend: 0x0, symName: __ZNSt3__122__deferred_assoc_stateIvNS_12__async_funcIPFvvEJEEEED1Ev, symObjAddr: 0x2D10, symBinAddr: 0x1000052E0, symSize: 0x20 }
  - { offsetInCU: 0x1058D, offset: 0x1058D, size: 0x8, addend: 0x0, symName: __ZNSt3__122__deferred_assoc_stateIvNS_12__async_funcIPFvvEJEEEED0Ev, symObjAddr: 0x2D30, symBinAddr: 0x100005300, symSize: 0x30 }
  - { offsetInCU: 0x105BA, offset: 0x105BA, size: 0x8, addend: 0x0, symName: __ZNSt3__122__deferred_assoc_stateIvNS_12__async_funcIPFvvEJEEEE9__executeEv, symObjAddr: 0x2D60, symBinAddr: 0x100005330, symSize: 0xC0 }
  - { offsetInCU: 0x105E2, offset: 0x105E2, size: 0x8, addend: 0x0, symName: __ZNSt3__122__deferred_assoc_stateIvNS_12__async_funcIPFvvEJEEEED2Ev, symObjAddr: 0x2E20, symBinAddr: 0x1000053F0, symSize: 0x20 }
  - { offsetInCU: 0x1060F, offset: 0x1060F, size: 0x8, addend: 0x0, symName: __ZNSt3__110unique_ptrINS_22__deferred_assoc_stateIvNS_12__async_funcIPFvvEJEEEEENS_22__release_shared_countEEC2B7v160006ILb1EvEEPS6_, symObjAddr: 0x2E40, symBinAddr: 0x100005410, symSize: 0x40 }
  - { offsetInCU: 0x10652, offset: 0x10652, size: 0x8, addend: 0x0, symName: __ZNSt3__117__compressed_pairIPNS_22__deferred_assoc_stateIvNS_12__async_funcIPFvvEJEEEEENS_22__release_shared_countEEC1B7v160006IRS7_NS_16__value_init_tagEEEOT_OT0_, symObjAddr: 0x2E80, symBinAddr: 0x100005450, symSize: 0x30 }
  - { offsetInCU: 0x106AA, offset: 0x106AA, size: 0x8, addend: 0x0, symName: __ZNSt3__117__compressed_pairIPNS_22__deferred_assoc_stateIvNS_12__async_funcIPFvvEJEEEEENS_22__release_shared_countEEC2B7v160006IRS7_NS_16__value_init_tagEEEOT_OT0_, symObjAddr: 0x2EB0, symBinAddr: 0x100005480, symSize: 0x40 }
  - { offsetInCU: 0x10702, offset: 0x10702, size: 0x8, addend: 0x0, symName: __ZNSt3__122__compressed_pair_elemIPNS_22__deferred_assoc_stateIvNS_12__async_funcIPFvvEJEEEEELi0ELb0EEC2B7v160006IRS7_vEEOT_, symObjAddr: 0x2EF0, symBinAddr: 0x1000054C0, symSize: 0x20 }
  - { offsetInCU: 0x10744, offset: 0x10744, size: 0x8, addend: 0x0, symName: __ZNKSt3__117__compressed_pairIPNS_22__deferred_assoc_stateIvNS_12__async_funcIPFvvEJEEEEENS_22__release_shared_countEE5firstB7v160006Ev, symObjAddr: 0x2F10, symBinAddr: 0x1000054E0, symSize: 0x20 }
  - { offsetInCU: 0x1076A, offset: 0x1076A, size: 0x8, addend: 0x0, symName: __ZNKSt3__122__compressed_pair_elemIPNS_22__deferred_assoc_stateIvNS_12__async_funcIPFvvEJEEEEELi0ELb0EE5__getB7v160006Ev, symObjAddr: 0x2F30, symBinAddr: 0x100005500, symSize: 0x10 }
  - { offsetInCU: 0x10790, offset: 0x10790, size: 0x8, addend: 0x0, symName: __ZNSt3__110unique_ptrINS_22__deferred_assoc_stateIvNS_12__async_funcIPFvvEJEEEEENS_22__release_shared_countEED2B7v160006Ev, symObjAddr: 0x2F40, symBinAddr: 0x100005510, symSize: 0x20 }
  - { offsetInCU: 0x107BA, offset: 0x107BA, size: 0x8, addend: 0x0, symName: __ZNSt3__110unique_ptrINS_22__deferred_assoc_stateIvNS_12__async_funcIPFvvEJEEEEENS_22__release_shared_countEE5resetB7v160006EPS6_, symObjAddr: 0x2F60, symBinAddr: 0x100005530, symSize: 0x70 }
  - { offsetInCU: 0x107FE, offset: 0x107FE, size: 0x8, addend: 0x0, symName: __ZNSt3__117__compressed_pairIPNS_22__deferred_assoc_stateIvNS_12__async_funcIPFvvEJEEEEENS_22__release_shared_countEE5firstB7v160006Ev, symObjAddr: 0x2FD0, symBinAddr: 0x1000055A0, symSize: 0x20 }
  - { offsetInCU: 0x10824, offset: 0x10824, size: 0x8, addend: 0x0, symName: __ZNSt3__117__compressed_pairIPNS_22__deferred_assoc_stateIvNS_12__async_funcIPFvvEJEEEEENS_22__release_shared_countEE6secondB7v160006Ev, symObjAddr: 0x2FF0, symBinAddr: 0x1000055C0, symSize: 0x20 }
  - { offsetInCU: 0x1084A, offset: 0x1084A, size: 0x8, addend: 0x0, symName: __ZNSt3__122__compressed_pair_elemIPNS_22__deferred_assoc_stateIvNS_12__async_funcIPFvvEJEEEEELi0ELb0EE5__getB7v160006Ev, symObjAddr: 0x3010, symBinAddr: 0x1000055E0, symSize: 0x10 }
  - { offsetInCU: 0x10870, offset: 0x10870, size: 0x8, addend: 0x0, symName: __ZNSt3__16futureIvEC2B7v160006Ev, symObjAddr: 0x3020, symBinAddr: 0x1000055F0, symSize: 0x20 }
  - { offsetInCU: 0x1089A, offset: 0x1089A, size: 0x8, addend: 0x0, symName: '__ZNSt3__16threadC2IZ6doWorkNS_8functionIFbiEEEiE3$_0JEvEEOT_DpOT0_', symObjAddr: 0x3040, symBinAddr: 0x100005610, symSize: 0x140 }
  - { offsetInCU: 0x10916, offset: 0x10916, size: 0x8, addend: 0x0, symName: '__ZNSt3__15tupleIJNS_10unique_ptrINS_15__thread_structENS_14default_deleteIS2_EEEEZ6doWorkNS_8functionIFbiEEEiE3$_0EEC1B7v160006IJS5_S9_ELi0EEEDpOT_', symObjAddr: 0x3180, symBinAddr: 0x100005750, symSize: 0x30 }
  - { offsetInCU: 0x10A22, offset: 0x10A22, size: 0x8, addend: 0x0, symName: '__ZNSt3__110unique_ptrINS_5tupleIJNS0_INS_15__thread_structENS_14default_deleteIS2_EEEEZ6doWorkNS_8functionIFbiEEEiE3$_0EEENS3_ISA_EEEC1B7v160006ILb1EvEEPSA_', symObjAddr: 0x31B0, symBinAddr: 0x100005780, symSize: 0x30 }
  - { offsetInCU: 0x10A65, offset: 0x10A65, size: 0x8, addend: 0x0, symName: '__ZNKSt3__110unique_ptrINS_5tupleIJNS0_INS_15__thread_structENS_14default_deleteIS2_EEEEZ6doWorkNS_8functionIFbiEEEiE3$_0EEENS3_ISA_EEE3getB7v160006Ev', symObjAddr: 0x3280, symBinAddr: 0x100005850, symSize: 0x20 }
  - { offsetInCU: 0x10A8B, offset: 0x10A8B, size: 0x8, addend: 0x0, symName: '__ZNSt3__110unique_ptrINS_5tupleIJNS0_INS_15__thread_structENS_14default_deleteIS2_EEEEZ6doWorkNS_8functionIFbiEEEiE3$_0EEENS3_ISA_EEE7releaseB7v160006Ev', symObjAddr: 0x32A0, symBinAddr: 0x100005870, symSize: 0x40 }
  - { offsetInCU: 0x10AC0, offset: 0x10AC0, size: 0x8, addend: 0x0, symName: '__ZNSt3__110unique_ptrINS_5tupleIJNS0_INS_15__thread_structENS_14default_deleteIS2_EEEEZ6doWorkNS_8functionIFbiEEEiE3$_0EEENS3_ISA_EEED1B7v160006Ev', symObjAddr: 0x32E0, symBinAddr: 0x1000058B0, symSize: 0x20 }
  - { offsetInCU: 0x10AEA, offset: 0x10AEA, size: 0x8, addend: 0x0, symName: '__ZNSt3__15tupleIJNS_10unique_ptrINS_15__thread_structENS_14default_deleteIS2_EEEEZ6doWorkNS_8functionIFbiEEEiE3$_0EEC2B7v160006IJS5_S9_ELi0EEEDpOT_', symObjAddr: 0x3300, symBinAddr: 0x1000058D0, symSize: 0x30 }
  - { offsetInCU: 0x10B48, offset: 0x10B48, size: 0x8, addend: 0x0, symName: '__ZNSt3__112__tuple_implINS_15__tuple_indicesIJLm0ELm1EEEEJNS_10unique_ptrINS_15__thread_structENS_14default_deleteIS4_EEEEZ6doWorkNS_8functionIFbiEEEiE3$_0EEC1B7v160006IJLm0ELm1EEJS7_SB_EJEJEJS7_SB_EEENS1_IJXspT_EEEENS_13__tuple_typesIJDpT0_EEENS1_IJXspT1_EEEENSF_IJDpT2_EEEDpOT3_', symObjAddr: 0x3330, symBinAddr: 0x100005900, symSize: 0x30 }
  - { offsetInCU: 0x10BF8, offset: 0x10BF8, size: 0x8, addend: 0x0, symName: '__ZNSt3__112__tuple_implINS_15__tuple_indicesIJLm0ELm1EEEEJNS_10unique_ptrINS_15__thread_structENS_14default_deleteIS4_EEEEZ6doWorkNS_8functionIFbiEEEiE3$_0EEC2B7v160006IJLm0ELm1EEJS7_SB_EJEJEJS7_SB_EEENS1_IJXspT_EEEENS_13__tuple_typesIJDpT0_EEENS1_IJXspT1_EEEENSF_IJDpT2_EEEDpOT3_', symObjAddr: 0x3360, symBinAddr: 0x100005930, symSize: 0x40 }
  - { offsetInCU: 0x10CA8, offset: 0x10CA8, size: 0x8, addend: 0x0, symName: '__ZNSt3__112__tuple_leafILm1EZ6doWorkNS_8functionIFbiEEEiE3$_0Lb0EEC2B7v160006IS4_vEEOT_', symObjAddr: 0x33A0, symBinAddr: 0x100005970, symSize: 0x30 }
  - { offsetInCU: 0x10CEB, offset: 0x10CEB, size: 0x8, addend: 0x0, symName: '__ZNSt3__110unique_ptrINS_5tupleIJNS0_INS_15__thread_structENS_14default_deleteIS2_EEEEZ6doWorkNS_8functionIFbiEEEiE3$_0EEENS3_ISA_EEEC2B7v160006ILb1EvEEPSA_', symObjAddr: 0x33D0, symBinAddr: 0x1000059A0, symSize: 0x40 }
  - { offsetInCU: 0x10D2E, offset: 0x10D2E, size: 0x8, addend: 0x0, symName: '__ZNSt3__117__compressed_pairIPNS_5tupleIJNS_10unique_ptrINS_15__thread_structENS_14default_deleteIS3_EEEEZ6doWorkNS_8functionIFbiEEEiE3$_0EEENS4_ISB_EEEC1B7v160006IRSC_NS_16__value_init_tagEEEOT_OT0_', symObjAddr: 0x3410, symBinAddr: 0x1000059E0, symSize: 0x30 }
  - { offsetInCU: 0x10D86, offset: 0x10D86, size: 0x8, addend: 0x0, symName: '__ZNSt3__117__compressed_pairIPNS_5tupleIJNS_10unique_ptrINS_15__thread_structENS_14default_deleteIS3_EEEEZ6doWorkNS_8functionIFbiEEEiE3$_0EEENS4_ISB_EEEC2B7v160006IRSC_NS_16__value_init_tagEEEOT_OT0_', symObjAddr: 0x3440, symBinAddr: 0x100005A10, symSize: 0x40 }
  - { offsetInCU: 0x10DDE, offset: 0x10DDE, size: 0x8, addend: 0x0, symName: '__ZNSt3__122__compressed_pair_elemIPNS_5tupleIJNS_10unique_ptrINS_15__thread_structENS_14default_deleteIS3_EEEEZ6doWorkNS_8functionIFbiEEEiE3$_0EEELi0ELb0EEC2B7v160006IRSC_vEEOT_', symObjAddr: 0x3480, symBinAddr: 0x100005A50, symSize: 0x20 }
  - { offsetInCU: 0x10E20, offset: 0x10E20, size: 0x8, addend: 0x0, symName: '__ZNSt3__122__compressed_pair_elemINS_14default_deleteINS_5tupleIJNS_10unique_ptrINS_15__thread_structENS1_IS4_EEEEZ6doWorkNS_8functionIFbiEEEiE3$_0EEEEELi1ELb1EEC2B7v160006ENS_16__value_init_tagE', symObjAddr: 0x34A0, symBinAddr: 0x100005A70, symSize: 0x10 }
  - { offsetInCU: 0x10E5B, offset: 0x10E5B, size: 0x8, addend: 0x0, symName: '__ZZ6doWorkNSt3__18functionIFbiEEEiENK3$_0clEv', symObjAddr: 0x3540, symBinAddr: 0x100005B10, symSize: 0x80 }
  - { offsetInCU: 0x10EA2, offset: 0x10EA2, size: 0x8, addend: 0x0, symName: __ZNKSt3__18functionIFbiEEclEi, symObjAddr: 0x35C0, symBinAddr: 0x100005B90, symSize: 0x30 }
  - { offsetInCU: 0x10ED9, offset: 0x10ED9, size: 0x8, addend: 0x0, symName: __ZNSt3__16vectorIiNS_9allocatorIiEEE9push_backB7v160006ERKi, symObjAddr: 0x35F0, symBinAddr: 0x100005BC0, symSize: 0x60 }
  - { offsetInCU: 0x10F10, offset: 0x10F10, size: 0x8, addend: 0x0, symName: __ZNKSt3__110__function12__value_funcIFbiEEclB7v160006EOi, symObjAddr: 0x3650, symBinAddr: 0x100005C20, symSize: 0x50 }
  - { offsetInCU: 0x10F4B, offset: 0x10F4B, size: 0x8, addend: 0x0, symName: __ZNSt3__117bad_function_callC1Ev, symObjAddr: 0x36E0, symBinAddr: 0x100005CB0, symSize: 0x20 }
  - { offsetInCU: 0x10F77, offset: 0x10F77, size: 0x8, addend: 0x0, symName: __ZNSt3__117bad_function_callD1Ev, symObjAddr: 0x3700, symBinAddr: 0x100005CD0, symSize: 0x20 }
  - { offsetInCU: 0x10FA1, offset: 0x10FA1, size: 0x8, addend: 0x0, symName: __ZNSt3__117bad_function_callC2Ev, symObjAddr: 0x3720, symBinAddr: 0x100005CF0, symSize: 0x40 }
  - { offsetInCU: 0x10FCD, offset: 0x10FCD, size: 0x8, addend: 0x0, symName: __ZNSt9exceptionC2B7v160006Ev, symObjAddr: 0x3760, symBinAddr: 0x100005D30, symSize: 0x20 }
  - { offsetInCU: 0x10FF7, offset: 0x10FF7, size: 0x8, addend: 0x0, symName: __ZNSt3__117bad_function_callD0Ev, symObjAddr: 0x3780, symBinAddr: 0x100005D50, symSize: 0x30 }
  - { offsetInCU: 0x11021, offset: 0x11021, size: 0x8, addend: 0x0, symName: __ZNSt3__117bad_function_callD2Ev, symObjAddr: 0x37B0, symBinAddr: 0x100005D80, symSize: 0x20 }
  - { offsetInCU: 0x1104B, offset: 0x1104B, size: 0x8, addend: 0x0, symName: __ZNSt3__16vectorIiNS_9allocatorIiEEE9__end_capB7v160006Ev, symObjAddr: 0x37D0, symBinAddr: 0x100005DA0, symSize: 0x20 }
  - { offsetInCU: 0x11077, offset: 0x11077, size: 0x8, addend: 0x0, symName: __ZNSt3__16vectorIiNS_9allocatorIiEEE22__construct_one_at_endB7v160006IJRKiEEEvDpOT_, symObjAddr: 0x37F0, symBinAddr: 0x100005DC0, symSize: 0x90 }
  - { offsetInCU: 0x110C6, offset: 0x110C6, size: 0x8, addend: 0x0, symName: __ZNSt3__16vectorIiNS_9allocatorIiEEE21__push_back_slow_pathIRKiEEvOT_, symObjAddr: 0x3880, symBinAddr: 0x100005E50, symSize: 0xD0 }
  - { offsetInCU: 0x11124, offset: 0x11124, size: 0x8, addend: 0x0, symName: __ZNSt3__117__compressed_pairIPiNS_9allocatorIiEEE5firstB7v160006Ev, symObjAddr: 0x3950, symBinAddr: 0x100005F20, symSize: 0x20 }
  - { offsetInCU: 0x1114A, offset: 0x1114A, size: 0x8, addend: 0x0, symName: __ZNSt3__122__compressed_pair_elemIPiLi0ELb0EE5__getB7v160006Ev, symObjAddr: 0x3970, symBinAddr: 0x100005F40, symSize: 0x10 }
  - { offsetInCU: 0x1118E, offset: 0x1118E, size: 0x8, addend: 0x0, symName: __ZNSt3__16vectorIiNS_9allocatorIiEEE21_ConstructTransactionC1B7v160006ERS3_m, symObjAddr: 0x3980, symBinAddr: 0x100005F50, symSize: 0x30 }
  - { offsetInCU: 0x111D6, offset: 0x111D6, size: 0x8, addend: 0x0, symName: __ZNSt3__116allocator_traitsINS_9allocatorIiEEE9constructB7v160006IiJRKiEvvEEvRS2_PT_DpOT0_, symObjAddr: 0x39B0, symBinAddr: 0x100005F80, symSize: 0x30 }
  - { offsetInCU: 0x1122A, offset: 0x1122A, size: 0x8, addend: 0x0, symName: __ZNSt3__16vectorIiNS_9allocatorIiEEE21_ConstructTransactionD1B7v160006Ev, symObjAddr: 0x39E0, symBinAddr: 0x100005FB0, symSize: 0x20 }
  - { offsetInCU: 0x11254, offset: 0x11254, size: 0x8, addend: 0x0, symName: __ZNSt3__16vectorIiNS_9allocatorIiEEE21_ConstructTransactionC2B7v160006ERS3_m, symObjAddr: 0x3A00, symBinAddr: 0x100005FD0, symSize: 0x40 }
  - { offsetInCU: 0x1129C, offset: 0x1129C, size: 0x8, addend: 0x0, symName: __ZNSt3__16vectorIiNS_9allocatorIiEEE21_ConstructTransactionD2B7v160006Ev, symObjAddr: 0x3A70, symBinAddr: 0x100006040, symSize: 0x20 }
  - { offsetInCU: 0x112C6, offset: 0x112C6, size: 0x8, addend: 0x0, symName: __ZNKSt3__16vectorIiNS_9allocatorIiEEE11__recommendB7v160006Em, symObjAddr: 0x3A90, symBinAddr: 0x100006060, symSize: 0xA0 }
  - { offsetInCU: 0x1131B, offset: 0x1131B, size: 0x8, addend: 0x0, symName: __ZNSt3__114__split_bufferIiRNS_9allocatorIiEEEC1EmmS3_, symObjAddr: 0x3B30, symBinAddr: 0x100006100, symSize: 0x40 }
  - { offsetInCU: 0x11371, offset: 0x11371, size: 0x8, addend: 0x0, symName: __ZNSt3__114__split_bufferIiRNS_9allocatorIiEEED1Ev, symObjAddr: 0x3CA0, symBinAddr: 0x100006270, symSize: 0x20 }
  - { offsetInCU: 0x1139D, offset: 0x1139D, size: 0x8, addend: 0x0, symName: __ZNKSt3__16vectorIiNS_9allocatorIiEEE8max_sizeEv, symObjAddr: 0x3CC0, symBinAddr: 0x100006290, symSize: 0x60 }
  - { offsetInCU: 0x113C5, offset: 0x113C5, size: 0x8, addend: 0x0, symName: __ZNKSt3__16vectorIiNS_9allocatorIiEEE20__throw_length_errorB7v160006Ev, symObjAddr: 0x3D20, symBinAddr: 0x1000062F0, symSize: 0x20 }
  - { offsetInCU: 0x113F7, offset: 0x113F7, size: 0x8, addend: 0x0, symName: __ZNSt3__116allocator_traitsINS_9allocatorIiEEE8max_sizeB7v160006IS2_vvEEmRKS2_, symObjAddr: 0x3DA0, symBinAddr: 0x100006370, symSize: 0x20 }
  - { offsetInCU: 0x11422, offset: 0x11422, size: 0x8, addend: 0x0, symName: __ZNKSt3__16vectorIiNS_9allocatorIiEEE7__allocB7v160006Ev, symObjAddr: 0x3DC0, symBinAddr: 0x100006390, symSize: 0x20 }
  - { offsetInCU: 0x11448, offset: 0x11448, size: 0x8, addend: 0x0, symName: __ZNSt3__114numeric_limitsIlE3maxB7v160006Ev, symObjAddr: 0x3DE0, symBinAddr: 0x1000063B0, symSize: 0x10 }
  - { offsetInCU: 0x11474, offset: 0x11474, size: 0x8, addend: 0x0, symName: __ZNKSt3__16__lessImmEclB7v160006ERKmS3_, symObjAddr: 0x3E40, symBinAddr: 0x100006410, symSize: 0x30 }
  - { offsetInCU: 0x114B6, offset: 0x114B6, size: 0x8, addend: 0x0, symName: __ZNSt3__114numeric_limitsImE3maxB7v160006Ev, symObjAddr: 0x3E70, symBinAddr: 0x100006440, symSize: 0x10 }
  - { offsetInCU: 0x114CA, offset: 0x114CA, size: 0x8, addend: 0x0, symName: __ZNSt3__123__libcpp_numeric_limitsImLb1EE3maxB7v160006Ev, symObjAddr: 0x3E80, symBinAddr: 0x100006450, symSize: 0x10 }
  - { offsetInCU: 0x114DE, offset: 0x114DE, size: 0x8, addend: 0x0, symName: __ZNKSt3__117__compressed_pairIPiNS_9allocatorIiEEE6secondB7v160006Ev, symObjAddr: 0x3E90, symBinAddr: 0x100006460, symSize: 0x20 }
  - { offsetInCU: 0x11504, offset: 0x11504, size: 0x8, addend: 0x0, symName: __ZNKSt3__122__compressed_pair_elemINS_9allocatorIiEELi1ELb1EE5__getB7v160006Ev, symObjAddr: 0x3EB0, symBinAddr: 0x100006480, symSize: 0x10 }
  - { offsetInCU: 0x1152A, offset: 0x1152A, size: 0x8, addend: 0x0, symName: __ZNSt3__123__libcpp_numeric_limitsIlLb1EE3maxB7v160006Ev, symObjAddr: 0x3EC0, symBinAddr: 0x100006490, symSize: 0x10 }
  - { offsetInCU: 0x1153E, offset: 0x1153E, size: 0x8, addend: 0x0, symName: __ZNSt12length_errorC1B7v160006EPKc, symObjAddr: 0x3F40, symBinAddr: 0x100006510, symSize: 0x30 }
  - { offsetInCU: 0x11576, offset: 0x11576, size: 0x8, addend: 0x0, symName: __ZNSt12length_errorC2B7v160006EPKc, symObjAddr: 0x3F70, symBinAddr: 0x100006540, symSize: 0x40 }
  - { offsetInCU: 0x115AE, offset: 0x115AE, size: 0x8, addend: 0x0, symName: __ZNSt3__114__split_bufferIiRNS_9allocatorIiEEEC2EmmS3_, symObjAddr: 0x4000, symBinAddr: 0x1000065D0, symSize: 0xD0 }
  - { offsetInCU: 0x11621, offset: 0x11621, size: 0x8, addend: 0x0, symName: __ZNSt3__117__compressed_pairIPiRNS_9allocatorIiEEEC1B7v160006IDnS4_EEOT_OT0_, symObjAddr: 0x40D0, symBinAddr: 0x1000066A0, symSize: 0x30 }
  - { offsetInCU: 0x11679, offset: 0x11679, size: 0x8, addend: 0x0, symName: __ZNSt3__114__split_bufferIiRNS_9allocatorIiEEE7__allocB7v160006Ev, symObjAddr: 0x4140, symBinAddr: 0x100006710, symSize: 0x20 }
  - { offsetInCU: 0x1169F, offset: 0x1169F, size: 0x8, addend: 0x0, symName: __ZNSt3__114__split_bufferIiRNS_9allocatorIiEEE9__end_capB7v160006Ev, symObjAddr: 0x4160, symBinAddr: 0x100006730, symSize: 0x20 }
  - { offsetInCU: 0x116C5, offset: 0x116C5, size: 0x8, addend: 0x0, symName: __ZNSt3__117__compressed_pairIPiRNS_9allocatorIiEEEC2B7v160006IDnS4_EEOT_OT0_, symObjAddr: 0x4180, symBinAddr: 0x100006750, symSize: 0x40 }
  - { offsetInCU: 0x1171D, offset: 0x1171D, size: 0x8, addend: 0x0, symName: __ZNSt3__122__compressed_pair_elemIRNS_9allocatorIiEELi1ELb0EEC2B7v160006IS3_vEEOT_, symObjAddr: 0x41C0, symBinAddr: 0x100006790, symSize: 0x20 }
  - { offsetInCU: 0x1175F, offset: 0x1175F, size: 0x8, addend: 0x0, symName: __ZNSt3__19allocatorIiE8allocateB7v160006Em, symObjAddr: 0x41E0, symBinAddr: 0x1000067B0, symSize: 0x50 }
  - { offsetInCU: 0x11793, offset: 0x11793, size: 0x8, addend: 0x0, symName: __ZNSt3__117__compressed_pairIPiRNS_9allocatorIiEEE6secondB7v160006Ev, symObjAddr: 0x4320, symBinAddr: 0x1000068F0, symSize: 0x20 }
  - { offsetInCU: 0x117B9, offset: 0x117B9, size: 0x8, addend: 0x0, symName: __ZNSt3__122__compressed_pair_elemIRNS_9allocatorIiEELi1ELb0EE5__getB7v160006Ev, symObjAddr: 0x4340, symBinAddr: 0x100006910, symSize: 0x20 }
  - { offsetInCU: 0x117DF, offset: 0x117DF, size: 0x8, addend: 0x0, symName: __ZNSt3__117__compressed_pairIPiRNS_9allocatorIiEEE5firstB7v160006Ev, symObjAddr: 0x4360, symBinAddr: 0x100006930, symSize: 0x20 }
  - { offsetInCU: 0x11805, offset: 0x11805, size: 0x8, addend: 0x0, symName: __ZNSt3__116reverse_iteratorIPiEC1B7v160006ES1_, symObjAddr: 0x43F0, symBinAddr: 0x1000069C0, symSize: 0x30 }
  - { offsetInCU: 0x1183D, offset: 0x1183D, size: 0x8, addend: 0x0, symName: __ZNKSt3__116reverse_iteratorIPiE4baseB7v160006Ev, symObjAddr: 0x4420, symBinAddr: 0x1000069F0, symSize: 0x20 }
  - { offsetInCU: 0x11863, offset: 0x11863, size: 0x8, addend: 0x0, symName: __ZNKSt3__16vectorIiNS_9allocatorIiEEE14__annotate_newB7v160006Em, symObjAddr: 0x4480, symBinAddr: 0x100006A50, symSize: 0xB0 }
  - { offsetInCU: 0x118C2, offset: 0x118C2, size: 0x8, addend: 0x0, symName: __ZNKSt3__111__move_loopINS_17_ClassicAlgPolicyEEclB7v160006INS_16reverse_iteratorIPiEES6_S6_EENS_4pairIT_T1_EES8_T0_S9_, symObjAddr: 0x4950, symBinAddr: 0x100006F20, symSize: 0xA0 }
  - { offsetInCU: 0x1192D, offset: 0x1192D, size: 0x8, addend: 0x0, symName: __ZNSt3__119__unwrap_range_implINS_16reverse_iteratorIPiEES3_E8__unwrapB7v160006ES3_S3_, symObjAddr: 0x4B30, symBinAddr: 0x100007100, symSize: 0x90 }
  - { offsetInCU: 0x11964, offset: 0x11964, size: 0x8, addend: 0x0, symName: __ZNSt3__14pairINS_16reverse_iteratorIPiEES3_EC1B7v160006IS3_S3_LPv0EEEOT_OT0_, symObjAddr: 0x4BC0, symBinAddr: 0x100007190, symSize: 0x30 }
  - { offsetInCU: 0x119C2, offset: 0x119C2, size: 0x8, addend: 0x0, symName: __ZNSt3__14pairINS_16reverse_iteratorIPiEES3_EC2B7v160006IS3_S3_LPv0EEEOT_OT0_, symObjAddr: 0x4BF0, symBinAddr: 0x1000071C0, symSize: 0x40 }
  - { offsetInCU: 0x11A20, offset: 0x11A20, size: 0x8, addend: 0x0, symName: __ZNSt3__18_IterOpsINS_17_ClassicAlgPolicyEE11__iter_moveB7v160006IRNS_16reverse_iteratorIPiEEEENS_9enable_ifIXsr12is_referenceIDTdeclsr3stdE7declvalIRT_EEEEE5valueEDTclsr3stdE4movedeclsr3stdE7declvalISA_EEEEE4typeEOS9_, symObjAddr: 0x4C70, symBinAddr: 0x100007240, symSize: 0x20 }
  - { offsetInCU: 0x11A4C, offset: 0x11A4C, size: 0x8, addend: 0x0, symName: __ZNKSt3__116reverse_iteratorIPiEdeB7v160006Ev, symObjAddr: 0x4C90, symBinAddr: 0x100007260, symSize: 0x30 }
  - { offsetInCU: 0x11A81, offset: 0x11A81, size: 0x8, addend: 0x0, symName: __ZNSt3__116reverse_iteratorIPiEppB7v160006Ev, symObjAddr: 0x4CC0, symBinAddr: 0x100007290, symSize: 0x20 }
  - { offsetInCU: 0x11AA7, offset: 0x11AA7, size: 0x8, addend: 0x0, symName: __ZNSt3__18_IterOpsINS_17_ClassicAlgPolicyEE25__validate_iter_referenceB7v160006IRNS_16reverse_iteratorIPiEEEEvv, symObjAddr: 0x4CE0, symBinAddr: 0x1000072B0, symSize: 0x10 }
  - { offsetInCU: 0x11AC5, offset: 0x11AC5, size: 0x8, addend: 0x0, symName: __ZNSt3__118__unwrap_iter_implINS_16reverse_iteratorIPiEELb0EE8__unwrapB7v160006ES3_, symObjAddr: 0x4CF0, symBinAddr: 0x1000072C0, symSize: 0x20 }
  - { offsetInCU: 0x11AE8, offset: 0x11AE8, size: 0x8, addend: 0x0, symName: __ZNSt3__119__unwrap_range_implINS_16reverse_iteratorIPiEES3_E8__rewrapB7v160006ES3_S3_, symObjAddr: 0x4D10, symBinAddr: 0x1000072E0, symSize: 0x60 }
  - { offsetInCU: 0x11B19, offset: 0x11B19, size: 0x8, addend: 0x0, symName: __ZNSt3__118__unwrap_iter_implINS_16reverse_iteratorIPiEELb0EE8__rewrapB7v160006ES3_S3_, symObjAddr: 0x4D70, symBinAddr: 0x100007340, symSize: 0x30 }
  - { offsetInCU: 0x11B47, offset: 0x11B47, size: 0x8, addend: 0x0, symName: __ZNSt3__116reverse_iteratorIPiEC2B7v160006ES1_, symObjAddr: 0x4DA0, symBinAddr: 0x100007370, symSize: 0x30 }
  - { offsetInCU: 0x11B7F, offset: 0x11B7F, size: 0x8, addend: 0x0, symName: __ZNSt3__114__split_bufferIiRNS_9allocatorIiEEED2Ev, symObjAddr: 0x4DD0, symBinAddr: 0x1000073A0, symSize: 0x70 }
  - { offsetInCU: 0x11BAB, offset: 0x11BAB, size: 0x8, addend: 0x0, symName: __ZNSt3__114__split_bufferIiRNS_9allocatorIiEEE5clearB7v160006Ev, symObjAddr: 0x4E40, symBinAddr: 0x100007410, symSize: 0x20 }
  - { offsetInCU: 0x11BD1, offset: 0x11BD1, size: 0x8, addend: 0x0, symName: __ZNKSt3__114__split_bufferIiRNS_9allocatorIiEEE8capacityB7v160006Ev, symObjAddr: 0x4E60, symBinAddr: 0x100007430, symSize: 0x30 }
  - { offsetInCU: 0x11BF7, offset: 0x11BF7, size: 0x8, addend: 0x0, symName: __ZNSt3__114__split_bufferIiRNS_9allocatorIiEEE17__destruct_at_endB7v160006EPi, symObjAddr: 0x4E90, symBinAddr: 0x100007460, symSize: 0x30 }
  - { offsetInCU: 0x11C2B, offset: 0x11C2B, size: 0x8, addend: 0x0, symName: __ZNSt3__114__split_bufferIiRNS_9allocatorIiEEE17__destruct_at_endB7v160006EPiNS_17integral_constantIbLb0EEE, symObjAddr: 0x4EC0, symBinAddr: 0x100007490, symSize: 0x80 }
  - { offsetInCU: 0x11C6C, offset: 0x11C6C, size: 0x8, addend: 0x0, symName: __ZNKSt3__114__split_bufferIiRNS_9allocatorIiEEE9__end_capB7v160006Ev, symObjAddr: 0x4F40, symBinAddr: 0x100007510, symSize: 0x20 }
  - { offsetInCU: 0x11C92, offset: 0x11C92, size: 0x8, addend: 0x0, symName: __ZNKSt3__117__compressed_pairIPiRNS_9allocatorIiEEE5firstB7v160006Ev, symObjAddr: 0x4F60, symBinAddr: 0x100007530, symSize: 0x20 }
  - { offsetInCU: 0x11CB8, offset: 0x11CB8, size: 0x8, addend: 0x0, symName: '__ZNSt3__112__tuple_leafILm1EZ6doWorkNS_8functionIFbiEEEiE3$_0Lb0EE3getB7v160006Ev', symObjAddr: 0x4F80, symBinAddr: 0x100007550, symSize: 0x10 }
  - { offsetInCU: 0x11CDE, offset: 0x11CDE, size: 0x8, addend: 0x0, symName: '__ZNKSt3__117__compressed_pairIPNS_5tupleIJNS_10unique_ptrINS_15__thread_structENS_14default_deleteIS3_EEEEZ6doWorkNS_8functionIFbiEEEiE3$_0EEENS4_ISB_EEE5firstB7v160006Ev', symObjAddr: 0x4F90, symBinAddr: 0x100007560, symSize: 0x20 }
  - { offsetInCU: 0x11D04, offset: 0x11D04, size: 0x8, addend: 0x0, symName: '__ZNKSt3__122__compressed_pair_elemIPNS_5tupleIJNS_10unique_ptrINS_15__thread_structENS_14default_deleteIS3_EEEEZ6doWorkNS_8functionIFbiEEEiE3$_0EEELi0ELb0EE5__getB7v160006Ev', symObjAddr: 0x4FB0, symBinAddr: 0x100007580, symSize: 0x10 }
  - { offsetInCU: 0x11D2A, offset: 0x11D2A, size: 0x8, addend: 0x0, symName: '__ZNSt3__117__compressed_pairIPNS_5tupleIJNS_10unique_ptrINS_15__thread_structENS_14default_deleteIS3_EEEEZ6doWorkNS_8functionIFbiEEEiE3$_0EEENS4_ISB_EEE5firstB7v160006Ev', symObjAddr: 0x4FC0, symBinAddr: 0x100007590, symSize: 0x20 }
  - { offsetInCU: 0x11D50, offset: 0x11D50, size: 0x8, addend: 0x0, symName: '__ZNSt3__122__compressed_pair_elemIPNS_5tupleIJNS_10unique_ptrINS_15__thread_structENS_14default_deleteIS3_EEEEZ6doWorkNS_8functionIFbiEEEiE3$_0EEELi0ELb0EE5__getB7v160006Ev', symObjAddr: 0x4FE0, symBinAddr: 0x1000075B0, symSize: 0x10 }
  - { offsetInCU: 0x11D76, offset: 0x11D76, size: 0x8, addend: 0x0, symName: '__ZNSt3__110unique_ptrINS_5tupleIJNS0_INS_15__thread_structENS_14default_deleteIS2_EEEEZ6doWorkNS_8functionIFbiEEEiE3$_0EEENS3_ISA_EEED2B7v160006Ev', symObjAddr: 0x4FF0, symBinAddr: 0x1000075C0, symSize: 0x20 }
  - { offsetInCU: 0x11DA0, offset: 0x11DA0, size: 0x8, addend: 0x0, symName: '__ZNSt3__110unique_ptrINS_5tupleIJNS0_INS_15__thread_structENS_14default_deleteIS2_EEEEZ6doWorkNS_8functionIFbiEEEiE3$_0EEENS3_ISA_EEE5resetB7v160006EPSA_', symObjAddr: 0x5010, symBinAddr: 0x1000075E0, symSize: 0x70 }
  - { offsetInCU: 0x11DE4, offset: 0x11DE4, size: 0x8, addend: 0x0, symName: '__ZNSt3__117__compressed_pairIPNS_5tupleIJNS_10unique_ptrINS_15__thread_structENS_14default_deleteIS3_EEEEZ6doWorkNS_8functionIFbiEEEiE3$_0EEENS4_ISB_EEE6secondB7v160006Ev', symObjAddr: 0x5080, symBinAddr: 0x100007650, symSize: 0x20 }
  - { offsetInCU: 0x11E0A, offset: 0x11E0A, size: 0x8, addend: 0x0, symName: '__ZNKSt3__114default_deleteINS_5tupleIJNS_10unique_ptrINS_15__thread_structENS0_IS3_EEEEZ6doWorkNS_8functionIFbiEEEiE3$_0EEEEclB7v160006EPSA_', symObjAddr: 0x50A0, symBinAddr: 0x100007670, symSize: 0x40 }
  - { offsetInCU: 0x11E3E, offset: 0x11E3E, size: 0x8, addend: 0x0, symName: '__ZNSt3__122__compressed_pair_elemINS_14default_deleteINS_5tupleIJNS_10unique_ptrINS_15__thread_structENS1_IS4_EEEEZ6doWorkNS_8functionIFbiEEEiE3$_0EEEEELi1ELb1EE5__getB7v160006Ev', symObjAddr: 0x50E0, symBinAddr: 0x1000076B0, symSize: 0x10 }
  - { offsetInCU: 0x11E64, offset: 0x11E64, size: 0x8, addend: 0x0, symName: '__ZNSt3__15tupleIJNS_10unique_ptrINS_15__thread_structENS_14default_deleteIS2_EEEEZ6doWorkNS_8functionIFbiEEEiE3$_0EED1Ev', symObjAddr: 0x50F0, symBinAddr: 0x1000076C0, symSize: 0x20 }
  - { offsetInCU: 0x11E91, offset: 0x11E91, size: 0x8, addend: 0x0, symName: '__ZNSt3__15tupleIJNS_10unique_ptrINS_15__thread_structENS_14default_deleteIS2_EEEEZ6doWorkNS_8functionIFbiEEEiE3$_0EED2Ev', symObjAddr: 0x5110, symBinAddr: 0x1000076E0, symSize: 0x20 }
  - { offsetInCU: 0x11EBE, offset: 0x11EBE, size: 0x8, addend: 0x0, symName: '__ZNSt3__112__tuple_implINS_15__tuple_indicesIJLm0ELm1EEEEJNS_10unique_ptrINS_15__thread_structENS_14default_deleteIS4_EEEEZ6doWorkNS_8functionIFbiEEEiE3$_0EED1Ev', symObjAddr: 0x5130, symBinAddr: 0x100007700, symSize: 0x20 }
  - { offsetInCU: 0x11EEB, offset: 0x11EEB, size: 0x8, addend: 0x0, symName: '__ZNSt3__112__tuple_implINS_15__tuple_indicesIJLm0ELm1EEEEJNS_10unique_ptrINS_15__thread_structENS_14default_deleteIS4_EEEEZ6doWorkNS_8functionIFbiEEEiE3$_0EED2Ev', symObjAddr: 0x5150, symBinAddr: 0x100007720, symSize: 0x1B }
...
