---
triple:          'x86_64-apple-darwin'
binary-path:     item33
relocations:
  - { offsetInCU: 0x61, offset: 0x61, size: 0x8, addend: 0x0, symName: __ZNSt3__112placeholdersL2_1E, symObjAddr: 0x1578, symBinAddr: 0x100003F40, symSize: 0x0 }
  - { offsetInCU: 0x3062, offset: 0x3062, size: 0x8, addend: 0x0, symName: __ZNSt3__16chronoplB7v160006INS0_12steady_clockENS0_8durationIxNS_5ratioILl1ELl1000000000EEEEElNS4_ILl3600ELl1EEEEENS0_10time_pointIT_NS_11common_typeIJT0_NS3_IT1_T2_EEEE4typeEEERKNS8_IS9_SB_EERKSE_, symObjAddr: 0x1D0, symBinAddr: 0x100002B20, symSize: 0x50 }
  - { offsetInCU: 0x33D3, offset: 0x33D3, size: 0x8, addend: 0x0, symName: __ZNSt3__16chronoplB7v160006IxNS_5ratioILl1ELl1000000000EEElNS2_ILl3600ELl1EEEEENS_11common_typeIJNS0_8durationIT_T0_EENS6_IT1_T2_EEEE4typeERKS9_RKSC_, symObjAddr: 0x550, symBinAddr: 0x100002EA0, symSize: 0x70 }
  - { offsetInCU: 0x3662, offset: 0x3662, size: 0x8, addend: 0x0, symName: __ZNSt3__16chronogtB7v160006INS0_12steady_clockENS0_8durationIxNS_5ratioILl1ELl1000000000EEEEES6_EEbRKNS0_10time_pointIT_T0_EERKNS7_IS8_T1_EE, symObjAddr: 0x80, symBinAddr: 0x1000029D0, symSize: 0x30 }
  - { offsetInCU: 0x36C3, offset: 0x36C3, size: 0x8, addend: 0x0, symName: __ZNSt3__16chronoltB7v160006INS0_12steady_clockENS0_8durationIxNS_5ratioILl1ELl1000000000EEEEES6_EEbRKNS0_10time_pointIT_T0_EERKNS7_IS8_T1_EE, symObjAddr: 0x2C0, symBinAddr: 0x100002C10, symSize: 0x50 }
  - { offsetInCU: 0x3718, offset: 0x3718, size: 0x8, addend: 0x0, symName: __ZNSt3__16chronoltB7v160006IxNS_5ratioILl1ELl1000000000EEExS3_EEbRKNS0_8durationIT_T0_EERKNS4_IT1_T2_EE, symObjAddr: 0x310, symBinAddr: 0x100002C60, symSize: 0x30 }
  - { offsetInCU: 0x37B6, offset: 0x37B6, size: 0x8, addend: 0x0, symName: __ZNSt3__16chrono13duration_castB7v160006INS0_8durationIxNS_5ratioILl1ELl1000000000EEEEElNS3_ILl3600ELl1EEEEENS_9enable_ifIXsr13__is_durationIT_EE5valueES8_E4typeERKNS2_IT0_T1_EE, symObjAddr: 0x6A0, symBinAddr: 0x100002FF0, symSize: 0x30 }
  - { offsetInCU: 0x3CB4, offset: 0x3CB4, size: 0x8, addend: 0x0, symName: __ZNSt3__124__put_character_sequenceB7v160006IcNS_11char_traitsIcEEEERNS_13basic_ostreamIT_T0_EES7_PKS4_m, symObjAddr: 0x9F0, symBinAddr: 0x100003340, symSize: 0x1F0 }
  - { offsetInCU: 0x5627, offset: 0x5627, size: 0x8, addend: 0x0, symName: __ZNSt3__1lsB7v160006INS_11char_traitsIcEEEERNS_13basic_ostreamIcT_EES6_PKc, symObjAddr: 0xB0, symBinAddr: 0x100002A00, symSize: 0x40 }
  - { offsetInCU: 0x566D, offset: 0x566D, size: 0x8, addend: 0x0, symName: __ZNSt3__14bindB7v160006IRFvNS_6chrono10time_pointINS1_12steady_clockENS1_8durationIxNS_5ratioILl1ELl1000000000EEEEEEEiEJS8_RKNS_12placeholders4__phILi1EEEEEENS_6__bindIT_JDpT0_EEEOSH_DpOSI_, symObjAddr: 0x190, symBinAddr: 0x100002AE0, symSize: 0x40 }
  - { offsetInCU: 0x5C4F, offset: 0x5C4F, size: 0x8, addend: 0x0, symName: __ZNSt3__115__apply_functorB7v160006IPFvNS_6chrono10time_pointINS1_12steady_clockENS1_8durationIxNS_5ratioILl1ELl1000000000EEEEEEEiENS_5tupleIJS8_NS_12placeholders4__phILi1EEEEEEJLm0ELm1EENSB_IJOiEEEEENS_13__bind_returnIT_T0_T2_Xsr22__is_valid_bind_returnISJ_SK_SL_EE5valueEE4typeERSJ_RSK_NS_15__tuple_indicesIJXspT1_EEEEOSL_, symObjAddr: 0x780, symBinAddr: 0x1000030D0, symSize: 0x60 }
  - { offsetInCU: 0x5CD3, offset: 0x5CD3, size: 0x8, addend: 0x0, symName: __ZNSt3__18__invokeB7v160006IRPFvNS_6chrono10time_pointINS1_12steady_clockENS1_8durationIxNS_5ratioILl1ELl1000000000EEEEEEEiEJRS8_iEEEDTclclsr3stdE7declvalIT_EEspclsr3stdE7declvalIT0_EEEEOSD_DpOSE_, symObjAddr: 0x810, symBinAddr: 0x100003160, symSize: 0x40 }
  - { offsetInCU: 0x5D34, offset: 0x5D34, size: 0x8, addend: 0x0, symName: __ZNSt3__14__muB7v160006INS_6chrono10time_pointINS1_12steady_clockENS1_8durationIxNS_5ratioILl1ELl1000000000EEEEEEENS_5tupleIJOiEEEEENS_9enable_ifIXaaaantsr18is_bind_expressionIT_EE5valueeqsr14is_placeholderISD_EE5valueLi0Entsr22__is_reference_wrapperISD_EE5valueERSD_E4typeESE_RT0_, symObjAddr: 0x850, symBinAddr: 0x1000031A0, symSize: 0x20 }
  - { offsetInCU: 0x5D7C, offset: 0x5D7C, size: 0x8, addend: 0x0, symName: __ZNSt3__13getB7v160006ILm0EJNS_6chrono10time_pointINS1_12steady_clockENS1_8durationIxNS_5ratioILl1ELl1000000000EEEEEEENS_12placeholders4__phILi1EEEEEERNS_13tuple_elementIXT_ENS_5tupleIJDpT0_EEEE4typeERSG_, symObjAddr: 0x870, symBinAddr: 0x1000031C0, symSize: 0x20 }
  - { offsetInCU: 0x5DC4, offset: 0x5DC4, size: 0x8, addend: 0x0, symName: __ZNSt3__14__muB7v160006INS_12placeholders4__phILi1EEENS_5tupleIJOiEEEEENS_9enable_ifIXltLi0Esr14is_placeholderIT_EE5valueENS_12__mu_return2IXltLi0Esr14is_placeholderIS8_EE5valueES8_T0_E4typeEE4typeERS8_RSA_, symObjAddr: 0x890, symBinAddr: 0x1000031E0, symSize: 0x30 }
  - { offsetInCU: 0x5E1A, offset: 0x5E1A, size: 0x8, addend: 0x0, symName: __ZNSt3__13getB7v160006ILm1EJNS_6chrono10time_pointINS1_12steady_clockENS1_8durationIxNS_5ratioILl1ELl1000000000EEEEEEENS_12placeholders4__phILi1EEEEEERNS_13tuple_elementIXT_ENS_5tupleIJDpT0_EEEE4typeERSG_, symObjAddr: 0x8C0, symBinAddr: 0x100003210, symSize: 0x20 }
  - { offsetInCU: 0x5E62, offset: 0x5E62, size: 0x8, addend: 0x0, symName: __ZNSt3__13getB7v160006ILm0EJOiEEERNS_13tuple_elementIXT_ENS_5tupleIJDpT0_EEEE4typeERS6_, symObjAddr: 0x8F0, symBinAddr: 0x100003240, symSize: 0x20 }
  - { offsetInCU: 0x5EBA, offset: 0x5EBA, size: 0x8, addend: 0x0, symName: __ZNSt3__116__pad_and_outputB7v160006IcNS_11char_traitsIcEEEENS_19ostreambuf_iteratorIT_T0_EES6_PKS4_S8_S8_RNS_8ios_baseES4_, symObjAddr: 0xC30, symBinAddr: 0x100003580, symSize: 0x220 }
  - { offsetInCU: 0x5F8A, offset: 0x5F8A, size: 0x8, addend: 0x0, symName: __ZNSt3__119__debug_db_insert_cB7v160006INS_12basic_stringIcNS_11char_traitsIcEENS_9allocatorIcEEEEEEvPT_, symObjAddr: 0x10D0, symBinAddr: 0x100003A20, symSize: 0x10 }
  - { offsetInCU: 0x5FBB, offset: 0x5FBB, size: 0x8, addend: 0x0, symName: __ZNSt3__112__to_addressB7v160006IcEEPT_S2_, symObjAddr: 0x1170, symBinAddr: 0x100003AC0, symSize: 0x10 }
  - { offsetInCU: 0x5FF0, offset: 0x5FF0, size: 0x8, addend: 0x0, symName: __ZNSt3__19use_facetB7v160006INS_5ctypeIcEEEERKT_RKNS_6localeE, symObjAddr: 0x1400, symBinAddr: 0x100003D50, symSize: 0x30 }
  - { offsetInCU: 0x64BF, offset: 0x64BF, size: 0x8, addend: 0x0, symName: __ZNSt3__118__constexpr_strlenB7v160006EPKc, symObjAddr: 0x1490, symBinAddr: 0x100003DE0, symSize: 0x1B }
  - { offsetInCU: 0x6919, offset: 0x6919, size: 0x8, addend: 0x0, symName: __ZNKSt3__16chrono15__duration_castINS0_8durationIlNS_5ratioILl3600ELl1EEEEENS2_IxNS3_ILl1ELl1000000000EEEEENS3_ILl3600000000000ELl1EEELb0ELb1EEclB7v160006ERKS5_, symObjAddr: 0x6D0, symBinAddr: 0x100003020, symSize: 0x50 }
  - { offsetInCU: 0x8D08, offset: 0x8D08, size: 0x8, addend: 0x0, symName: __Z8setAlarmNSt3__16chrono10time_pointINS0_12steady_clockENS0_8durationIxNS_5ratioILl1ELl1000000000EEEEEEEi, symObjAddr: 0x0, symBinAddr: 0x100002950, symSize: 0x80 }
  - { offsetInCU: 0x8D3F, offset: 0x8D3F, size: 0x8, addend: 0x0, symName: _main, symObjAddr: 0xF0, symBinAddr: 0x100002A40, symSize: 0xA0 }
  - { offsetInCU: 0x8E47, offset: 0x8E47, size: 0x8, addend: 0x0, symName: __ZNSt3__16__bindIRFvNS_6chrono10time_pointINS1_12steady_clockENS1_8durationIxNS_5ratioILl1ELl1000000000EEEEEEEiEJS8_RKNS_12placeholders4__phILi1EEEEEclB7v160006IJiEEENS_13__bind_returnIPS9_NS_5tupleIJS8_SD_EEENSK_IJDpOT_EEEXsr22__is_valid_bind_returnISJ_SL_SP_EE5valueEE4typeESO_, symObjAddr: 0x220, symBinAddr: 0x100002B70, symSize: 0x50 }
  - { offsetInCU: 0x8E90, offset: 0x8E90, size: 0x8, addend: 0x0, symName: '__ZZ4mainENK3$_0clEi', symObjAddr: 0x270, symBinAddr: 0x100002BC0, symSize: 0x50 }
  - { offsetInCU: 0x8EC6, offset: 0x8EC6, size: 0x8, addend: 0x0, symName: __ZNKSt3__16chrono10time_pointINS0_12steady_clockENS0_8durationIxNS_5ratioILl1ELl1000000000EEEEEE16time_since_epochB7v160006Ev, symObjAddr: 0x340, symBinAddr: 0x100002C90, symSize: 0x20 }
  - { offsetInCU: 0x8EF4, offset: 0x8EF4, size: 0x8, addend: 0x0, symName: __ZNKSt3__16chrono13__duration_ltINS0_8durationIxNS_5ratioILl1ELl1000000000EEEEES5_EclB7v160006ERKS5_S8_, symObjAddr: 0x360, symBinAddr: 0x100002CB0, symSize: 0x50 }
  - { offsetInCU: 0x8F36, offset: 0x8F36, size: 0x8, addend: 0x0, symName: __ZNKSt3__16chrono8durationIxNS_5ratioILl1ELl1000000000EEEE5countB7v160006Ev, symObjAddr: 0x3B0, symBinAddr: 0x100002D00, symSize: 0x20 }
  - { offsetInCU: 0x8F60, offset: 0x8F60, size: 0x8, addend: 0x0, symName: __ZNSt3__16__bindIRFvNS_6chrono10time_pointINS1_12steady_clockENS1_8durationIxNS_5ratioILl1ELl1000000000EEEEEEEiEJS8_RKNS_12placeholders4__phILi1EEEEEC1B7v160006ISA_JS8_SF_EvEEOT_DpOT0_, symObjAddr: 0x3D0, symBinAddr: 0x100002D20, symSize: 0x40 }
  - { offsetInCU: 0x8FD0, offset: 0x8FD0, size: 0x8, addend: 0x0, symName: __ZNSt3__16__bindIRFvNS_6chrono10time_pointINS1_12steady_clockENS1_8durationIxNS_5ratioILl1ELl1000000000EEEEEEEiEJS8_RKNS_12placeholders4__phILi1EEEEEC2B7v160006ISA_JS8_SF_EvEEOT_DpOT0_, symObjAddr: 0x410, symBinAddr: 0x100002D60, symSize: 0x40 }
  - { offsetInCU: 0x9040, offset: 0x9040, size: 0x8, addend: 0x0, symName: __ZNSt3__15tupleIJNS_6chrono10time_pointINS1_12steady_clockENS1_8durationIxNS_5ratioILl1ELl1000000000EEEEEEENS_12placeholders4__phILi1EEEEEC1B7v160006IJS8_RKSB_ELi0EEEDpOT_, symObjAddr: 0x450, symBinAddr: 0x100002DA0, symSize: 0x30 }
  - { offsetInCU: 0x909D, offset: 0x909D, size: 0x8, addend: 0x0, symName: __ZNSt3__15tupleIJNS_6chrono10time_pointINS1_12steady_clockENS1_8durationIxNS_5ratioILl1ELl1000000000EEEEEEENS_12placeholders4__phILi1EEEEEC2B7v160006IJS8_RKSB_ELi0EEEDpOT_, symObjAddr: 0x480, symBinAddr: 0x100002DD0, symSize: 0x30 }
  - { offsetInCU: 0x90FA, offset: 0x90FA, size: 0x8, addend: 0x0, symName: __ZNSt3__112__tuple_implINS_15__tuple_indicesIJLm0ELm1EEEEJNS_6chrono10time_pointINS3_12steady_clockENS3_8durationIxNS_5ratioILl1ELl1000000000EEEEEEENS_12placeholders4__phILi1EEEEEC1B7v160006IJLm0ELm1EEJSA_SD_EJEJEJSA_RKSD_EEENS1_IJXspT_EEEENS_13__tuple_typesIJDpT0_EEENS1_IJXspT1_EEEENSJ_IJDpT2_EEEDpOT3_, symObjAddr: 0x4B0, symBinAddr: 0x100002E00, symSize: 0x30 }
  - { offsetInCU: 0x91A9, offset: 0x91A9, size: 0x8, addend: 0x0, symName: __ZNSt3__112__tuple_implINS_15__tuple_indicesIJLm0ELm1EEEEJNS_6chrono10time_pointINS3_12steady_clockENS3_8durationIxNS_5ratioILl1ELl1000000000EEEEEEENS_12placeholders4__phILi1EEEEEC2B7v160006IJLm0ELm1EEJSA_SD_EJEJEJSA_RKSD_EEENS1_IJXspT_EEEENS_13__tuple_typesIJDpT0_EEENS1_IJXspT1_EEEENSJ_IJDpT2_EEEDpOT3_, symObjAddr: 0x4E0, symBinAddr: 0x100002E30, symSize: 0x40 }
  - { offsetInCU: 0x9258, offset: 0x9258, size: 0x8, addend: 0x0, symName: __ZNSt3__112__tuple_leafILm0ENS_6chrono10time_pointINS1_12steady_clockENS1_8durationIxNS_5ratioILl1ELl1000000000EEEEEEELb0EEC2B7v160006IS8_vEEOT_, symObjAddr: 0x520, symBinAddr: 0x100002E70, symSize: 0x20 }
  - { offsetInCU: 0x929A, offset: 0x929A, size: 0x8, addend: 0x0, symName: __ZNSt3__112__tuple_leafILm1ENS_12placeholders4__phILi1EEELb1EEC2B7v160006IRKS3_vEEOT_, symObjAddr: 0x540, symBinAddr: 0x100002E90, symSize: 0x10 }
  - { offsetInCU: 0x92DC, offset: 0x92DC, size: 0x8, addend: 0x0, symName: __ZNSt3__16chrono10time_pointINS0_12steady_clockENS0_8durationIxNS_5ratioILl1ELl1000000000EEEEEEC1B7v160006ERKS6_, symObjAddr: 0x5C0, symBinAddr: 0x100002F10, symSize: 0x30 }
  - { offsetInCU: 0x9318, offset: 0x9318, size: 0x8, addend: 0x0, symName: __ZNSt3__16chrono8durationIxNS_5ratioILl1ELl1000000000EEEEC1B7v160006IlNS2_ILl3600ELl1EEEEERKNS1_IT_T0_EEPNS_9enable_ifIXaasr13__no_overflowIS8_S3_EE5valueooL_ZNS_17integral_constantIbLb0EE5valueEEaaeqsr13__no_overflowIS8_S3_E4typeE3denLi1Entsr23treat_as_floating_pointIS7_EE5valueEvE4typeE, symObjAddr: 0x5F0, symBinAddr: 0x100002F40, symSize: 0x30 }
  - { offsetInCU: 0x9377, offset: 0x9377, size: 0x8, addend: 0x0, symName: __ZNSt3__16chrono8durationIxNS_5ratioILl1ELl1000000000EEEEC1B7v160006IxEERKT_PNS_9enable_ifIXaasr14is_convertibleIS8_xEE5valueooL_ZNS_17integral_constantIbLb0EE5valueEEntsr23treat_as_floating_pointIS6_EE5valueEvE4typeE, symObjAddr: 0x620, symBinAddr: 0x100002F70, symSize: 0x30 }
  - { offsetInCU: 0x93C2, offset: 0x93C2, size: 0x8, addend: 0x0, symName: __ZNSt3__16chrono8durationIxNS_5ratioILl1ELl1000000000EEEEC2B7v160006IlNS2_ILl3600ELl1EEEEERKNS1_IT_T0_EEPNS_9enable_ifIXaasr13__no_overflowIS8_S3_EE5valueooL_ZNS_17integral_constantIbLb0EE5valueEEaaeqsr13__no_overflowIS8_S3_E4typeE3denLi1Entsr23treat_as_floating_pointIS7_EE5valueEvE4typeE, symObjAddr: 0x650, symBinAddr: 0x100002FA0, symSize: 0x50 }
  - { offsetInCU: 0x9416, offset: 0x9416, size: 0x8, addend: 0x0, symName: __ZNKSt3__16chrono8durationIlNS_5ratioILl3600ELl1EEEE5countB7v160006Ev, symObjAddr: 0x720, symBinAddr: 0x100003070, symSize: 0x20 }
  - { offsetInCU: 0x943B, offset: 0x943B, size: 0x8, addend: 0x0, symName: __ZNSt3__16chrono8durationIxNS_5ratioILl1ELl1000000000EEEEC2B7v160006IxEERKT_PNS_9enable_ifIXaasr14is_convertibleIS8_xEE5valueooL_ZNS_17integral_constantIbLb0EE5valueEEntsr23treat_as_floating_pointIS6_EE5valueEvE4typeE, symObjAddr: 0x740, symBinAddr: 0x100003090, symSize: 0x20 }
  - { offsetInCU: 0x9486, offset: 0x9486, size: 0x8, addend: 0x0, symName: __ZNSt3__16chrono10time_pointINS0_12steady_clockENS0_8durationIxNS_5ratioILl1ELl1000000000EEEEEEC2B7v160006ERKS6_, symObjAddr: 0x760, symBinAddr: 0x1000030B0, symSize: 0x20 }
  - { offsetInCU: 0x94BD, offset: 0x94BD, size: 0x8, addend: 0x0, symName: __ZNSt3__15tupleIJOiEEC1B7v160006IJiELi0EEEDpOT_, symObjAddr: 0x7E0, symBinAddr: 0x100003130, symSize: 0x30 }
  - { offsetInCU: 0x9505, offset: 0x9505, size: 0x8, addend: 0x0, symName: __ZNSt3__112__tuple_leafILm0ENS_6chrono10time_pointINS1_12steady_clockENS1_8durationIxNS_5ratioILl1ELl1000000000EEEEEEELb0EE3getB7v160006Ev, symObjAddr: 0x8E0, symBinAddr: 0x100003230, symSize: 0x10 }
  - { offsetInCU: 0x9529, offset: 0x9529, size: 0x8, addend: 0x0, symName: __ZNSt3__112__tuple_leafILm0EOiLb0EE3getB7v160006Ev, symObjAddr: 0x910, symBinAddr: 0x100003260, symSize: 0x20 }
  - { offsetInCU: 0x954D, offset: 0x954D, size: 0x8, addend: 0x0, symName: __ZNSt3__112__tuple_leafILm1ENS_12placeholders4__phILi1EEELb1EE3getB7v160006Ev, symObjAddr: 0x930, symBinAddr: 0x100003280, symSize: 0x10 }
  - { offsetInCU: 0x9572, offset: 0x9572, size: 0x8, addend: 0x0, symName: __ZNSt3__15tupleIJOiEEC2B7v160006IJiELi0EEEDpOT_, symObjAddr: 0x940, symBinAddr: 0x100003290, symSize: 0x30 }
  - { offsetInCU: 0x95BB, offset: 0x95BB, size: 0x8, addend: 0x0, symName: __ZNSt3__112__tuple_implINS_15__tuple_indicesIJLm0EEEEJOiEEC1B7v160006IJLm0EEJS3_EJEJEJiEEENS1_IJXspT_EEEENS_13__tuple_typesIJDpT0_EEENS1_IJXspT1_EEEENS7_IJDpT2_EEEDpOT3_, symObjAddr: 0x970, symBinAddr: 0x1000032C0, symSize: 0x30 }
  - { offsetInCU: 0x964B, offset: 0x964B, size: 0x8, addend: 0x0, symName: __ZNSt3__112__tuple_implINS_15__tuple_indicesIJLm0EEEEJOiEEC2B7v160006IJLm0EEJS3_EJEJEJiEEENS1_IJXspT_EEEENS_13__tuple_typesIJDpT0_EEENS1_IJXspT1_EEEENS7_IJDpT2_EEEDpOT3_, symObjAddr: 0x9A0, symBinAddr: 0x1000032F0, symSize: 0x30 }
  - { offsetInCU: 0x96DB, offset: 0x96DB, size: 0x8, addend: 0x0, symName: __ZNSt3__112__tuple_leafILm0EOiLb0EEC2B7v160006IivEEOT_, symObjAddr: 0x9D0, symBinAddr: 0x100003320, symSize: 0x20 }
  - { offsetInCU: 0x971D, offset: 0x971D, size: 0x8, addend: 0x0, symName: __ZNSt3__111char_traitsIcE6lengthEPKc, symObjAddr: 0xBE0, symBinAddr: 0x100003530, symSize: 0x30 }
  - { offsetInCU: 0x975D, offset: 0x975D, size: 0x8, addend: 0x0, symName: __ZNKSt3__113basic_ostreamIcNS_11char_traitsIcEEE6sentrycvbB7v160006Ev, symObjAddr: 0xC10, symBinAddr: 0x100003560, symSize: 0x20 }
  - { offsetInCU: 0x9782, offset: 0x9782, size: 0x8, addend: 0x0, symName: __ZNSt3__119ostreambuf_iteratorIcNS_11char_traitsIcEEEC1B7v160006ERNS_13basic_ostreamIcS2_EE, symObjAddr: 0xE50, symBinAddr: 0x1000037A0, symSize: 0x30 }
  - { offsetInCU: 0x97B9, offset: 0x97B9, size: 0x8, addend: 0x0, symName: __ZNKSt3__18ios_base5flagsB7v160006Ev, symObjAddr: 0xE80, symBinAddr: 0x1000037D0, symSize: 0x20 }
  - { offsetInCU: 0x97E0, offset: 0x97E0, size: 0x8, addend: 0x0, symName: __ZNKSt3__19basic_iosIcNS_11char_traitsIcEEE4fillB7v160006Ev, symObjAddr: 0xEA0, symBinAddr: 0x1000037F0, symSize: 0x70 }
  - { offsetInCU: 0x9806, offset: 0x9806, size: 0x8, addend: 0x0, symName: __ZNKSt3__119ostreambuf_iteratorIcNS_11char_traitsIcEEE6failedB7v160006Ev, symObjAddr: 0xF10, symBinAddr: 0x100003860, symSize: 0x20 }
  - { offsetInCU: 0x982A, offset: 0x982A, size: 0x8, addend: 0x0, symName: __ZNSt3__19basic_iosIcNS_11char_traitsIcEEE8setstateB7v160006Ej, symObjAddr: 0xF30, symBinAddr: 0x100003880, symSize: 0x30 }
  - { offsetInCU: 0x985E, offset: 0x985E, size: 0x8, addend: 0x0, symName: __ZNKSt3__18ios_base5widthB7v160006Ev, symObjAddr: 0xF70, symBinAddr: 0x1000038C0, symSize: 0x20 }
  - { offsetInCU: 0x9884, offset: 0x9884, size: 0x8, addend: 0x0, symName: __ZNSt3__115basic_streambufIcNS_11char_traitsIcEEE5sputnB7v160006EPKcl, symObjAddr: 0xF90, symBinAddr: 0x1000038E0, symSize: 0x30 }
  - { offsetInCU: 0x98C5, offset: 0x98C5, size: 0x8, addend: 0x0, symName: __ZNSt3__112basic_stringIcNS_11char_traitsIcEENS_9allocatorIcEEEC1B7v160006Emc, symObjAddr: 0xFC0, symBinAddr: 0x100003910, symSize: 0x30 }
  - { offsetInCU: 0x990B, offset: 0x990B, size: 0x8, addend: 0x0, symName: __ZNSt3__112basic_stringIcNS_11char_traitsIcEENS_9allocatorIcEEE4dataB7v160006Ev, symObjAddr: 0xFF0, symBinAddr: 0x100003940, symSize: 0x30 }
  - { offsetInCU: 0x9930, offset: 0x9930, size: 0x8, addend: 0x0, symName: __ZNSt3__18ios_base5widthB7v160006El, symObjAddr: 0x1020, symBinAddr: 0x100003970, symSize: 0x30 }
  - { offsetInCU: 0x9975, offset: 0x9975, size: 0x8, addend: 0x0, symName: __ZNSt3__112basic_stringIcNS_11char_traitsIcEENS_9allocatorIcEEEC2B7v160006Emc, symObjAddr: 0x1050, symBinAddr: 0x1000039A0, symSize: 0x50 }
  - { offsetInCU: 0x99C1, offset: 0x99C1, size: 0x8, addend: 0x0, symName: __ZNSt3__117__compressed_pairINS_12basic_stringIcNS_11char_traitsIcEENS_9allocatorIcEEE5__repES5_EC1B7v160006INS_18__default_init_tagESA_EEOT_OT0_, symObjAddr: 0x10A0, symBinAddr: 0x1000039F0, symSize: 0x30 }
  - { offsetInCU: 0x9A18, offset: 0x9A18, size: 0x8, addend: 0x0, symName: __ZNSt3__117__compressed_pairINS_12basic_stringIcNS_11char_traitsIcEENS_9allocatorIcEEE5__repES5_EC2B7v160006INS_18__default_init_tagESA_EEOT_OT0_, symObjAddr: 0x10E0, symBinAddr: 0x100003A30, symSize: 0x30 }
  - { offsetInCU: 0x9A6F, offset: 0x9A6F, size: 0x8, addend: 0x0, symName: __ZNSt3__122__compressed_pair_elemINS_12basic_stringIcNS_11char_traitsIcEENS_9allocatorIcEEE5__repELi0ELb0EEC2B7v160006ENS_18__default_init_tagE, symObjAddr: 0x1110, symBinAddr: 0x100003A60, symSize: 0x10 }
  - { offsetInCU: 0x9AA2, offset: 0x9AA2, size: 0x8, addend: 0x0, symName: __ZNSt3__122__compressed_pair_elemINS_9allocatorIcEELi1ELb1EEC2B7v160006ENS_18__default_init_tagE, symObjAddr: 0x1120, symBinAddr: 0x100003A70, symSize: 0x20 }
  - { offsetInCU: 0x9AD5, offset: 0x9AD5, size: 0x8, addend: 0x0, symName: __ZNSt3__19allocatorIcEC2B7v160006Ev, symObjAddr: 0x1140, symBinAddr: 0x100003A90, symSize: 0x20 }
  - { offsetInCU: 0x9AFE, offset: 0x9AFE, size: 0x8, addend: 0x0, symName: __ZNSt3__116__non_trivial_ifILb1ENS_9allocatorIcEEEC2B7v160006Ev, symObjAddr: 0x1160, symBinAddr: 0x100003AB0, symSize: 0x10 }
  - { offsetInCU: 0x9B26, offset: 0x9B26, size: 0x8, addend: 0x0, symName: __ZNSt3__112basic_stringIcNS_11char_traitsIcEENS_9allocatorIcEEE13__get_pointerB7v160006Ev, symObjAddr: 0x1180, symBinAddr: 0x100003AD0, symSize: 0x50 }
  - { offsetInCU: 0x9B4A, offset: 0x9B4A, size: 0x8, addend: 0x0, symName: __ZNKSt3__112basic_stringIcNS_11char_traitsIcEENS_9allocatorIcEEE9__is_longB7v160006Ev, symObjAddr: 0x11D0, symBinAddr: 0x100003B20, symSize: 0x30 }
  - { offsetInCU: 0x9B6E, offset: 0x9B6E, size: 0x8, addend: 0x0, symName: __ZNSt3__112basic_stringIcNS_11char_traitsIcEENS_9allocatorIcEEE18__get_long_pointerB7v160006Ev, symObjAddr: 0x1200, symBinAddr: 0x100003B50, symSize: 0x20 }
  - { offsetInCU: 0x9B92, offset: 0x9B92, size: 0x8, addend: 0x0, symName: __ZNSt3__112basic_stringIcNS_11char_traitsIcEENS_9allocatorIcEEE19__get_short_pointerB7v160006Ev, symObjAddr: 0x1220, symBinAddr: 0x100003B70, symSize: 0x30 }
  - { offsetInCU: 0x9BB6, offset: 0x9BB6, size: 0x8, addend: 0x0, symName: __ZNKSt3__117__compressed_pairINS_12basic_stringIcNS_11char_traitsIcEENS_9allocatorIcEEE5__repES5_E5firstB7v160006Ev, symObjAddr: 0x1250, symBinAddr: 0x100003BA0, symSize: 0x20 }
  - { offsetInCU: 0x9BDA, offset: 0x9BDA, size: 0x8, addend: 0x0, symName: __ZNKSt3__122__compressed_pair_elemINS_12basic_stringIcNS_11char_traitsIcEENS_9allocatorIcEEE5__repELi0ELb0EE5__getB7v160006Ev, symObjAddr: 0x1270, symBinAddr: 0x100003BC0, symSize: 0x10 }
  - { offsetInCU: 0x9BFE, offset: 0x9BFE, size: 0x8, addend: 0x0, symName: __ZNSt3__117__compressed_pairINS_12basic_stringIcNS_11char_traitsIcEENS_9allocatorIcEEE5__repES5_E5firstB7v160006Ev, symObjAddr: 0x1280, symBinAddr: 0x100003BD0, symSize: 0x20 }
  - { offsetInCU: 0x9C22, offset: 0x9C22, size: 0x8, addend: 0x0, symName: __ZNSt3__122__compressed_pair_elemINS_12basic_stringIcNS_11char_traitsIcEENS_9allocatorIcEEE5__repELi0ELb0EE5__getB7v160006Ev, symObjAddr: 0x12A0, symBinAddr: 0x100003BF0, symSize: 0x10 }
  - { offsetInCU: 0x9C47, offset: 0x9C47, size: 0x8, addend: 0x0, symName: __ZNSt3__114pointer_traitsIPcE10pointer_toB7v160006ERc, symObjAddr: 0x12B0, symBinAddr: 0x100003C00, symSize: 0x10 }
  - { offsetInCU: 0x9C6A, offset: 0x9C6A, size: 0x8, addend: 0x0, symName: __ZNSt3__119ostreambuf_iteratorIcNS_11char_traitsIcEEEC2B7v160006ERNS_13basic_ostreamIcS2_EE, symObjAddr: 0x12C0, symBinAddr: 0x100003C10, symSize: 0x50 }
  - { offsetInCU: 0x9CA1, offset: 0x9CA1, size: 0x8, addend: 0x0, symName: __ZNKSt3__19basic_iosIcNS_11char_traitsIcEEE5rdbufB7v160006Ev, symObjAddr: 0x1310, symBinAddr: 0x100003C60, symSize: 0x20 }
  - { offsetInCU: 0x9CC7, offset: 0x9CC7, size: 0x8, addend: 0x0, symName: __ZNKSt3__18ios_base5rdbufB7v160006Ev, symObjAddr: 0x1330, symBinAddr: 0x100003C80, symSize: 0x20 }
  - { offsetInCU: 0x9CEC, offset: 0x9CEC, size: 0x8, addend: 0x0, symName: __ZNSt3__111char_traitsIcE11eq_int_typeEii, symObjAddr: 0x1350, symBinAddr: 0x100003CA0, symSize: 0x20 }
  - { offsetInCU: 0x9D1D, offset: 0x9D1D, size: 0x8, addend: 0x0, symName: __ZNSt3__111char_traitsIcE3eofEv, symObjAddr: 0x1370, symBinAddr: 0x100003CC0, symSize: 0x10 }
  - { offsetInCU: 0x9D31, offset: 0x9D31, size: 0x8, addend: 0x0, symName: __ZNKSt3__19basic_iosIcNS_11char_traitsIcEEE5widenB7v160006Ec, symObjAddr: 0x1380, symBinAddr: 0x100003CD0, symSize: 0x80 }
  - { offsetInCU: 0x9D9D, offset: 0x9D9D, size: 0x8, addend: 0x0, symName: __ZNKSt3__15ctypeIcE5widenB7v160006Ec, symObjAddr: 0x1430, symBinAddr: 0x100003D80, symSize: 0x30 }
  - { offsetInCU: 0x9DD1, offset: 0x9DD1, size: 0x8, addend: 0x0, symName: __ZNSt3__18ios_base8setstateB7v160006Ej, symObjAddr: 0x1460, symBinAddr: 0x100003DB0, symSize: 0x30 }
...
