---
triple:          'x86_64-apple-darwin'
binary-path:     promise
relocations:
  - { offsetInCU: 0x40EC, offset: 0x40EC, size: 0x8, addend: 0x0, symName: __ZNSt3__16chronogtB7v160006IxNS_5ratioILl1ELl1EEExS3_EEbRKNS0_8durationIT_T0_EERKNS4_IT1_T2_EE, symObjAddr: 0xFA0, symBinAddr: 0x100001750, symSize: 0x30 }
  - { offsetInCU: 0x414D, offset: 0x414D, size: 0x8, addend: 0x0, symName: __ZNSt3__16chronoltB7v160006IxNS_5ratioILl1ELl1EEEeS3_EEbRKNS0_8durationIT_T0_EERKNS4_IT1_T2_EE, symObjAddr: 0x1010, symBinAddr: 0x1000017C0, symSize: 0x30 }
  - { offsetInCU: 0x41AE, offset: 0x41AE, size: 0x8, addend: 0x0, symName: __ZNSt3__16chrono13duration_castB7v160006INS0_8durationIxNS_5ratioILl1ELl1000000000EEEEExNS3_ILl1ELl1EEEEENS_9enable_ifIXsr13__is_durationIT_EE5valueES8_E4typeERKNS2_IT0_T1_EE, symObjAddr: 0x1040, symBinAddr: 0x1000017F0, symSize: 0x30 }
  - { offsetInCU: 0x41F5, offset: 0x41F5, size: 0x8, addend: 0x0, symName: __ZNSt3__16chronoltB7v160006IxNS_5ratioILl1ELl1000000000EEExNS2_ILl1ELl1EEEEEbRKNS0_8durationIT_T0_EERKNS5_IT1_T2_EE, symObjAddr: 0x1070, symBinAddr: 0x100001820, symSize: 0x30 }
  - { offsetInCU: 0x4256, offset: 0x4256, size: 0x8, addend: 0x0, symName: __ZNSt3__16chronoltB7v160006IxNS_5ratioILl1ELl1EEExS3_EEbRKNS0_8durationIT_T0_EERKNS4_IT1_T2_EE, symObjAddr: 0x1100, symBinAddr: 0x1000018B0, symSize: 0x30 }
  - { offsetInCU: 0x4334, offset: 0x4334, size: 0x8, addend: 0x0, symName: __ZNSt3__16chrono13duration_castB7v160006INS0_8durationIeNS_5ratioILl1ELl1EEEEExS4_EENS_9enable_ifIXsr13__is_durationIT_EE5valueES7_E4typeERKNS2_IT0_T1_EE, symObjAddr: 0x12E0, symBinAddr: 0x100001A90, symSize: 0x30 }
  - { offsetInCU: 0x459B, offset: 0x459B, size: 0x8, addend: 0x0, symName: __ZNSt3__124__put_character_sequenceB7v160006IcNS_11char_traitsIcEEEERNS_13basic_ostreamIT_T0_EES7_PKS4_m, symObjAddr: 0x4E0, symBinAddr: 0x100000C90, symSize: 0x1F0 }
  - { offsetInCU: 0x7601, offset: 0x7601, size: 0x8, addend: 0x0, symName: __ZNSt3__1lsB7v160006INS_11char_traitsIcEEEERNS_13basic_ostreamIcT_EES6_PKc, symObjAddr: 0x80, symBinAddr: 0x100000830, symSize: 0x40 }
  - { offsetInCU: 0x764C, offset: 0x764C, size: 0x8, addend: 0x0, symName: __ZNSt3__111this_thread9sleep_forB7v160006IxNS_5ratioILl1ELl1EEEEEvRKNS_6chrono8durationIT_T0_EE, symObjAddr: 0xC0, symBinAddr: 0x100000870, symSize: 0xD0 }
  - { offsetInCU: 0x78B5, offset: 0x78B5, size: 0x8, addend: 0x0, symName: __ZNSt3__116__pad_and_outputB7v160006IcNS_11char_traitsIcEEEENS_19ostreambuf_iteratorIT_T0_EES6_PKS4_S8_S8_RNS_8ios_baseES4_, symObjAddr: 0x720, symBinAddr: 0x100000ED0, symSize: 0x220 }
  - { offsetInCU: 0x7985, offset: 0x7985, size: 0x8, addend: 0x0, symName: __ZNSt3__119__debug_db_insert_cB7v160006INS_12basic_stringIcNS_11char_traitsIcEENS_9allocatorIcEEEEEEvPT_, symObjAddr: 0xBC0, symBinAddr: 0x100001370, symSize: 0x10 }
  - { offsetInCU: 0x79B6, offset: 0x79B6, size: 0x8, addend: 0x0, symName: __ZNSt3__112__to_addressB7v160006IcEEPT_S2_, symObjAddr: 0xC60, symBinAddr: 0x100001410, symSize: 0x10 }
  - { offsetInCU: 0x79EB, offset: 0x79EB, size: 0x8, addend: 0x0, symName: __ZNSt3__19use_facetB7v160006INS_5ctypeIcEEEERKT_RKNS_6localeE, symObjAddr: 0xEF0, symBinAddr: 0x1000016A0, symSize: 0x30 }
  - { offsetInCU: 0x7EBA, offset: 0x7EBA, size: 0x8, addend: 0x0, symName: __ZNSt3__118__constexpr_strlenB7v160006EPKc, symObjAddr: 0xF80, symBinAddr: 0x100001730, symSize: 0x20 }
  - { offsetInCU: 0x80D0, offset: 0x80D0, size: 0x8, addend: 0x0, symName: __ZNSt3__120__throw_future_errorB7v160006ENS_11future_errcE, symObjAddr: 0x1560, symBinAddr: 0x100001D10, symSize: 0x80 }
  - { offsetInCU: 0x80FA, offset: 0x80FA, size: 0x8, addend: 0x0, symName: __ZNSt3__115make_error_codeB7v160006ENS_11future_errcE, symObjAddr: 0x16A0, symBinAddr: 0x100001E50, symSize: 0x40 }
  - { offsetInCU: 0x8128, offset: 0x8128, size: 0x8, addend: 0x0, symName: __ZNSt3__121__libcpp_relaxed_loadB7v160006IlEET_PKS1_, symObjAddr: 0x1EA0, symBinAddr: 0x100002650, symSize: 0x20 }
  - { offsetInCU: 0x815D, offset: 0x815D, size: 0x8, addend: 0x0, symName: __ZNSt3__134__libcpp_atomic_refcount_decrementB7v160006IlEET_RS1_, symObjAddr: 0x1F40, symBinAddr: 0x1000026F0, symSize: 0x30 }
  - { offsetInCU: 0x8222, offset: 0x8222, size: 0x8, addend: 0x0, symName: __ZNSt3__134__libcpp_atomic_refcount_incrementB7v160006IlEET_RS1_, symObjAddr: 0x2120, symBinAddr: 0x1000028D0, symSize: 0x30 }
  - { offsetInCU: 0x8654, offset: 0x8654, size: 0x8, addend: 0x0, symName: __ZNSt3__122__libcpp_thread_createB7v160006EPP17_opaque_pthread_tPFPvS3_ES3_, symObjAddr: 0x2390, symBinAddr: 0x100002B40, symSize: 0x30 }
  - { offsetInCU: 0x86A0, offset: 0x86A0, size: 0x8, addend: 0x0, symName: __ZNSt3__114__thread_proxyB7v160006INS_5tupleIJNS_10unique_ptrINS_15__thread_structENS_14default_deleteIS3_EEEEPFvNS_7promiseIiEEES8_EEEEEPvSC_, symObjAddr: 0x23C0, symBinAddr: 0x100002B70, symSize: 0xA0 }
  - { offsetInCU: 0x8806, offset: 0x8806, size: 0x8, addend: 0x0, symName: __ZNSt3__13getB7v160006ILm0EJNS_10unique_ptrINS_15__thread_structENS_14default_deleteIS2_EEEEPFvNS_7promiseIiEEES7_EEERNS_13tuple_elementIXT_ENS_5tupleIJDpT0_EEEE4typeERSE_, symObjAddr: 0x2AA0, symBinAddr: 0x100003250, symSize: 0x20 }
  - { offsetInCU: 0x8853, offset: 0x8853, size: 0x8, addend: 0x0, symName: __ZNSt3__116__thread_executeB7v160006INS_10unique_ptrINS_15__thread_structENS_14default_deleteIS2_EEEEPFvNS_7promiseIiEEEJS7_EJLm2EEEEvRNS_5tupleIJT_T0_DpT1_EEENS_15__tuple_indicesIJXspT2_EEEE, symObjAddr: 0x2AC0, symBinAddr: 0x100003270, symSize: 0x40 }
  - { offsetInCU: 0x88B1, offset: 0x88B1, size: 0x8, addend: 0x0, symName: __ZNSt3__116__libcpp_tls_setB7v160006EmPv, symObjAddr: 0x2B00, symBinAddr: 0x1000032B0, symSize: 0x30 }
  - { offsetInCU: 0x88EE, offset: 0x88EE, size: 0x8, addend: 0x0, symName: __ZNSt3__18__invokeB7v160006IPFvNS_7promiseIiEEEJS2_EEEDTclclsr3stdE7declvalIT_EEspclsr3stdE7declvalIT0_EEEEOS5_DpOS6_, symObjAddr: 0x2B40, symBinAddr: 0x1000032F0, symSize: 0x70 }
  - { offsetInCU: 0x893B, offset: 0x893B, size: 0x8, addend: 0x0, symName: __ZNSt3__13getB7v160006ILm1EJNS_10unique_ptrINS_15__thread_structENS_14default_deleteIS2_EEEEPFvNS_7promiseIiEEES7_EEERNS_13tuple_elementIXT_ENS_5tupleIJDpT0_EEEE4typeERSE_, symObjAddr: 0x2BB0, symBinAddr: 0x100003360, symSize: 0x20 }
  - { offsetInCU: 0x8988, offset: 0x8988, size: 0x8, addend: 0x0, symName: __ZNSt3__13getB7v160006ILm2EJNS_10unique_ptrINS_15__thread_structENS_14default_deleteIS2_EEEEPFvNS_7promiseIiEEES7_EEERNS_13tuple_elementIXT_ENS_5tupleIJDpT0_EEEE4typeERSE_, symObjAddr: 0x2BD0, symBinAddr: 0x100003380, symSize: 0x20 }
  - { offsetInCU: 0x904A, offset: 0x904A, size: 0x8, addend: 0x0, symName: __ZStneB7v160006RKSt13exception_ptrS1_, symObjAddr: 0x1850, symBinAddr: 0x100002000, symSize: 0x30 }
  - { offsetInCU: 0x9084, offset: 0x9084, size: 0x8, addend: 0x0, symName: __ZSteqB7v160006RKSt13exception_ptrS1_, symObjAddr: 0x18B0, symBinAddr: 0x100002060, symSize: 0x30 }
  - { offsetInCU: 0x90BE, offset: 0x90BE, size: 0x8, addend: 0x0, symName: __ZSt18make_exception_ptrB7v160006INSt3__112future_errorEESt13exception_ptrT_, symObjAddr: 0x1DB0, symBinAddr: 0x100002560, symSize: 0xA0 }
  - { offsetInCU: 0x9724, offset: 0x9724, size: 0x8, addend: 0x0, symName: __ZNKSt3__16chrono13__duration_ltINS0_8durationIxNS_5ratioILl1ELl1EEEEENS2_IeS4_EEEclB7v160006ERKS5_RKS6_, symObjAddr: 0x1200, symBinAddr: 0x1000019B0, symSize: 0x60 }
  - { offsetInCU: 0x977E, offset: 0x977E, size: 0x8, addend: 0x0, symName: __ZNKSt3__16chrono15__duration_castINS0_8durationIxNS_5ratioILl1ELl1EEEEENS2_IxNS3_ILl1ELl1000000000EEEEENS3_ILl1000000000ELl1EEELb0ELb1EEclB7v160006ERKS5_, symObjAddr: 0x13A0, symBinAddr: 0x100001B50, symSize: 0x40 }
  - { offsetInCU: 0x97C7, offset: 0x97C7, size: 0x8, addend: 0x0, symName: __ZNKSt3__16chrono13__duration_ltINS0_8durationIxNS_5ratioILl1ELl1000000000EEEEENS2_IxNS3_ILl1ELl1EEEEEEclB7v160006ERKS5_RKS7_, symObjAddr: 0x1430, symBinAddr: 0x100001BE0, symSize: 0x60 }
  - { offsetInCU: 0xBD3B, offset: 0xBD3B, size: 0x8, addend: 0x0, symName: __Z6workerNSt3__17promiseIiEE, symObjAddr: 0x0, symBinAddr: 0x1000007B0, symSize: 0x80 }
  - { offsetInCU: 0xBD79, offset: 0xBD79, size: 0x8, addend: 0x0, symName: __ZNSt3__16chrono8durationIxNS_5ratioILl1ELl1EEEEC1B7v160006IiEERKT_PNS_9enable_ifIXaasr14is_convertibleIS8_xEE5valueooL_ZNS_17integral_constantIbLb0EE5valueEEntsr23treat_as_floating_pointIS6_EE5valueEvE4typeE, symObjAddr: 0x190, symBinAddr: 0x100000940, symSize: 0x30 }
  - { offsetInCU: 0xBDC5, offset: 0xBDC5, size: 0x8, addend: 0x0, symName: __ZNSt3__17promiseIiE9set_valueERKi, symObjAddr: 0x1C0, symBinAddr: 0x100000970, symSize: 0x50 }
  - { offsetInCU: 0xBDFC, offset: 0xBDFC, size: 0x8, addend: 0x0, symName: _main, symObjAddr: 0x210, symBinAddr: 0x1000009C0, symSize: 0x140 }
  - { offsetInCU: 0xBE53, offset: 0xBE53, size: 0x8, addend: 0x0, symName: __ZNSt3__17promiseIiEC1Ev, symObjAddr: 0x350, symBinAddr: 0x100000B00, symSize: 0x20 }
  - { offsetInCU: 0xBE7F, offset: 0xBE7F, size: 0x8, addend: 0x0, symName: __ZNSt3__17promiseIiE10get_futureEv, symObjAddr: 0x370, symBinAddr: 0x100000B20, symSize: 0x60 }
  - { offsetInCU: 0xBF6D, offset: 0xBF6D, size: 0x8, addend: 0x0, symName: __ZNSt3__16threadC1IRFvNS_7promiseIiEEEJS3_EvEEOT_DpOT0_, symObjAddr: 0x3D0, symBinAddr: 0x100000B80, symSize: 0x30 }
  - { offsetInCU: 0xBFCA, offset: 0xBFCA, size: 0x8, addend: 0x0, symName: __ZNSt3__16futureIiE3getEv, symObjAddr: 0x400, symBinAddr: 0x100000BB0, symSize: 0x80 }
  - { offsetInCU: 0xC010, offset: 0xC010, size: 0x8, addend: 0x0, symName: __ZNSt3__16futureIiED1Ev, symObjAddr: 0x480, symBinAddr: 0x100000C30, symSize: 0x20 }
  - { offsetInCU: 0xC03C, offset: 0xC03C, size: 0x8, addend: 0x0, symName: __ZNSt3__17promiseIiED1Ev, symObjAddr: 0x4A0, symBinAddr: 0x100000C50, symSize: 0x20 }
  - { offsetInCU: 0xC068, offset: 0xC068, size: 0x8, addend: 0x0, symName: __ZNSt3__16chrono8durationIxNS_5ratioILl1ELl1EEEEC2B7v160006IiEERKT_PNS_9enable_ifIXaasr14is_convertibleIS8_xEE5valueooL_ZNS_17integral_constantIbLb0EE5valueEEntsr23treat_as_floating_pointIS6_EE5valueEvE4typeE, symObjAddr: 0x4C0, symBinAddr: 0x100000C70, symSize: 0x20 }
  - { offsetInCU: 0xC0B4, offset: 0xC0B4, size: 0x8, addend: 0x0, symName: __ZNSt3__111char_traitsIcE6lengthEPKc, symObjAddr: 0x6D0, symBinAddr: 0x100000E80, symSize: 0x30 }
  - { offsetInCU: 0xC0F8, offset: 0xC0F8, size: 0x8, addend: 0x0, symName: __ZNKSt3__113basic_ostreamIcNS_11char_traitsIcEEE6sentrycvbB7v160006Ev, symObjAddr: 0x700, symBinAddr: 0x100000EB0, symSize: 0x20 }
  - { offsetInCU: 0xC11E, offset: 0xC11E, size: 0x8, addend: 0x0, symName: __ZNSt3__119ostreambuf_iteratorIcNS_11char_traitsIcEEEC1B7v160006ERNS_13basic_ostreamIcS2_EE, symObjAddr: 0x940, symBinAddr: 0x1000010F0, symSize: 0x30 }
  - { offsetInCU: 0xC156, offset: 0xC156, size: 0x8, addend: 0x0, symName: __ZNKSt3__18ios_base5flagsB7v160006Ev, symObjAddr: 0x970, symBinAddr: 0x100001120, symSize: 0x20 }
  - { offsetInCU: 0xC17E, offset: 0xC17E, size: 0x8, addend: 0x0, symName: __ZNKSt3__19basic_iosIcNS_11char_traitsIcEEE4fillB7v160006Ev, symObjAddr: 0x990, symBinAddr: 0x100001140, symSize: 0x70 }
  - { offsetInCU: 0xC1A6, offset: 0xC1A6, size: 0x8, addend: 0x0, symName: __ZNKSt3__119ostreambuf_iteratorIcNS_11char_traitsIcEEE6failedB7v160006Ev, symObjAddr: 0xA00, symBinAddr: 0x1000011B0, symSize: 0x20 }
  - { offsetInCU: 0xC1CC, offset: 0xC1CC, size: 0x8, addend: 0x0, symName: __ZNSt3__19basic_iosIcNS_11char_traitsIcEEE8setstateB7v160006Ej, symObjAddr: 0xA20, symBinAddr: 0x1000011D0, symSize: 0x30 }
  - { offsetInCU: 0xC201, offset: 0xC201, size: 0x8, addend: 0x0, symName: __ZNKSt3__18ios_base5widthB7v160006Ev, symObjAddr: 0xA60, symBinAddr: 0x100001210, symSize: 0x20 }
  - { offsetInCU: 0xC229, offset: 0xC229, size: 0x8, addend: 0x0, symName: __ZNSt3__115basic_streambufIcNS_11char_traitsIcEEE5sputnB7v160006EPKcl, symObjAddr: 0xA80, symBinAddr: 0x100001230, symSize: 0x30 }
  - { offsetInCU: 0xC26B, offset: 0xC26B, size: 0x8, addend: 0x0, symName: __ZNSt3__112basic_stringIcNS_11char_traitsIcEENS_9allocatorIcEEEC1B7v160006Emc, symObjAddr: 0xAB0, symBinAddr: 0x100001260, symSize: 0x30 }
  - { offsetInCU: 0xC2B3, offset: 0xC2B3, size: 0x8, addend: 0x0, symName: __ZNSt3__112basic_stringIcNS_11char_traitsIcEENS_9allocatorIcEEE4dataB7v160006Ev, symObjAddr: 0xAE0, symBinAddr: 0x100001290, symSize: 0x30 }
  - { offsetInCU: 0xC2D9, offset: 0xC2D9, size: 0x8, addend: 0x0, symName: __ZNSt3__18ios_base5widthB7v160006El, symObjAddr: 0xB10, symBinAddr: 0x1000012C0, symSize: 0x30 }
  - { offsetInCU: 0xC31F, offset: 0xC31F, size: 0x8, addend: 0x0, symName: __ZNSt3__112basic_stringIcNS_11char_traitsIcEENS_9allocatorIcEEEC2B7v160006Emc, symObjAddr: 0xB40, symBinAddr: 0x1000012F0, symSize: 0x50 }
  - { offsetInCU: 0xC36D, offset: 0xC36D, size: 0x8, addend: 0x0, symName: __ZNSt3__117__compressed_pairINS_12basic_stringIcNS_11char_traitsIcEENS_9allocatorIcEEE5__repES5_EC1B7v160006INS_18__default_init_tagESA_EEOT_OT0_, symObjAddr: 0xB90, symBinAddr: 0x100001340, symSize: 0x30 }
  - { offsetInCU: 0xC3C5, offset: 0xC3C5, size: 0x8, addend: 0x0, symName: __ZNSt3__117__compressed_pairINS_12basic_stringIcNS_11char_traitsIcEENS_9allocatorIcEEE5__repES5_EC2B7v160006INS_18__default_init_tagESA_EEOT_OT0_, symObjAddr: 0xBD0, symBinAddr: 0x100001380, symSize: 0x30 }
  - { offsetInCU: 0xC41D, offset: 0xC41D, size: 0x8, addend: 0x0, symName: __ZNSt3__122__compressed_pair_elemINS_12basic_stringIcNS_11char_traitsIcEENS_9allocatorIcEEE5__repELi0ELb0EEC2B7v160006ENS_18__default_init_tagE, symObjAddr: 0xC00, symBinAddr: 0x1000013B0, symSize: 0x10 }
  - { offsetInCU: 0xC452, offset: 0xC452, size: 0x8, addend: 0x0, symName: __ZNSt3__122__compressed_pair_elemINS_9allocatorIcEELi1ELb1EEC2B7v160006ENS_18__default_init_tagE, symObjAddr: 0xC10, symBinAddr: 0x1000013C0, symSize: 0x20 }
  - { offsetInCU: 0xC487, offset: 0xC487, size: 0x8, addend: 0x0, symName: __ZNSt3__19allocatorIcEC2B7v160006Ev, symObjAddr: 0xC30, symBinAddr: 0x1000013E0, symSize: 0x20 }
  - { offsetInCU: 0xC4B1, offset: 0xC4B1, size: 0x8, addend: 0x0, symName: __ZNSt3__116__non_trivial_ifILb1ENS_9allocatorIcEEEC2B7v160006Ev, symObjAddr: 0xC50, symBinAddr: 0x100001400, symSize: 0x10 }
  - { offsetInCU: 0xC4DB, offset: 0xC4DB, size: 0x8, addend: 0x0, symName: __ZNSt3__112basic_stringIcNS_11char_traitsIcEENS_9allocatorIcEEE13__get_pointerB7v160006Ev, symObjAddr: 0xC70, symBinAddr: 0x100001420, symSize: 0x50 }
  - { offsetInCU: 0xC501, offset: 0xC501, size: 0x8, addend: 0x0, symName: __ZNKSt3__112basic_stringIcNS_11char_traitsIcEENS_9allocatorIcEEE9__is_longB7v160006Ev, symObjAddr: 0xCC0, symBinAddr: 0x100001470, symSize: 0x30 }
  - { offsetInCU: 0xC527, offset: 0xC527, size: 0x8, addend: 0x0, symName: __ZNSt3__112basic_stringIcNS_11char_traitsIcEENS_9allocatorIcEEE18__get_long_pointerB7v160006Ev, symObjAddr: 0xCF0, symBinAddr: 0x1000014A0, symSize: 0x20 }
  - { offsetInCU: 0xC54D, offset: 0xC54D, size: 0x8, addend: 0x0, symName: __ZNSt3__112basic_stringIcNS_11char_traitsIcEENS_9allocatorIcEEE19__get_short_pointerB7v160006Ev, symObjAddr: 0xD10, symBinAddr: 0x1000014C0, symSize: 0x30 }
  - { offsetInCU: 0xC573, offset: 0xC573, size: 0x8, addend: 0x0, symName: __ZNKSt3__117__compressed_pairINS_12basic_stringIcNS_11char_traitsIcEENS_9allocatorIcEEE5__repES5_E5firstB7v160006Ev, symObjAddr: 0xD40, symBinAddr: 0x1000014F0, symSize: 0x20 }
  - { offsetInCU: 0xC599, offset: 0xC599, size: 0x8, addend: 0x0, symName: __ZNKSt3__122__compressed_pair_elemINS_12basic_stringIcNS_11char_traitsIcEENS_9allocatorIcEEE5__repELi0ELb0EE5__getB7v160006Ev, symObjAddr: 0xD60, symBinAddr: 0x100001510, symSize: 0x10 }
  - { offsetInCU: 0xC5BF, offset: 0xC5BF, size: 0x8, addend: 0x0, symName: __ZNSt3__117__compressed_pairINS_12basic_stringIcNS_11char_traitsIcEENS_9allocatorIcEEE5__repES5_E5firstB7v160006Ev, symObjAddr: 0xD70, symBinAddr: 0x100001520, symSize: 0x20 }
  - { offsetInCU: 0xC5E5, offset: 0xC5E5, size: 0x8, addend: 0x0, symName: __ZNSt3__122__compressed_pair_elemINS_12basic_stringIcNS_11char_traitsIcEENS_9allocatorIcEEE5__repELi0ELb0EE5__getB7v160006Ev, symObjAddr: 0xD90, symBinAddr: 0x100001540, symSize: 0x10 }
  - { offsetInCU: 0xC60B, offset: 0xC60B, size: 0x8, addend: 0x0, symName: __ZNSt3__114pointer_traitsIPcE10pointer_toB7v160006ERc, symObjAddr: 0xDA0, symBinAddr: 0x100001550, symSize: 0x10 }
  - { offsetInCU: 0xC62E, offset: 0xC62E, size: 0x8, addend: 0x0, symName: __ZNSt3__119ostreambuf_iteratorIcNS_11char_traitsIcEEEC2B7v160006ERNS_13basic_ostreamIcS2_EE, symObjAddr: 0xDB0, symBinAddr: 0x100001560, symSize: 0x50 }
  - { offsetInCU: 0xC666, offset: 0xC666, size: 0x8, addend: 0x0, symName: __ZNKSt3__19basic_iosIcNS_11char_traitsIcEEE5rdbufB7v160006Ev, symObjAddr: 0xE00, symBinAddr: 0x1000015B0, symSize: 0x20 }
  - { offsetInCU: 0xC68E, offset: 0xC68E, size: 0x8, addend: 0x0, symName: __ZNKSt3__18ios_base5rdbufB7v160006Ev, symObjAddr: 0xE20, symBinAddr: 0x1000015D0, symSize: 0x20 }
  - { offsetInCU: 0xC6B4, offset: 0xC6B4, size: 0x8, addend: 0x0, symName: __ZNSt3__111char_traitsIcE11eq_int_typeEii, symObjAddr: 0xE40, symBinAddr: 0x1000015F0, symSize: 0x20 }
  - { offsetInCU: 0xC6E5, offset: 0xC6E5, size: 0x8, addend: 0x0, symName: __ZNSt3__111char_traitsIcE3eofEv, symObjAddr: 0xE60, symBinAddr: 0x100001610, symSize: 0x10 }
  - { offsetInCU: 0xC6F9, offset: 0xC6F9, size: 0x8, addend: 0x0, symName: __ZNKSt3__19basic_iosIcNS_11char_traitsIcEEE5widenB7v160006Ec, symObjAddr: 0xE70, symBinAddr: 0x100001620, symSize: 0x80 }
  - { offsetInCU: 0xC767, offset: 0xC767, size: 0x8, addend: 0x0, symName: __ZNKSt3__15ctypeIcE5widenB7v160006Ec, symObjAddr: 0xF20, symBinAddr: 0x1000016D0, symSize: 0x30 }
  - { offsetInCU: 0xC79C, offset: 0xC79C, size: 0x8, addend: 0x0, symName: __ZNSt3__18ios_base8setstateB7v160006Ej, symObjAddr: 0xF50, symBinAddr: 0x100001700, symSize: 0x30 }
  - { offsetInCU: 0xC7D3, offset: 0xC7D3, size: 0x8, addend: 0x0, symName: __ZNSt3__16chrono8durationIxNS_5ratioILl1ELl1EEEE4zeroB7v160006Ev, symObjAddr: 0xFD0, symBinAddr: 0x100001780, symSize: 0x40 }
  - { offsetInCU: 0xC7E7, offset: 0xC7E7, size: 0x8, addend: 0x0, symName: __ZNSt3__16chrono8durationIxNS_5ratioILl1ELl1000000000EEEEppB7v160006Ev, symObjAddr: 0x10A0, symBinAddr: 0x100001850, symSize: 0x20 }
  - { offsetInCU: 0xC80D, offset: 0xC80D, size: 0x8, addend: 0x0, symName: __ZNSt3__16chrono8durationIxNS_5ratioILl1ELl1000000000EEEE3maxB7v160006Ev, symObjAddr: 0x10C0, symBinAddr: 0x100001870, symSize: 0x40 }
  - { offsetInCU: 0xC82B, offset: 0xC82B, size: 0x8, addend: 0x0, symName: __ZNKSt3__16chrono13__duration_ltINS0_8durationIxNS_5ratioILl1ELl1EEEEES5_EclB7v160006ERKS5_S8_, symObjAddr: 0x1130, symBinAddr: 0x1000018E0, symSize: 0x50 }
  - { offsetInCU: 0xC86F, offset: 0xC86F, size: 0x8, addend: 0x0, symName: __ZNKSt3__16chrono8durationIxNS_5ratioILl1ELl1EEEE5countB7v160006Ev, symObjAddr: 0x1180, symBinAddr: 0x100001930, symSize: 0x20 }
  - { offsetInCU: 0xC895, offset: 0xC895, size: 0x8, addend: 0x0, symName: __ZNSt3__16chrono15duration_valuesIxE4zeroB7v160006Ev, symObjAddr: 0x11A0, symBinAddr: 0x100001950, symSize: 0x10 }
  - { offsetInCU: 0xC8B4, offset: 0xC8B4, size: 0x8, addend: 0x0, symName: __ZNSt3__16chrono8durationIxNS_5ratioILl1ELl1EEEEC1B7v160006IxEERKT_PNS_9enable_ifIXaasr14is_convertibleIS8_xEE5valueooL_ZNS_17integral_constantIbLb0EE5valueEEntsr23treat_as_floating_pointIS6_EE5valueEvE4typeE, symObjAddr: 0x11B0, symBinAddr: 0x100001960, symSize: 0x30 }
  - { offsetInCU: 0xC900, offset: 0xC900, size: 0x8, addend: 0x0, symName: __ZNSt3__16chrono8durationIxNS_5ratioILl1ELl1EEEEC2B7v160006IxEERKT_PNS_9enable_ifIXaasr14is_convertibleIS8_xEE5valueooL_ZNS_17integral_constantIbLb0EE5valueEEntsr23treat_as_floating_pointIS6_EE5valueEvE4typeE, symObjAddr: 0x11E0, symBinAddr: 0x100001990, symSize: 0x20 }
  - { offsetInCU: 0xC94C, offset: 0xC94C, size: 0x8, addend: 0x0, symName: __ZNSt3__16chrono8durationIeNS_5ratioILl1ELl1EEEEC1B7v160006IxS3_EERKNS1_IT_T0_EEPNS_9enable_ifIXaasr13__no_overflowIS7_S3_EE5valueooL_ZNS_17integral_constantIbLb1EE5valueEEaaeqsr13__no_overflowIS7_S3_E4typeE3denLi1Entsr23treat_as_floating_pointIS6_EE5valueEvE4typeE, symObjAddr: 0x1260, symBinAddr: 0x100001A10, symSize: 0x30 }
  - { offsetInCU: 0xC9A2, offset: 0xC9A2, size: 0x8, addend: 0x0, symName: __ZNKSt3__16chrono8durationIeNS_5ratioILl1ELl1EEEE5countB7v160006Ev, symObjAddr: 0x1290, symBinAddr: 0x100001A40, symSize: 0x10 }
  - { offsetInCU: 0xC9C8, offset: 0xC9C8, size: 0x8, addend: 0x0, symName: __ZNSt3__16chrono8durationIeNS_5ratioILl1ELl1EEEEC2B7v160006IxS3_EERKNS1_IT_T0_EEPNS_9enable_ifIXaasr13__no_overflowIS7_S3_EE5valueooL_ZNS_17integral_constantIbLb1EE5valueEEaaeqsr13__no_overflowIS7_S3_E4typeE3denLi1Entsr23treat_as_floating_pointIS6_EE5valueEvE4typeE, symObjAddr: 0x12A0, symBinAddr: 0x100001A50, symSize: 0x40 }
  - { offsetInCU: 0xCA28, offset: 0xCA28, size: 0x8, addend: 0x0, symName: __ZNKSt3__16chrono15__duration_castINS0_8durationIxNS_5ratioILl1ELl1EEEEENS2_IeS4_EES4_Lb1ELb1EEclB7v160006ERKS5_, symObjAddr: 0x1310, symBinAddr: 0x100001AC0, symSize: 0x40 }
  - { offsetInCU: 0xCA67, offset: 0xCA67, size: 0x8, addend: 0x0, symName: __ZNSt3__16chrono8durationIeNS_5ratioILl1ELl1EEEEC1B7v160006IeEERKT_PNS_9enable_ifIXaasr14is_convertibleIS8_eEE5valueooL_ZNS_17integral_constantIbLb1EE5valueEEntsr23treat_as_floating_pointIS6_EE5valueEvE4typeE, symObjAddr: 0x1350, symBinAddr: 0x100001B00, symSize: 0x30 }
  - { offsetInCU: 0xCAB3, offset: 0xCAB3, size: 0x8, addend: 0x0, symName: __ZNSt3__16chrono8durationIeNS_5ratioILl1ELl1EEEEC2B7v160006IeEERKT_PNS_9enable_ifIXaasr14is_convertibleIS8_eEE5valueooL_ZNS_17integral_constantIbLb1EE5valueEEntsr23treat_as_floating_pointIS6_EE5valueEvE4typeE, symObjAddr: 0x1380, symBinAddr: 0x100001B30, symSize: 0x20 }
  - { offsetInCU: 0xCAFF, offset: 0xCAFF, size: 0x8, addend: 0x0, symName: __ZNSt3__16chrono8durationIxNS_5ratioILl1ELl1000000000EEEEC1B7v160006IxEERKT_PNS_9enable_ifIXaasr14is_convertibleIS8_xEE5valueooL_ZNS_17integral_constantIbLb0EE5valueEEntsr23treat_as_floating_pointIS6_EE5valueEvE4typeE, symObjAddr: 0x13E0, symBinAddr: 0x100001B90, symSize: 0x30 }
  - { offsetInCU: 0xCB4B, offset: 0xCB4B, size: 0x8, addend: 0x0, symName: __ZNSt3__16chrono8durationIxNS_5ratioILl1ELl1000000000EEEEC2B7v160006IxEERKT_PNS_9enable_ifIXaasr14is_convertibleIS8_xEE5valueooL_ZNS_17integral_constantIbLb0EE5valueEEntsr23treat_as_floating_pointIS6_EE5valueEvE4typeE, symObjAddr: 0x1410, symBinAddr: 0x100001BC0, symSize: 0x20 }
  - { offsetInCU: 0xCB97, offset: 0xCB97, size: 0x8, addend: 0x0, symName: __ZNKSt3__16chrono8durationIxNS_5ratioILl1ELl1000000000EEEE5countB7v160006Ev, symObjAddr: 0x1490, symBinAddr: 0x100001C40, symSize: 0x20 }
  - { offsetInCU: 0xCBBD, offset: 0xCBBD, size: 0x8, addend: 0x0, symName: __ZNSt3__16chrono8durationIxNS_5ratioILl1ELl1000000000EEEEC1B7v160006IxNS2_ILl1ELl1EEEEERKNS1_IT_T0_EEPNS_9enable_ifIXaasr13__no_overflowIS8_S3_EE5valueooL_ZNS_17integral_constantIbLb0EE5valueEEaaeqsr13__no_overflowIS8_S3_E4typeE3denLi1Entsr23treat_as_floating_pointIS7_EE5valueEvE4typeE, symObjAddr: 0x14B0, symBinAddr: 0x100001C60, symSize: 0x30 }
  - { offsetInCU: 0xCC13, offset: 0xCC13, size: 0x8, addend: 0x0, symName: __ZNSt3__16chrono8durationIxNS_5ratioILl1ELl1000000000EEEEC2B7v160006IxNS2_ILl1ELl1EEEEERKNS1_IT_T0_EEPNS_9enable_ifIXaasr13__no_overflowIS8_S3_EE5valueooL_ZNS_17integral_constantIbLb0EE5valueEEaaeqsr13__no_overflowIS8_S3_E4typeE3denLi1Entsr23treat_as_floating_pointIS7_EE5valueEvE4typeE, symObjAddr: 0x14E0, symBinAddr: 0x100001C90, symSize: 0x50 }
  - { offsetInCU: 0xCC69, offset: 0xCC69, size: 0x8, addend: 0x0, symName: __ZNSt3__16chrono15duration_valuesIxE3maxB7v160006Ev, symObjAddr: 0x1530, symBinAddr: 0x100001CE0, symSize: 0x10 }
  - { offsetInCU: 0xCC7D, offset: 0xCC7D, size: 0x8, addend: 0x0, symName: __ZNSt3__114numeric_limitsIxE3maxB7v160006Ev, symObjAddr: 0x1540, symBinAddr: 0x100001CF0, symSize: 0x10 }
  - { offsetInCU: 0xCC91, offset: 0xCC91, size: 0x8, addend: 0x0, symName: __ZNSt3__123__libcpp_numeric_limitsIxLb1EE3maxB7v160006Ev, symObjAddr: 0x1550, symBinAddr: 0x100001D00, symSize: 0x10 }
  - { offsetInCU: 0xCCA5, offset: 0xCCA5, size: 0x8, addend: 0x0, symName: __ZNSt3__113__assoc_stateIiE9set_valueIRKiEEvOT_, symObjAddr: 0x15E0, symBinAddr: 0x100001D90, symSize: 0xC0 }
  - { offsetInCU: 0xCCF4, offset: 0xCCF4, size: 0x8, addend: 0x0, symName: __ZNSt3__110error_codeC1B7v160006EiRKNS_14error_categoryE, symObjAddr: 0x16E0, symBinAddr: 0x100001E90, symSize: 0x30 }
  - { offsetInCU: 0xCD3C, offset: 0xCD3C, size: 0x8, addend: 0x0, symName: __ZNSt3__110error_codeC2B7v160006EiRKNS_14error_categoryE, symObjAddr: 0x1710, symBinAddr: 0x100001EC0, symSize: 0x30 }
  - { offsetInCU: 0xCD84, offset: 0xCD84, size: 0x8, addend: 0x0, symName: __ZNSt3__111unique_lockINS_5mutexEEC1B7v160006ERS1_, symObjAddr: 0x1740, symBinAddr: 0x100001EF0, symSize: 0x30 }
  - { offsetInCU: 0xCDBC, offset: 0xCDBC, size: 0x8, addend: 0x0, symName: __ZNKSt3__117__assoc_sub_state11__has_valueB7v160006Ev, symObjAddr: 0x1770, symBinAddr: 0x100001F20, symSize: 0x90 }
  - { offsetInCU: 0xCDE2, offset: 0xCDE2, size: 0x8, addend: 0x0, symName: __ZNSt3__111unique_lockINS_5mutexEED1B7v160006Ev, symObjAddr: 0x1800, symBinAddr: 0x100001FB0, symSize: 0x20 }
  - { offsetInCU: 0xCE0C, offset: 0xCE0C, size: 0x8, addend: 0x0, symName: __ZNSt3__111unique_lockINS_5mutexEEC2B7v160006ERS1_, symObjAddr: 0x1820, symBinAddr: 0x100001FD0, symSize: 0x30 }
  - { offsetInCU: 0xCE44, offset: 0xCE44, size: 0x8, addend: 0x0, symName: __ZNSt13exception_ptrC1B7v160006EDn, symObjAddr: 0x1880, symBinAddr: 0x100002030, symSize: 0x30 }
  - { offsetInCU: 0xCE79, offset: 0xCE79, size: 0x8, addend: 0x0, symName: __ZNSt13exception_ptrC2B7v160006EDn, symObjAddr: 0x18E0, symBinAddr: 0x100002090, symSize: 0x20 }
  - { offsetInCU: 0xCEAE, offset: 0xCEAE, size: 0x8, addend: 0x0, symName: __ZNSt3__111unique_lockINS_5mutexEED2B7v160006Ev, symObjAddr: 0x1900, symBinAddr: 0x1000020B0, symSize: 0x30 }
  - { offsetInCU: 0xCED8, offset: 0xCED8, size: 0x8, addend: 0x0, symName: __ZNSt3__17promiseIiEC2Ev, symObjAddr: 0x1930, symBinAddr: 0x1000020E0, symSize: 0x70 }
  - { offsetInCU: 0xCF04, offset: 0xCF04, size: 0x8, addend: 0x0, symName: __ZNSt3__113__assoc_stateIiEC1Ev, symObjAddr: 0x19A0, symBinAddr: 0x100002150, symSize: 0x20 }
  - { offsetInCU: 0xCF31, offset: 0xCF31, size: 0x8, addend: 0x0, symName: __ZNSt3__113__assoc_stateIiEC2Ev, symObjAddr: 0x19C0, symBinAddr: 0x100002170, symSize: 0x40 }
  - { offsetInCU: 0xCF5E, offset: 0xCF5E, size: 0x8, addend: 0x0, symName: __ZNSt3__117__assoc_sub_stateC2B7v160006Ev, symObjAddr: 0x1A00, symBinAddr: 0x1000021B0, symSize: 0x70 }
  - { offsetInCU: 0xCF88, offset: 0xCF88, size: 0x8, addend: 0x0, symName: __ZNSt3__113__assoc_stateIiED1Ev, symObjAddr: 0x1A70, symBinAddr: 0x100002220, symSize: 0x20 }
  - { offsetInCU: 0xCFB5, offset: 0xCFB5, size: 0x8, addend: 0x0, symName: __ZNSt3__113__assoc_stateIiED0Ev, symObjAddr: 0x1A90, symBinAddr: 0x100002240, symSize: 0x30 }
  - { offsetInCU: 0xCFE2, offset: 0xCFE2, size: 0x8, addend: 0x0, symName: __ZNSt3__113__assoc_stateIiE16__on_zero_sharedEv, symObjAddr: 0x1AC0, symBinAddr: 0x100002270, symSize: 0x50 }
  - { offsetInCU: 0xD00A, offset: 0xD00A, size: 0x8, addend: 0x0, symName: __ZNSt3__114__shared_countC2B7v160006El, symObjAddr: 0x1B10, symBinAddr: 0x1000022C0, symSize: 0x30 }
  - { offsetInCU: 0xD042, offset: 0xD042, size: 0x8, addend: 0x0, symName: __ZNSt13exception_ptrC1B7v160006Ev, symObjAddr: 0x1B40, symBinAddr: 0x1000022F0, symSize: 0x20 }
  - { offsetInCU: 0xD06C, offset: 0xD06C, size: 0x8, addend: 0x0, symName: __ZNSt3__15mutexC1B7v160006Ev, symObjAddr: 0x1B60, symBinAddr: 0x100002310, symSize: 0x20 }
  - { offsetInCU: 0xD096, offset: 0xD096, size: 0x8, addend: 0x0, symName: __ZNSt3__118condition_variableC1B7v160006Ev, symObjAddr: 0x1B80, symBinAddr: 0x100002330, symSize: 0x20 }
  - { offsetInCU: 0xD0C0, offset: 0xD0C0, size: 0x8, addend: 0x0, symName: __ZNSt13exception_ptrC2B7v160006Ev, symObjAddr: 0x1BA0, symBinAddr: 0x100002350, symSize: 0x20 }
  - { offsetInCU: 0xD0EA, offset: 0xD0EA, size: 0x8, addend: 0x0, symName: __ZNSt3__15mutexC2B7v160006Ev, symObjAddr: 0x1BC0, symBinAddr: 0x100002370, symSize: 0x30 }
  - { offsetInCU: 0xD114, offset: 0xD114, size: 0x8, addend: 0x0, symName: __ZNSt3__118condition_variableC2B7v160006Ev, symObjAddr: 0x1BF0, symBinAddr: 0x1000023A0, symSize: 0x30 }
  - { offsetInCU: 0xD13E, offset: 0xD13E, size: 0x8, addend: 0x0, symName: __ZNSt3__113__assoc_stateIiED2Ev, symObjAddr: 0x1C20, symBinAddr: 0x1000023D0, symSize: 0x20 }
  - { offsetInCU: 0xD16B, offset: 0xD16B, size: 0x8, addend: 0x0, symName: __ZNSt3__117__assoc_sub_stateD2Ev, symObjAddr: 0x1C40, symBinAddr: 0x1000023F0, symSize: 0x60 }
  - { offsetInCU: 0xD198, offset: 0xD198, size: 0x8, addend: 0x0, symName: __ZNSt3__17promiseIiED2Ev, symObjAddr: 0x1CA0, symBinAddr: 0x100002450, symSize: 0xD0 }
  - { offsetInCU: 0xD1C4, offset: 0xD1C4, size: 0x8, addend: 0x0, symName: __ZNKSt3__114__shared_count9use_countB7v160006Ev, symObjAddr: 0x1D70, symBinAddr: 0x100002520, symSize: 0x40 }
  - { offsetInCU: 0xD1EA, offset: 0xD1EA, size: 0x8, addend: 0x0, symName: __ZNSt3__114__shared_count16__release_sharedB7v160006Ev, symObjAddr: 0x1E50, symBinAddr: 0x100002600, symSize: 0x50 }
  - { offsetInCU: 0xD210, offset: 0xD210, size: 0x8, addend: 0x0, symName: __ZNSt3__112future_errorC1ERKS0_, symObjAddr: 0x1EC0, symBinAddr: 0x100002670, symSize: 0x30 }
  - { offsetInCU: 0xD245, offset: 0xD245, size: 0x8, addend: 0x0, symName: __ZNSt3__112future_errorC2ERKS0_, symObjAddr: 0x1EF0, symBinAddr: 0x1000026A0, symSize: 0x50 }
  - { offsetInCU: 0xD27A, offset: 0xD27A, size: 0x8, addend: 0x0, symName: __ZNSt3__16futureIiEC1EPNS_13__assoc_stateIiEE, symObjAddr: 0x1F70, symBinAddr: 0x100002720, symSize: 0x30 }
  - { offsetInCU: 0xD2B5, offset: 0xD2B5, size: 0x8, addend: 0x0, symName: __ZNSt3__16futureIiEC2EPNS_13__assoc_stateIiEE, symObjAddr: 0x1FA0, symBinAddr: 0x100002750, symSize: 0x30 }
  - { offsetInCU: 0xD2F0, offset: 0xD2F0, size: 0x8, addend: 0x0, symName: __ZNSt3__117__assoc_sub_state15__attach_futureB7v160006Ev, symObjAddr: 0x1FD0, symBinAddr: 0x100002780, symSize: 0xB0 }
  - { offsetInCU: 0xD350, offset: 0xD350, size: 0x8, addend: 0x0, symName: __ZNSt3__110lock_guardINS_5mutexEEC1B7v160006ERS1_, symObjAddr: 0x2080, symBinAddr: 0x100002830, symSize: 0x30 }
  - { offsetInCU: 0xD388, offset: 0xD388, size: 0x8, addend: 0x0, symName: __ZNSt3__114__shared_count12__add_sharedB7v160006Ev, symObjAddr: 0x20B0, symBinAddr: 0x100002860, symSize: 0x20 }
  - { offsetInCU: 0xD3AE, offset: 0xD3AE, size: 0x8, addend: 0x0, symName: __ZNSt3__110lock_guardINS_5mutexEED1B7v160006Ev, symObjAddr: 0x20D0, symBinAddr: 0x100002880, symSize: 0x20 }
  - { offsetInCU: 0xD3D8, offset: 0xD3D8, size: 0x8, addend: 0x0, symName: __ZNSt3__110lock_guardINS_5mutexEEC2B7v160006ERS1_, symObjAddr: 0x20F0, symBinAddr: 0x1000028A0, symSize: 0x30 }
  - { offsetInCU: 0xD410, offset: 0xD410, size: 0x8, addend: 0x0, symName: __ZNSt3__110lock_guardINS_5mutexEED2B7v160006Ev, symObjAddr: 0x2150, symBinAddr: 0x100002900, symSize: 0x20 }
  - { offsetInCU: 0xD43A, offset: 0xD43A, size: 0x8, addend: 0x0, symName: __ZNSt3__16futureIiED2Ev, symObjAddr: 0x2170, symBinAddr: 0x100002920, symSize: 0x30 }
  - { offsetInCU: 0xD466, offset: 0xD466, size: 0x8, addend: 0x0, symName: __ZNSt3__16threadC2IRFvNS_7promiseIiEEEJS3_EvEEOT_DpOT0_, symObjAddr: 0x21A0, symBinAddr: 0x100002950, symSize: 0x150 }
  - { offsetInCU: 0xD4F6, offset: 0xD4F6, size: 0x8, addend: 0x0, symName: __ZNSt3__110unique_ptrINS_15__thread_structENS_14default_deleteIS1_EEEC1B7v160006ILb1EvEEPS1_, symObjAddr: 0x22F0, symBinAddr: 0x100002AA0, symSize: 0x30 }
  - { offsetInCU: 0xD539, offset: 0xD539, size: 0x8, addend: 0x0, symName: __ZNSt3__15tupleIJNS_10unique_ptrINS_15__thread_structENS_14default_deleteIS2_EEEEPFvNS_7promiseIiEEES7_EEC1B7v160006IJS5_RS8_S7_ELi0EEEDpOT_, symObjAddr: 0x2320, symBinAddr: 0x100002AD0, symSize: 0x40 }
  - { offsetInCU: 0xD645, offset: 0xD645, size: 0x8, addend: 0x0, symName: __ZNSt3__110unique_ptrINS_5tupleIJNS0_INS_15__thread_structENS_14default_deleteIS2_EEEEPFvNS_7promiseIiEEES7_EEENS3_ISA_EEEC1B7v160006ILb1EvEEPSA_, symObjAddr: 0x2360, symBinAddr: 0x100002B10, symSize: 0x30 }
  - { offsetInCU: 0xD688, offset: 0xD688, size: 0x8, addend: 0x0, symName: __ZNKSt3__110unique_ptrINS_5tupleIJNS0_INS_15__thread_structENS_14default_deleteIS2_EEEEPFvNS_7promiseIiEEES7_EEENS3_ISA_EEE3getB7v160006Ev, symObjAddr: 0x2460, symBinAddr: 0x100002C10, symSize: 0x20 }
  - { offsetInCU: 0xD6AE, offset: 0xD6AE, size: 0x8, addend: 0x0, symName: __ZNSt3__110unique_ptrINS_5tupleIJNS0_INS_15__thread_structENS_14default_deleteIS2_EEEEPFvNS_7promiseIiEEES7_EEENS3_ISA_EEE7releaseB7v160006Ev, symObjAddr: 0x2480, symBinAddr: 0x100002C30, symSize: 0x40 }
  - { offsetInCU: 0xD6E3, offset: 0xD6E3, size: 0x8, addend: 0x0, symName: __ZNSt3__110unique_ptrINS_5tupleIJNS0_INS_15__thread_structENS_14default_deleteIS2_EEEEPFvNS_7promiseIiEEES7_EEENS3_ISA_EEED1B7v160006Ev, symObjAddr: 0x24C0, symBinAddr: 0x100002C70, symSize: 0x20 }
  - { offsetInCU: 0xD70D, offset: 0xD70D, size: 0x8, addend: 0x0, symName: __ZNSt3__110unique_ptrINS_15__thread_structENS_14default_deleteIS1_EEED1B7v160006Ev, symObjAddr: 0x24E0, symBinAddr: 0x100002C90, symSize: 0x20 }
  - { offsetInCU: 0xD737, offset: 0xD737, size: 0x8, addend: 0x0, symName: __ZNSt3__110unique_ptrINS_15__thread_structENS_14default_deleteIS1_EEEC2B7v160006ILb1EvEEPS1_, symObjAddr: 0x2500, symBinAddr: 0x100002CB0, symSize: 0x40 }
  - { offsetInCU: 0xD780, offset: 0xD780, size: 0x8, addend: 0x0, symName: __ZNSt3__117__compressed_pairIPNS_15__thread_structENS_14default_deleteIS1_EEEC1B7v160006IRS2_NS_16__value_init_tagEEEOT_OT0_, symObjAddr: 0x2540, symBinAddr: 0x100002CF0, symSize: 0x30 }
  - { offsetInCU: 0xD7D8, offset: 0xD7D8, size: 0x8, addend: 0x0, symName: __ZNSt3__117__compressed_pairIPNS_15__thread_structENS_14default_deleteIS1_EEEC2B7v160006IRS2_NS_16__value_init_tagEEEOT_OT0_, symObjAddr: 0x2570, symBinAddr: 0x100002D20, symSize: 0x40 }
  - { offsetInCU: 0xD830, offset: 0xD830, size: 0x8, addend: 0x0, symName: __ZNSt3__122__compressed_pair_elemIPNS_15__thread_structELi0ELb0EEC2B7v160006IRS2_vEEOT_, symObjAddr: 0x25B0, symBinAddr: 0x100002D60, symSize: 0x20 }
  - { offsetInCU: 0xD872, offset: 0xD872, size: 0x8, addend: 0x0, symName: __ZNSt3__122__compressed_pair_elemINS_14default_deleteINS_15__thread_structEEELi1ELb1EEC2B7v160006ENS_16__value_init_tagE, symObjAddr: 0x25D0, symBinAddr: 0x100002D80, symSize: 0x10 }
  - { offsetInCU: 0xD8A7, offset: 0xD8A7, size: 0x8, addend: 0x0, symName: __ZNSt3__15tupleIJNS_10unique_ptrINS_15__thread_structENS_14default_deleteIS2_EEEEPFvNS_7promiseIiEEES7_EEC2B7v160006IJS5_RS8_S7_ELi0EEEDpOT_, symObjAddr: 0x25E0, symBinAddr: 0x100002D90, symSize: 0x40 }
  - { offsetInCU: 0xD919, offset: 0xD919, size: 0x8, addend: 0x0, symName: __ZNSt3__112__tuple_implINS_15__tuple_indicesIJLm0ELm1ELm2EEEEJNS_10unique_ptrINS_15__thread_structENS_14default_deleteIS4_EEEEPFvNS_7promiseIiEEES9_EEC1B7v160006IJLm0ELm1ELm2EEJS7_SB_S9_EJEJEJS7_RSA_S9_EEENS1_IJXspT_EEEENS_13__tuple_typesIJDpT0_EEENS1_IJXspT1_EEEENSG_IJDpT2_EEEDpOT3_, symObjAddr: 0x2620, symBinAddr: 0x100002DD0, symSize: 0x40 }
  - { offsetInCU: 0xD9E8, offset: 0xD9E8, size: 0x8, addend: 0x0, symName: __ZNSt3__112__tuple_implINS_15__tuple_indicesIJLm0ELm1ELm2EEEEJNS_10unique_ptrINS_15__thread_structENS_14default_deleteIS4_EEEEPFvNS_7promiseIiEEES9_EEC2B7v160006IJLm0ELm1ELm2EEJS7_SB_S9_EJEJEJS7_RSA_S9_EEENS1_IJXspT_EEEENS_13__tuple_typesIJDpT0_EEENS1_IJXspT1_EEEENSG_IJDpT2_EEEDpOT3_, symObjAddr: 0x2660, symBinAddr: 0x100002E10, symSize: 0x60 }
  - { offsetInCU: 0xDAB7, offset: 0xDAB7, size: 0x8, addend: 0x0, symName: __ZNSt3__112__tuple_leafILm0ENS_10unique_ptrINS_15__thread_structENS_14default_deleteIS2_EEEELb0EEC2B7v160006IS5_vEEOT_, symObjAddr: 0x26C0, symBinAddr: 0x100002E70, symSize: 0x30 }
  - { offsetInCU: 0xDAFA, offset: 0xDAFA, size: 0x8, addend: 0x0, symName: __ZNSt3__112__tuple_leafILm1EPFvNS_7promiseIiEEELb0EEC2B7v160006IRS3_vEEOT_, symObjAddr: 0x26F0, symBinAddr: 0x100002EA0, symSize: 0x20 }
  - { offsetInCU: 0xDB3D, offset: 0xDB3D, size: 0x8, addend: 0x0, symName: __ZNSt3__112__tuple_leafILm2ENS_7promiseIiEELb0EEC2B7v160006IS2_vEEOT_, symObjAddr: 0x2710, symBinAddr: 0x100002EC0, symSize: 0x30 }
  - { offsetInCU: 0xDB80, offset: 0xDB80, size: 0x8, addend: 0x0, symName: __ZNSt3__110unique_ptrINS_15__thread_structENS_14default_deleteIS1_EEEC1B7v160006EOS4_, symObjAddr: 0x2740, symBinAddr: 0x100002EF0, symSize: 0x30 }
  - { offsetInCU: 0xDBB8, offset: 0xDBB8, size: 0x8, addend: 0x0, symName: __ZNSt3__110unique_ptrINS_15__thread_structENS_14default_deleteIS1_EEEC2B7v160006EOS4_, symObjAddr: 0x2770, symBinAddr: 0x100002F20, symSize: 0x60 }
  - { offsetInCU: 0xDBF0, offset: 0xDBF0, size: 0x8, addend: 0x0, symName: __ZNSt3__110unique_ptrINS_15__thread_structENS_14default_deleteIS1_EEE7releaseB7v160006Ev, symObjAddr: 0x27D0, symBinAddr: 0x100002F80, symSize: 0x40 }
  - { offsetInCU: 0xDC25, offset: 0xDC25, size: 0x8, addend: 0x0, symName: __ZNSt3__110unique_ptrINS_15__thread_structENS_14default_deleteIS1_EEE11get_deleterB7v160006Ev, symObjAddr: 0x2810, symBinAddr: 0x100002FC0, symSize: 0x20 }
  - { offsetInCU: 0xDC57, offset: 0xDC57, size: 0x8, addend: 0x0, symName: __ZNSt3__117__compressed_pairIPNS_15__thread_structENS_14default_deleteIS1_EEEC1B7v160006IS2_S4_EEOT_OT0_, symObjAddr: 0x2830, symBinAddr: 0x100002FE0, symSize: 0x30 }
  - { offsetInCU: 0xDCAF, offset: 0xDCAF, size: 0x8, addend: 0x0, symName: __ZNSt3__117__compressed_pairIPNS_15__thread_structENS_14default_deleteIS1_EEE5firstB7v160006Ev, symObjAddr: 0x2860, symBinAddr: 0x100003010, symSize: 0x20 }
  - { offsetInCU: 0xDCD5, offset: 0xDCD5, size: 0x8, addend: 0x0, symName: __ZNSt3__122__compressed_pair_elemIPNS_15__thread_structELi0ELb0EE5__getB7v160006Ev, symObjAddr: 0x2880, symBinAddr: 0x100003030, symSize: 0x10 }
  - { offsetInCU: 0xDCFB, offset: 0xDCFB, size: 0x8, addend: 0x0, symName: __ZNSt3__117__compressed_pairIPNS_15__thread_structENS_14default_deleteIS1_EEE6secondB7v160006Ev, symObjAddr: 0x2890, symBinAddr: 0x100003040, symSize: 0x20 }
  - { offsetInCU: 0xDD21, offset: 0xDD21, size: 0x8, addend: 0x0, symName: __ZNSt3__122__compressed_pair_elemINS_14default_deleteINS_15__thread_structEEELi1ELb1EE5__getB7v160006Ev, symObjAddr: 0x28B0, symBinAddr: 0x100003060, symSize: 0x10 }
  - { offsetInCU: 0xDD47, offset: 0xDD47, size: 0x8, addend: 0x0, symName: __ZNSt3__117__compressed_pairIPNS_15__thread_structENS_14default_deleteIS1_EEEC2B7v160006IS2_S4_EEOT_OT0_, symObjAddr: 0x28C0, symBinAddr: 0x100003070, symSize: 0x40 }
  - { offsetInCU: 0xDD9F, offset: 0xDD9F, size: 0x8, addend: 0x0, symName: __ZNSt3__122__compressed_pair_elemIPNS_15__thread_structELi0ELb0EEC2B7v160006IS2_vEEOT_, symObjAddr: 0x2900, symBinAddr: 0x1000030B0, symSize: 0x20 }
  - { offsetInCU: 0xDDE1, offset: 0xDDE1, size: 0x8, addend: 0x0, symName: __ZNSt3__122__compressed_pair_elemINS_14default_deleteINS_15__thread_structEEELi1ELb1EEC2B7v160006IS3_vEEOT_, symObjAddr: 0x2920, symBinAddr: 0x1000030D0, symSize: 0x10 }
  - { offsetInCU: 0xDE23, offset: 0xDE23, size: 0x8, addend: 0x0, symName: __ZNSt3__17promiseIiEC1B7v160006EOS1_, symObjAddr: 0x2930, symBinAddr: 0x1000030E0, symSize: 0x30 }
  - { offsetInCU: 0xDE5C, offset: 0xDE5C, size: 0x8, addend: 0x0, symName: __ZNSt3__17promiseIiEC2B7v160006EOS1_, symObjAddr: 0x2960, symBinAddr: 0x100003110, symSize: 0x30 }
  - { offsetInCU: 0xDE95, offset: 0xDE95, size: 0x8, addend: 0x0, symName: __ZNSt3__110unique_ptrINS_5tupleIJNS0_INS_15__thread_structENS_14default_deleteIS2_EEEEPFvNS_7promiseIiEEES7_EEENS3_ISA_EEEC2B7v160006ILb1EvEEPSA_, symObjAddr: 0x2990, symBinAddr: 0x100003140, symSize: 0x40 }
  - { offsetInCU: 0xDED8, offset: 0xDED8, size: 0x8, addend: 0x0, symName: __ZNSt3__117__compressed_pairIPNS_5tupleIJNS_10unique_ptrINS_15__thread_structENS_14default_deleteIS3_EEEEPFvNS_7promiseIiEEES8_EEENS4_ISB_EEEC1B7v160006IRSC_NS_16__value_init_tagEEEOT_OT0_, symObjAddr: 0x29D0, symBinAddr: 0x100003180, symSize: 0x30 }
  - { offsetInCU: 0xDF30, offset: 0xDF30, size: 0x8, addend: 0x0, symName: __ZNSt3__117__compressed_pairIPNS_5tupleIJNS_10unique_ptrINS_15__thread_structENS_14default_deleteIS3_EEEEPFvNS_7promiseIiEEES8_EEENS4_ISB_EEEC2B7v160006IRSC_NS_16__value_init_tagEEEOT_OT0_, symObjAddr: 0x2A00, symBinAddr: 0x1000031B0, symSize: 0x40 }
  - { offsetInCU: 0xDF88, offset: 0xDF88, size: 0x8, addend: 0x0, symName: __ZNSt3__122__compressed_pair_elemIPNS_5tupleIJNS_10unique_ptrINS_15__thread_structENS_14default_deleteIS3_EEEEPFvNS_7promiseIiEEES8_EEELi0ELb0EEC2B7v160006IRSC_vEEOT_, symObjAddr: 0x2A40, symBinAddr: 0x1000031F0, symSize: 0x20 }
  - { offsetInCU: 0xDFCA, offset: 0xDFCA, size: 0x8, addend: 0x0, symName: __ZNSt3__122__compressed_pair_elemINS_14default_deleteINS_5tupleIJNS_10unique_ptrINS_15__thread_structENS1_IS4_EEEEPFvNS_7promiseIiEEES8_EEEEELi1ELb1EEC2B7v160006ENS_16__value_init_tagE, symObjAddr: 0x2A60, symBinAddr: 0x100003210, symSize: 0x10 }
  - { offsetInCU: 0xE030, offset: 0xE030, size: 0x8, addend: 0x0, symName: __ZNSt3__121__thread_specific_ptrINS_15__thread_structEE11set_pointerEPS1_, symObjAddr: 0x2A70, symBinAddr: 0x100003220, symSize: 0x30 }
  - { offsetInCU: 0xE065, offset: 0xE065, size: 0x8, addend: 0x0, symName: __ZNSt3__112__tuple_leafILm0ENS_10unique_ptrINS_15__thread_structENS_14default_deleteIS2_EEEELb0EE3getB7v160006Ev, symObjAddr: 0x2B30, symBinAddr: 0x1000032E0, symSize: 0x10 }
  - { offsetInCU: 0xE08B, offset: 0xE08B, size: 0x8, addend: 0x0, symName: __ZNSt3__112__tuple_leafILm1EPFvNS_7promiseIiEEELb0EE3getB7v160006Ev, symObjAddr: 0x2BF0, symBinAddr: 0x1000033A0, symSize: 0x10 }
  - { offsetInCU: 0xE0B1, offset: 0xE0B1, size: 0x8, addend: 0x0, symName: __ZNSt3__112__tuple_leafILm2ENS_7promiseIiEELb0EE3getB7v160006Ev, symObjAddr: 0x2C00, symBinAddr: 0x1000033B0, symSize: 0x10 }
  - { offsetInCU: 0xE0D7, offset: 0xE0D7, size: 0x8, addend: 0x0, symName: __ZNKSt3__117__compressed_pairIPNS_5tupleIJNS_10unique_ptrINS_15__thread_structENS_14default_deleteIS3_EEEEPFvNS_7promiseIiEEES8_EEENS4_ISB_EEE5firstB7v160006Ev, symObjAddr: 0x2C10, symBinAddr: 0x1000033C0, symSize: 0x20 }
  - { offsetInCU: 0xE0FD, offset: 0xE0FD, size: 0x8, addend: 0x0, symName: __ZNKSt3__122__compressed_pair_elemIPNS_5tupleIJNS_10unique_ptrINS_15__thread_structENS_14default_deleteIS3_EEEEPFvNS_7promiseIiEEES8_EEELi0ELb0EE5__getB7v160006Ev, symObjAddr: 0x2C30, symBinAddr: 0x1000033E0, symSize: 0x10 }
  - { offsetInCU: 0xE123, offset: 0xE123, size: 0x8, addend: 0x0, symName: __ZNSt3__117__compressed_pairIPNS_5tupleIJNS_10unique_ptrINS_15__thread_structENS_14default_deleteIS3_EEEEPFvNS_7promiseIiEEES8_EEENS4_ISB_EEE5firstB7v160006Ev, symObjAddr: 0x2C40, symBinAddr: 0x1000033F0, symSize: 0x20 }
  - { offsetInCU: 0xE149, offset: 0xE149, size: 0x8, addend: 0x0, symName: __ZNSt3__122__compressed_pair_elemIPNS_5tupleIJNS_10unique_ptrINS_15__thread_structENS_14default_deleteIS3_EEEEPFvNS_7promiseIiEEES8_EEELi0ELb0EE5__getB7v160006Ev, symObjAddr: 0x2C60, symBinAddr: 0x100003410, symSize: 0x10 }
  - { offsetInCU: 0xE16F, offset: 0xE16F, size: 0x8, addend: 0x0, symName: __ZNSt3__110unique_ptrINS_5tupleIJNS0_INS_15__thread_structENS_14default_deleteIS2_EEEEPFvNS_7promiseIiEEES7_EEENS3_ISA_EEED2B7v160006Ev, symObjAddr: 0x2C70, symBinAddr: 0x100003420, symSize: 0x20 }
  - { offsetInCU: 0xE199, offset: 0xE199, size: 0x8, addend: 0x0, symName: __ZNSt3__110unique_ptrINS_5tupleIJNS0_INS_15__thread_structENS_14default_deleteIS2_EEEEPFvNS_7promiseIiEEES7_EEENS3_ISA_EEE5resetB7v160006EPSA_, symObjAddr: 0x2C90, symBinAddr: 0x100003440, symSize: 0x70 }
  - { offsetInCU: 0xE1DD, offset: 0xE1DD, size: 0x8, addend: 0x0, symName: __ZNSt3__117__compressed_pairIPNS_5tupleIJNS_10unique_ptrINS_15__thread_structENS_14default_deleteIS3_EEEEPFvNS_7promiseIiEEES8_EEENS4_ISB_EEE6secondB7v160006Ev, symObjAddr: 0x2D00, symBinAddr: 0x1000034B0, symSize: 0x20 }
  - { offsetInCU: 0xE203, offset: 0xE203, size: 0x8, addend: 0x0, symName: __ZNKSt3__114default_deleteINS_5tupleIJNS_10unique_ptrINS_15__thread_structENS0_IS3_EEEEPFvNS_7promiseIiEEES7_EEEEclB7v160006EPSA_, symObjAddr: 0x2D20, symBinAddr: 0x1000034D0, symSize: 0x40 }
  - { offsetInCU: 0xE237, offset: 0xE237, size: 0x8, addend: 0x0, symName: __ZNSt3__122__compressed_pair_elemINS_14default_deleteINS_5tupleIJNS_10unique_ptrINS_15__thread_structENS1_IS4_EEEEPFvNS_7promiseIiEEES8_EEEEELi1ELb1EE5__getB7v160006Ev, symObjAddr: 0x2D60, symBinAddr: 0x100003510, symSize: 0x10 }
  - { offsetInCU: 0xE25D, offset: 0xE25D, size: 0x8, addend: 0x0, symName: __ZNSt3__15tupleIJNS_10unique_ptrINS_15__thread_structENS_14default_deleteIS2_EEEEPFvNS_7promiseIiEEES7_EED1Ev, symObjAddr: 0x2D70, symBinAddr: 0x100003520, symSize: 0x20 }
  - { offsetInCU: 0xE28A, offset: 0xE28A, size: 0x8, addend: 0x0, symName: __ZNSt3__15tupleIJNS_10unique_ptrINS_15__thread_structENS_14default_deleteIS2_EEEEPFvNS_7promiseIiEEES7_EED2Ev, symObjAddr: 0x2D90, symBinAddr: 0x100003540, symSize: 0x20 }
  - { offsetInCU: 0xE2B7, offset: 0xE2B7, size: 0x8, addend: 0x0, symName: __ZNSt3__112__tuple_implINS_15__tuple_indicesIJLm0ELm1ELm2EEEEJNS_10unique_ptrINS_15__thread_structENS_14default_deleteIS4_EEEEPFvNS_7promiseIiEEES9_EED1Ev, symObjAddr: 0x2DB0, symBinAddr: 0x100003560, symSize: 0x20 }
  - { offsetInCU: 0xE2E4, offset: 0xE2E4, size: 0x8, addend: 0x0, symName: __ZNSt3__112__tuple_implINS_15__tuple_indicesIJLm0ELm1ELm2EEEEJNS_10unique_ptrINS_15__thread_structENS_14default_deleteIS4_EEEEPFvNS_7promiseIiEEES9_EED2Ev, symObjAddr: 0x2DD0, symBinAddr: 0x100003580, symSize: 0x30 }
  - { offsetInCU: 0xE311, offset: 0xE311, size: 0x8, addend: 0x0, symName: __ZNSt3__112__tuple_leafILm2ENS_7promiseIiEELb0EED2Ev, symObjAddr: 0x2E00, symBinAddr: 0x1000035B0, symSize: 0x20 }
  - { offsetInCU: 0xE33E, offset: 0xE33E, size: 0x8, addend: 0x0, symName: __ZNSt3__112__tuple_leafILm0ENS_10unique_ptrINS_15__thread_structENS_14default_deleteIS2_EEEELb0EED2Ev, symObjAddr: 0x2E20, symBinAddr: 0x1000035D0, symSize: 0x20 }
  - { offsetInCU: 0xE36B, offset: 0xE36B, size: 0x8, addend: 0x0, symName: __ZNSt3__110unique_ptrINS_15__thread_structENS_14default_deleteIS1_EEED2B7v160006Ev, symObjAddr: 0x2E40, symBinAddr: 0x1000035F0, symSize: 0x20 }
  - { offsetInCU: 0xE395, offset: 0xE395, size: 0x8, addend: 0x0, symName: __ZNSt3__110unique_ptrINS_15__thread_structENS_14default_deleteIS1_EEE5resetB7v160006EPS1_, symObjAddr: 0x2E60, symBinAddr: 0x100003610, symSize: 0x70 }
  - { offsetInCU: 0xE3D9, offset: 0xE3D9, size: 0x8, addend: 0x0, symName: __ZNKSt3__114default_deleteINS_15__thread_structEEclB7v160006EPS1_, symObjAddr: 0x2ED0, symBinAddr: 0x100003680, symSize: 0x40 }
  - { offsetInCU: 0xE4A7, offset: 0xE4A7, size: 0x8, addend: 0x0, symName: __ZNSt3__110unique_ptrINS_14__shared_countENS_22__release_shared_countEEC1B7v160006ILb1EvEEPS1_, symObjAddr: 0x2F10, symBinAddr: 0x1000036C0, symSize: 0x30 }
  - { offsetInCU: 0xE4EA, offset: 0xE4EA, size: 0x8, addend: 0x0, symName: __ZNSt3__113__assoc_stateIiE4moveEv, symObjAddr: 0x2F40, symBinAddr: 0x1000036F0, symSize: 0x100 }
  - { offsetInCU: 0xE521, offset: 0xE521, size: 0x8, addend: 0x0, symName: __ZNSt3__110unique_ptrINS_14__shared_countENS_22__release_shared_countEED1B7v160006Ev, symObjAddr: 0x3040, symBinAddr: 0x1000037F0, symSize: 0x20 }
  - { offsetInCU: 0xE54B, offset: 0xE54B, size: 0x8, addend: 0x0, symName: __ZNSt3__110unique_ptrINS_14__shared_countENS_22__release_shared_countEEC2B7v160006ILb1EvEEPS1_, symObjAddr: 0x3060, symBinAddr: 0x100003810, symSize: 0x40 }
  - { offsetInCU: 0xE58E, offset: 0xE58E, size: 0x8, addend: 0x0, symName: __ZNSt3__117__compressed_pairIPNS_14__shared_countENS_22__release_shared_countEEC1B7v160006IRS2_NS_16__value_init_tagEEEOT_OT0_, symObjAddr: 0x30A0, symBinAddr: 0x100003850, symSize: 0x30 }
  - { offsetInCU: 0xE5E6, offset: 0xE5E6, size: 0x8, addend: 0x0, symName: __ZNSt3__117__compressed_pairIPNS_14__shared_countENS_22__release_shared_countEEC2B7v160006IRS2_NS_16__value_init_tagEEEOT_OT0_, symObjAddr: 0x30D0, symBinAddr: 0x100003880, symSize: 0x40 }
  - { offsetInCU: 0xE63E, offset: 0xE63E, size: 0x8, addend: 0x0, symName: __ZNSt3__122__compressed_pair_elemIPNS_14__shared_countELi0ELb0EEC2B7v160006IRS2_vEEOT_, symObjAddr: 0x3110, symBinAddr: 0x1000038C0, symSize: 0x20 }
  - { offsetInCU: 0xE680, offset: 0xE680, size: 0x8, addend: 0x0, symName: __ZNSt3__122__compressed_pair_elemINS_22__release_shared_countELi1ELb1EEC2B7v160006ENS_16__value_init_tagE, symObjAddr: 0x3130, symBinAddr: 0x1000038E0, symSize: 0x10 }
  - { offsetInCU: 0xE6B5, offset: 0xE6B5, size: 0x8, addend: 0x0, symName: __ZNSt3__110unique_ptrINS_14__shared_countENS_22__release_shared_countEED2B7v160006Ev, symObjAddr: 0x3140, symBinAddr: 0x1000038F0, symSize: 0x20 }
  - { offsetInCU: 0xE6DF, offset: 0xE6DF, size: 0x8, addend: 0x0, symName: __ZNSt3__110unique_ptrINS_14__shared_countENS_22__release_shared_countEE5resetB7v160006EPS1_, symObjAddr: 0x3160, symBinAddr: 0x100003910, symSize: 0x80 }
  - { offsetInCU: 0xE723, offset: 0xE723, size: 0x8, addend: 0x0, symName: __ZNSt3__117__compressed_pairIPNS_14__shared_countENS_22__release_shared_countEE5firstB7v160006Ev, symObjAddr: 0x31E0, symBinAddr: 0x100003990, symSize: 0x20 }
  - { offsetInCU: 0xE749, offset: 0xE749, size: 0x8, addend: 0x0, symName: __ZNSt3__117__compressed_pairIPNS_14__shared_countENS_22__release_shared_countEE6secondB7v160006Ev, symObjAddr: 0x3200, symBinAddr: 0x1000039B0, symSize: 0x20 }
  - { offsetInCU: 0xE76F, offset: 0xE76F, size: 0x8, addend: 0x0, symName: __ZNSt3__122__release_shared_countclEPNS_14__shared_countE, symObjAddr: 0x3220, symBinAddr: 0x1000039D0, symSize: 0x20 }
  - { offsetInCU: 0xE7A4, offset: 0xE7A4, size: 0x8, addend: 0x0, symName: __ZNSt3__122__compressed_pair_elemIPNS_14__shared_countELi0ELb0EE5__getB7v160006Ev, symObjAddr: 0x3240, symBinAddr: 0x1000039F0, symSize: 0x10 }
  - { offsetInCU: 0xE7CA, offset: 0xE7CA, size: 0x8, addend: 0x0, symName: __ZNSt3__122__compressed_pair_elemINS_22__release_shared_countELi1ELb1EE5__getB7v160006Ev, symObjAddr: 0x3250, symBinAddr: 0x100003A00, symSize: 0xE }
...
