---
triple:          'x86_64-apple-darwin'
binary-path:     item42
relocations:
  - { offsetInCU: 0x18A, offset: 0x18A, size: 0x8, addend: 0x0, symName: __ZNSt3__115regex_constants13__get_grammarB7v160006ENS0_18syntax_option_typeE, symObjAddr: 0x7280, symBinAddr: 0x100009900, symSize: 0x20 }
  - { offsetInCU: 0x1B8, offset: 0x1B8, size: 0x8, addend: 0x0, symName: __ZNSt3__115regex_constantsoRB7v160006ERNS0_18syntax_option_typeES1_, symObjAddr: 0x72A0, symBinAddr: 0x100009920, symSize: 0x30 }
  - { offsetInCU: 0x1F5, offset: 0x1F5, size: 0x8, addend: 0x0, symName: __ZNSt3__115regex_constantsorB7v160006ENS0_18syntax_option_typeES1_, symObjAddr: 0x7550, symBinAddr: 0x100009BD0, symSize: 0x20 }
  - { offsetInCU: 0x232, offset: 0x232, size: 0x8, addend: 0x0, symName: __ZNSt3__115regex_constantsanB7v160006ENS0_18syntax_option_typeES1_, symObjAddr: 0xA070, symBinAddr: 0x10000C6F0, symSize: 0x20 }
  - { offsetInCU: 0x26F, offset: 0x26F, size: 0x8, addend: 0x0, symName: __ZNSt3__115regex_constantsanB7v160006ENS0_15match_flag_typeES1_, symObjAddr: 0xA250, symBinAddr: 0x10000C8D0, symSize: 0x20 }
  - { offsetInCU: 0x2AC, offset: 0x2AC, size: 0x8, addend: 0x0, symName: __ZNSt3__115regex_constantsorB7v160006ENS0_15match_flag_typeES1_, symObjAddr: 0xB6D0, symBinAddr: 0x10000DD50, symSize: 0x20 }
  - { offsetInCU: 0x2E9, offset: 0x2E9, size: 0x8, addend: 0x0, symName: __ZNSt3__115regex_constantscoB7v160006ENS0_15match_flag_typeE, symObjAddr: 0xB6F0, symBinAddr: 0x10000DD70, symSize: 0x20 }
  - { offsetInCU: 0x7AC7, offset: 0x7AC7, size: 0x8, addend: 0x0, symName: __ZNSt3__17advanceB7v160006IPNS_12basic_stringIcNS_11char_traitsIcEENS_9allocatorIcEEEEllvEEvRT_T0_, symObjAddr: 0x1D40, symBinAddr: 0x1000043C0, symSize: 0x50 }
  - { offsetInCU: 0x7D47, offset: 0x7D47, size: 0x8, addend: 0x0, symName: __ZNSt3__17advanceB7v160006INS_16reverse_iteratorIPNS_12basic_stringIcNS_11char_traitsIcEENS_9allocatorIcEEEEEEllvEEvRT_T0_, symObjAddr: 0x21A0, symBinAddr: 0x100004820, symSize: 0x50 }
  - { offsetInCU: 0x9B3F, offset: 0x9B3F, size: 0x8, addend: 0x0, symName: __ZNSt3__17advanceB7v160006IPNS_10shared_ptrI6WidgetEEllvEEvRT_T0_, symObjAddr: 0x3B80, symBinAddr: 0x100006200, symSize: 0x50 }
  - { offsetInCU: 0x9DBF, offset: 0x9DBF, size: 0x8, addend: 0x0, symName: __ZNSt3__17advanceB7v160006INS_16reverse_iteratorIPNS_10shared_ptrI6WidgetEEEEllvEEvRT_T0_, symObjAddr: 0x3FD0, symBinAddr: 0x100006650, symSize: 0x50 }
  - { offsetInCU: 0x11795, offset: 0x11795, size: 0x8, addend: 0x0, symName: __ZNSt3__17advanceB7v160006IPNS_11basic_regexIcNS_12regex_traitsIcEEEEllvEEvRT_T0_, symObjAddr: 0x58F0, symBinAddr: 0x100007F70, symSize: 0x50 }
  - { offsetInCU: 0x11A15, offset: 0x11A15, size: 0x8, addend: 0x0, symName: __ZNSt3__17advanceB7v160006INS_16reverse_iteratorIPNS_11basic_regexIcNS_12regex_traitsIcEEEEEEllvEEvRT_T0_, symObjAddr: 0x5D40, symBinAddr: 0x1000083C0, symSize: 0x50 }
  - { offsetInCU: 0x11A80, offset: 0x11A80, size: 0x8, addend: 0x0, symName: __ZNSt3__17advanceB7v160006IPKcllvEEvRT_T0_, symObjAddr: 0xA300, symBinAddr: 0x10000C980, symSize: 0x50 }
  - { offsetInCU: 0x133CF, offset: 0x133CF, size: 0x8, addend: 0x0, symName: __ZNSt3__17advanceB7v160006IPNS_7__stateIcEEllvEEvRT_T0_, symObjAddr: 0xE280, symBinAddr: 0x100010900, symSize: 0x50 }
  - { offsetInCU: 0x1364F, offset: 0x1364F, size: 0x8, addend: 0x0, symName: __ZNSt3__17advanceB7v160006INS_16reverse_iteratorIPNS_7__stateIcEEEEllvEEvRT_T0_, symObjAddr: 0xE6D0, symBinAddr: 0x100010D50, symSize: 0x50 }
  - { offsetInCU: 0x13A18, offset: 0x13A18, size: 0x8, addend: 0x0, symName: __ZNSt3__17advanceB7v160006IPNS_9sub_matchIPKcEEllvEEvRT_T0_, symObjAddr: 0xFD00, symBinAddr: 0x100012380, symSize: 0x50 }
  - { offsetInCU: 0x13C98, offset: 0x13C98, size: 0x8, addend: 0x0, symName: __ZNSt3__17advanceB7v160006INS_16reverse_iteratorIPNS_9sub_matchIPKcEEEEllvEEvRT_T0_, symObjAddr: 0x100F0, symBinAddr: 0x100012770, symSize: 0x50 }
  - { offsetInCU: 0x14061, offset: 0x14061, size: 0x8, addend: 0x0, symName: __ZNSt3__17advanceB7v160006IPNS_4pairImPKcEEllvEEvRT_T0_, symObjAddr: 0x11490, symBinAddr: 0x100013B10, symSize: 0x50 }
  - { offsetInCU: 0x142E1, offset: 0x142E1, size: 0x8, addend: 0x0, symName: __ZNSt3__17advanceB7v160006INS_16reverse_iteratorIPNS_4pairImPKcEEEEllvEEvRT_T0_, symObjAddr: 0x11880, symBinAddr: 0x100013F00, symSize: 0x50 }
  - { offsetInCU: 0x14E3F, offset: 0x14E3F, size: 0x8, addend: 0x0, symName: __ZNSt3__17advanceB7v160006IPNS_4pairINS_12basic_stringIcNS_11char_traitsIcEENS_9allocatorIcEEEES7_EEllvEEvRT_T0_, symObjAddr: 0x1EB70, symBinAddr: 0x1000211F0, symSize: 0x50 }
  - { offsetInCU: 0x150BF, offset: 0x150BF, size: 0x8, addend: 0x0, symName: __ZNSt3__17advanceB7v160006INS_16reverse_iteratorIPNS_4pairINS_12basic_stringIcNS_11char_traitsIcEENS_9allocatorIcEEEES8_EEEEllvEEvRT_T0_, symObjAddr: 0x1EF60, symBinAddr: 0x1000215E0, symSize: 0x50 }
  - { offsetInCU: 0x15488, offset: 0x15488, size: 0x8, addend: 0x0, symName: __ZNSt3__17advanceB7v160006IPNS_4pairIccEEllvEEvRT_T0_, symObjAddr: 0x201D0, symBinAddr: 0x100022850, symSize: 0x50 }
  - { offsetInCU: 0x15708, offset: 0x15708, size: 0x8, addend: 0x0, symName: __ZNSt3__17advanceB7v160006INS_16reverse_iteratorIPNS_4pairIccEEEEllvEEvRT_T0_, symObjAddr: 0x205C0, symBinAddr: 0x100022C40, symSize: 0x50 }
  - { offsetInCU: 0x16A2C, offset: 0x16A2C, size: 0x8, addend: 0x0, symName: __ZNSt3__119__debug_db_insert_cB7v160006INS_6vectorINS_12basic_stringIcNS_11char_traitsIcEENS_9allocatorIcEEEENS5_IS7_EEEEEEvPT_, symObjAddr: 0x710, symBinAddr: 0x100002D90, symSize: 0x10 }
  - { offsetInCU: 0x16A5D, offset: 0x16A5D, size: 0x8, addend: 0x0, symName: __ZNSt3__112__to_addressB7v160006INS_12basic_stringIcNS_11char_traitsIcEENS_9allocatorIcEEEEEEPT_S8_, symObjAddr: 0xA00, symBinAddr: 0x100003080, symSize: 0x10 }
  - { offsetInCU: 0x16AB7, offset: 0x16AB7, size: 0x8, addend: 0x0, symName: __ZNSt3__112construct_atB7v160006INS_12basic_stringIcNS_11char_traitsIcEENS_9allocatorIcEEEEJS6_EPS6_EEPT_S9_DpOT0_, symObjAddr: 0xA70, symBinAddr: 0x1000030F0, symSize: 0x40 }
  - { offsetInCU: 0x16B27, offset: 0x16B27, size: 0x8, addend: 0x0, symName: __ZNSt3__119__debug_db_insert_cB7v160006INS_12basic_stringIcNS_11char_traitsIcEENS_9allocatorIcEEEEEEvPT_, symObjAddr: 0xBC0, symBinAddr: 0x100003240, symSize: 0x10 }
  - { offsetInCU: 0x16B58, offset: 0x16B58, size: 0x8, addend: 0x0, symName: __ZNSt3__115__debug_db_swapB7v160006INS_12basic_stringIcNS_11char_traitsIcEENS_9allocatorIcEEEEEEvPT_S8_, symObjAddr: 0xC00, symBinAddr: 0x100003280, symSize: 0x10 }
  - { offsetInCU: 0x16B97, offset: 0x16B97, size: 0x8, addend: 0x0, symName: __ZNSt3__13maxB7v160006ImEERKT_S3_S3_, symObjAddr: 0xFE0, symBinAddr: 0x100003660, symSize: 0x30 }
  - { offsetInCU: 0x16BDA, offset: 0x16BDA, size: 0x8, addend: 0x0, symName: __ZNSt3__13minB7v160006ImEERKT_S3_S3_, symObjAddr: 0x1010, symBinAddr: 0x100003690, symSize: 0x30 }
  - { offsetInCU: 0x16E07, offset: 0x16E07, size: 0x8, addend: 0x0, symName: __ZNSt3__13minB7v160006ImNS_6__lessImmEEEERKT_S5_S5_T0_, symObjAddr: 0x10A0, symBinAddr: 0x100003720, symSize: 0x50 }
  - { offsetInCU: 0x17088, offset: 0x17088, size: 0x8, addend: 0x0, symName: __ZNSt3__120__throw_length_errorB7v160006EPKc, symObjAddr: 0x1180, symBinAddr: 0x100003800, symSize: 0x70 }
  - { offsetInCU: 0x170B0, offset: 0x170B0, size: 0x8, addend: 0x0, symName: __ZNSt3__13maxB7v160006ImNS_6__lessImmEEEERKT_S5_S5_T0_, symObjAddr: 0x12B0, symBinAddr: 0x100003930, symSize: 0x50 }
  - { offsetInCU: 0x1710A, offset: 0x1710A, size: 0x8, addend: 0x0, symName: __ZNSt3__119__allocate_at_leastB7v160006INS_9allocatorINS_12basic_stringIcNS_11char_traitsIcEENS1_IcEEEEEEEENS_19__allocation_resultINS_16allocator_traitsIT_E7pointerEEERSA_m, symObjAddr: 0x13F0, symBinAddr: 0x100003A70, symSize: 0x40 }
  - { offsetInCU: 0x1714D, offset: 0x1714D, size: 0x8, addend: 0x0, symName: __ZNSt3__117__libcpp_allocateB7v160006Emm, symObjAddr: 0x1560, symBinAddr: 0x100003BE0, symSize: 0x60 }
  - { offsetInCU: 0x171A7, offset: 0x171A7, size: 0x8, addend: 0x0, symName: __ZNSt3__124__is_overaligned_for_newB7v160006Em, symObjAddr: 0x15C0, symBinAddr: 0x100003C40, symSize: 0x20 }
  - { offsetInCU: 0x171D5, offset: 0x171D5, size: 0x8, addend: 0x0, symName: __ZNSt3__121__libcpp_operator_newB7v160006IJmSt11align_val_tEEEPvDpT_, symObjAddr: 0x15E0, symBinAddr: 0x100003C60, symSize: 0x30 }
  - { offsetInCU: 0x17222, offset: 0x17222, size: 0x8, addend: 0x0, symName: __ZNSt3__121__libcpp_operator_newB7v160006IJmEEEPvDpT_, symObjAddr: 0x1610, symBinAddr: 0x100003C90, symSize: 0x20 }
  - { offsetInCU: 0x1725B, offset: 0x1725B, size: 0x8, addend: 0x0, symName: __ZNSt3__142__uninitialized_allocator_move_if_noexceptB7v160006INS_9allocatorINS_12basic_stringIcNS_11char_traitsIcEENS1_IcEEEEEENS_16reverse_iteratorIPS6_EESA_SA_EET2_RT_T0_T1_SB_, symObjAddr: 0x1740, symBinAddr: 0x100003DC0, symSize: 0x180 }
  - { offsetInCU: 0x172FA, offset: 0x172FA, size: 0x8, addend: 0x0, symName: __ZNSt3__14swapB7v160006IPNS_12basic_stringIcNS_11char_traitsIcEENS_9allocatorIcEEEEEENS_9enable_ifIXaasr21is_move_constructibleIT_EE5valuesr18is_move_assignableIS9_EE5valueEvE4typeERS9_SC_, symObjAddr: 0x1910, symBinAddr: 0x100003F90, symSize: 0x40 }
  - { offsetInCU: 0x1734B, offset: 0x1734B, size: 0x8, addend: 0x0, symName: __ZNSt3__125__debug_db_invalidate_allB7v160006INS_6vectorINS_12basic_stringIcNS_11char_traitsIcEENS_9allocatorIcEEEENS5_IS7_EEEEEEvPT_, symObjAddr: 0x19F0, symBinAddr: 0x100004070, symSize: 0x10 }
  - { offsetInCU: 0x1737C, offset: 0x1737C, size: 0x8, addend: 0x0, symName: __ZNSt3__122__make_exception_guardB7v160006INS_29_AllocatorDestroyRangeReverseINS_9allocatorINS_12basic_stringIcNS_11char_traitsIcEENS2_IcEEEEEENS_16reverse_iteratorIPS7_EEEEEENS_28__exception_guard_exceptionsIT_EESE_, symObjAddr: 0x1A40, symBinAddr: 0x1000040C0, symSize: 0x60 }
  - { offsetInCU: 0x173B1, offset: 0x173B1, size: 0x8, addend: 0x0, symName: __ZNSt3__1neB7v160006IPNS_12basic_stringIcNS_11char_traitsIcEENS_9allocatorIcEEEES7_EEbRKNS_16reverse_iteratorIT_EERKNS8_IT0_EE, symObjAddr: 0x1AE0, symBinAddr: 0x100004160, symSize: 0x40 }
  - { offsetInCU: 0x173FD, offset: 0x173FD, size: 0x8, addend: 0x0, symName: __ZNSt3__112__to_addressB7v160006INS_16reverse_iteratorIPNS_12basic_stringIcNS_11char_traitsIcEENS_9allocatorIcEEEEEEvEENS_5decayIDTclsr19__to_address_helperIT_EE6__callclsr3stdE7declvalIRKSB_EEEEE4typeESD_, symObjAddr: 0x1B20, symBinAddr: 0x1000041A0, symSize: 0x20 }
  - { offsetInCU: 0x1745C, offset: 0x1745C, size: 0x8, addend: 0x0, symName: __ZNSt3__14prevB7v160006IPNS_12basic_stringIcNS_11char_traitsIcEENS_9allocatorIcEEEEEENS_9enable_ifIXsr25__is_cpp17_input_iteratorIT_EE5valueES9_E4typeES9_NS_15iterator_traitsIS9_E15difference_typeE, symObjAddr: 0x1CF0, symBinAddr: 0x100004370, symSize: 0x50 }
  - { offsetInCU: 0x1749F, offset: 0x1749F, size: 0x8, addend: 0x0, symName: __ZNSt3__121__convert_to_integralB7v160006El, symObjAddr: 0x1D90, symBinAddr: 0x100004410, symSize: 0x10 }
  - { offsetInCU: 0x174CB, offset: 0x174CB, size: 0x8, addend: 0x0, symName: __ZNSt3__19__advanceB7v160006IPNS_12basic_stringIcNS_11char_traitsIcEENS_9allocatorIcEEEEEEvRT_NS_15iterator_traitsIS8_E15difference_typeENS_26random_access_iterator_tagE, symObjAddr: 0x1DA0, symBinAddr: 0x100004420, symSize: 0x20 }
  - { offsetInCU: 0x17514, offset: 0x17514, size: 0x8, addend: 0x0, symName: __ZNSt3__119__allocator_destroyB7v160006INS_9allocatorINS_12basic_stringIcNS_11char_traitsIcEENS1_IcEEEEEENS_16reverse_iteratorINS8_IPS6_EEEESB_EEvRT_T0_T1_, symObjAddr: 0x1EF0, symBinAddr: 0x100004570, symSize: 0x70 }
  - { offsetInCU: 0x17577, offset: 0x17577, size: 0x8, addend: 0x0, symName: __ZNSt3__1neB7v160006INS_16reverse_iteratorIPNS_12basic_stringIcNS_11char_traitsIcEENS_9allocatorIcEEEEEES9_EEbRKNS1_IT_EERKNS1_IT0_EE, symObjAddr: 0x1F90, symBinAddr: 0x100004610, symSize: 0x50 }
  - { offsetInCU: 0x175C3, offset: 0x175C3, size: 0x8, addend: 0x0, symName: __ZNSt3__112__to_addressB7v160006INS_16reverse_iteratorINS1_IPNS_12basic_stringIcNS_11char_traitsIcEENS_9allocatorIcEEEEEEEEvEENS_5decayIDTclsr19__to_address_helperIT_EE6__callclsr3stdE7declvalIRKSC_EEEEE4typeESE_, symObjAddr: 0x2000, symBinAddr: 0x100004680, symSize: 0x20 }
  - { offsetInCU: 0x175F9, offset: 0x175F9, size: 0x8, addend: 0x0, symName: __ZNSt3__110destroy_atB7v160006INS_12basic_stringIcNS_11char_traitsIcEENS_9allocatorIcEEEELi0EEEvPT_, symObjAddr: 0x2070, symBinAddr: 0x1000046F0, symSize: 0x20 }
  - { offsetInCU: 0x17630, offset: 0x17630, size: 0x8, addend: 0x0, symName: __ZNSt3__112__destroy_atB7v160006INS_12basic_stringIcNS_11char_traitsIcEENS_9allocatorIcEEEELi0EEEvPT_, symObjAddr: 0x2090, symBinAddr: 0x100004710, symSize: 0x20 }
  - { offsetInCU: 0x17690, offset: 0x17690, size: 0x8, addend: 0x0, symName: __ZNSt3__14prevB7v160006INS_16reverse_iteratorIPNS_12basic_stringIcNS_11char_traitsIcEENS_9allocatorIcEEEEEEEENS_9enable_ifIXsr25__is_cpp17_input_iteratorIT_EE5valueESB_E4typeESB_NS_15iterator_traitsISB_E15difference_typeE, symObjAddr: 0x2140, symBinAddr: 0x1000047C0, symSize: 0x60 }
  - { offsetInCU: 0x176D3, offset: 0x176D3, size: 0x8, addend: 0x0, symName: __ZNSt3__19__advanceB7v160006INS_16reverse_iteratorIPNS_12basic_stringIcNS_11char_traitsIcEENS_9allocatorIcEEEEEEEEvRT_NS_15iterator_traitsISA_E15difference_typeENS_26random_access_iterator_tagE, symObjAddr: 0x21F0, symBinAddr: 0x100004870, symSize: 0x30 }
  - { offsetInCU: 0x1771C, offset: 0x1771C, size: 0x8, addend: 0x0, symName: __ZNSt3__119__libcpp_deallocateB7v160006EPvmm, symObjAddr: 0x24E0, symBinAddr: 0x100004B60, symSize: 0x60 }
  - { offsetInCU: 0x17781, offset: 0x17781, size: 0x8, addend: 0x0, symName: __ZNSt3__127__do_deallocate_handle_sizeB7v160006IJSt11align_val_tEEEvPvmDpT_, symObjAddr: 0x2540, symBinAddr: 0x100004BC0, symSize: 0x30 }
  - { offsetInCU: 0x177D4, offset: 0x177D4, size: 0x8, addend: 0x0, symName: __ZNSt3__127__do_deallocate_handle_sizeB7v160006IJEEEvPvmDpT_, symObjAddr: 0x2570, symBinAddr: 0x100004BF0, symSize: 0x20 }
  - { offsetInCU: 0x17812, offset: 0x17812, size: 0x8, addend: 0x0, symName: __ZNSt3__124__libcpp_operator_deleteB7v160006IJPvSt11align_val_tEEEvDpT_, symObjAddr: 0x2590, symBinAddr: 0x100004C10, symSize: 0x30 }
  - { offsetInCU: 0x1785B, offset: 0x1785B, size: 0x8, addend: 0x0, symName: __ZNSt3__124__libcpp_operator_deleteB7v160006IJPvEEEvDpT_, symObjAddr: 0x25C0, symBinAddr: 0x100004C40, symSize: 0x20 }
  - { offsetInCU: 0x17890, offset: 0x17890, size: 0x8, addend: 0x0, symName: __ZNSt3__118__constexpr_strlenB7v160006EPKc, symObjAddr: 0x2770, symBinAddr: 0x100004DF0, symSize: 0x20 }
  - { offsetInCU: 0x178BC, offset: 0x178BC, size: 0x8, addend: 0x0, symName: __ZNSt3__112construct_atB7v160006INS_12basic_stringIcNS_11char_traitsIcEENS_9allocatorIcEEEEJRA6_KcEPS6_EEPT_SC_DpOT0_, symObjAddr: 0x2940, symBinAddr: 0x100004FC0, symSize: 0x40 }
  - { offsetInCU: 0x1792C, offset: 0x1792C, size: 0x8, addend: 0x0, symName: __ZNSt3__119__debug_db_insert_cB7v160006INS_6vectorINS_10shared_ptrI6WidgetEENS_9allocatorIS4_EEEEEEvPT_, symObjAddr: 0x2A10, symBinAddr: 0x100005090, symSize: 0x10 }
  - { offsetInCU: 0x1795D, offset: 0x1795D, size: 0x8, addend: 0x0, symName: __ZNSt3__112__to_addressB7v160006INS_10shared_ptrI6WidgetEEEEPT_S5_, symObjAddr: 0x2D00, symBinAddr: 0x100005380, symSize: 0x10 }
  - { offsetInCU: 0x179B7, offset: 0x179B7, size: 0x8, addend: 0x0, symName: __ZNSt3__112construct_atB7v160006INS_10shared_ptrI6WidgetEEJS3_EPS3_EEPT_S6_DpOT0_, symObjAddr: 0x2D70, symBinAddr: 0x1000053F0, symSize: 0x40 }
  - { offsetInCU: 0x17A27, offset: 0x17A27, size: 0x8, addend: 0x0, symName: __ZNSt3__119__allocate_at_leastB7v160006INS_9allocatorINS_10shared_ptrI6WidgetEEEEEENS_19__allocation_resultINS_16allocator_traitsIT_E7pointerEEERS8_m, symObjAddr: 0x3330, symBinAddr: 0x1000059B0, symSize: 0x40 }
  - { offsetInCU: 0x17A6A, offset: 0x17A6A, size: 0x8, addend: 0x0, symName: __ZNSt3__142__uninitialized_allocator_move_if_noexceptB7v160006INS_9allocatorINS_10shared_ptrI6WidgetEEEENS_16reverse_iteratorIPS4_EES8_S8_EET2_RT_T0_T1_S9_, symObjAddr: 0x3570, symBinAddr: 0x100005BF0, symSize: 0x180 }
  - { offsetInCU: 0x17B09, offset: 0x17B09, size: 0x8, addend: 0x0, symName: __ZNSt3__14swapB7v160006IPNS_10shared_ptrI6WidgetEEEENS_9enable_ifIXaasr21is_move_constructibleIT_EE5valuesr18is_move_assignableIS6_EE5valueEvE4typeERS6_S9_, symObjAddr: 0x3740, symBinAddr: 0x100005DC0, symSize: 0x40 }
  - { offsetInCU: 0x17B5A, offset: 0x17B5A, size: 0x8, addend: 0x0, symName: __ZNSt3__125__debug_db_invalidate_allB7v160006INS_6vectorINS_10shared_ptrI6WidgetEENS_9allocatorIS4_EEEEEEvPT_, symObjAddr: 0x3830, symBinAddr: 0x100005EB0, symSize: 0x10 }
  - { offsetInCU: 0x17B8B, offset: 0x17B8B, size: 0x8, addend: 0x0, symName: __ZNSt3__122__make_exception_guardB7v160006INS_29_AllocatorDestroyRangeReverseINS_9allocatorINS_10shared_ptrI6WidgetEEEENS_16reverse_iteratorIPS5_EEEEEENS_28__exception_guard_exceptionsIT_EESC_, symObjAddr: 0x3880, symBinAddr: 0x100005F00, symSize: 0x60 }
  - { offsetInCU: 0x17BC0, offset: 0x17BC0, size: 0x8, addend: 0x0, symName: __ZNSt3__1neB7v160006IPNS_10shared_ptrI6WidgetEES4_EEbRKNS_16reverse_iteratorIT_EERKNS5_IT0_EE, symObjAddr: 0x3920, symBinAddr: 0x100005FA0, symSize: 0x40 }
  - { offsetInCU: 0x17C0C, offset: 0x17C0C, size: 0x8, addend: 0x0, symName: __ZNSt3__112__to_addressB7v160006INS_16reverse_iteratorIPNS_10shared_ptrI6WidgetEEEEvEENS_5decayIDTclsr19__to_address_helperIT_EE6__callclsr3stdE7declvalIRKS8_EEEEE4typeESA_, symObjAddr: 0x3960, symBinAddr: 0x100005FE0, symSize: 0x20 }
  - { offsetInCU: 0x17C6B, offset: 0x17C6B, size: 0x8, addend: 0x0, symName: __ZNSt3__14prevB7v160006IPNS_10shared_ptrI6WidgetEEEENS_9enable_ifIXsr25__is_cpp17_input_iteratorIT_EE5valueES6_E4typeES6_NS_15iterator_traitsIS6_E15difference_typeE, symObjAddr: 0x3B30, symBinAddr: 0x1000061B0, symSize: 0x50 }
  - { offsetInCU: 0x17CAE, offset: 0x17CAE, size: 0x8, addend: 0x0, symName: __ZNSt3__19__advanceB7v160006IPNS_10shared_ptrI6WidgetEEEEvRT_NS_15iterator_traitsIS5_E15difference_typeENS_26random_access_iterator_tagE, symObjAddr: 0x3BD0, symBinAddr: 0x100006250, symSize: 0x20 }
  - { offsetInCU: 0x17CF7, offset: 0x17CF7, size: 0x8, addend: 0x0, symName: __ZNSt3__119__allocator_destroyB7v160006INS_9allocatorINS_10shared_ptrI6WidgetEEEENS_16reverse_iteratorINS6_IPS4_EEEES9_EEvRT_T0_T1_, symObjAddr: 0x3D20, symBinAddr: 0x1000063A0, symSize: 0x70 }
  - { offsetInCU: 0x17D5A, offset: 0x17D5A, size: 0x8, addend: 0x0, symName: __ZNSt3__1neB7v160006INS_16reverse_iteratorIPNS_10shared_ptrI6WidgetEEEES6_EEbRKNS1_IT_EERKNS1_IT0_EE, symObjAddr: 0x3DC0, symBinAddr: 0x100006440, symSize: 0x50 }
  - { offsetInCU: 0x17DA6, offset: 0x17DA6, size: 0x8, addend: 0x0, symName: __ZNSt3__112__to_addressB7v160006INS_16reverse_iteratorINS1_IPNS_10shared_ptrI6WidgetEEEEEEvEENS_5decayIDTclsr19__to_address_helperIT_EE6__callclsr3stdE7declvalIRKS9_EEEEE4typeESB_, symObjAddr: 0x3E30, symBinAddr: 0x1000064B0, symSize: 0x20 }
  - { offsetInCU: 0x17DDC, offset: 0x17DDC, size: 0x8, addend: 0x0, symName: __ZNSt3__110destroy_atB7v160006INS_10shared_ptrI6WidgetEELi0EEEvPT_, symObjAddr: 0x3EA0, symBinAddr: 0x100006520, symSize: 0x20 }
  - { offsetInCU: 0x17E13, offset: 0x17E13, size: 0x8, addend: 0x0, symName: __ZNSt3__112__destroy_atB7v160006INS_10shared_ptrI6WidgetEELi0EEEvPT_, symObjAddr: 0x3EC0, symBinAddr: 0x100006540, symSize: 0x20 }
  - { offsetInCU: 0x17E73, offset: 0x17E73, size: 0x8, addend: 0x0, symName: __ZNSt3__14prevB7v160006INS_16reverse_iteratorIPNS_10shared_ptrI6WidgetEEEEEENS_9enable_ifIXsr25__is_cpp17_input_iteratorIT_EE5valueES8_E4typeES8_NS_15iterator_traitsIS8_E15difference_typeE, symObjAddr: 0x3F70, symBinAddr: 0x1000065F0, symSize: 0x60 }
  - { offsetInCU: 0x17EB6, offset: 0x17EB6, size: 0x8, addend: 0x0, symName: __ZNSt3__19__advanceB7v160006INS_16reverse_iteratorIPNS_10shared_ptrI6WidgetEEEEEEvRT_NS_15iterator_traitsIS7_E15difference_typeENS_26random_access_iterator_tagE, symObjAddr: 0x4020, symBinAddr: 0x1000066A0, symSize: 0x30 }
  - { offsetInCU: 0x17EFF, offset: 0x17EFF, size: 0x8, addend: 0x0, symName: __ZNSt3__112construct_atB7v160006INS_10shared_ptrI6WidgetEEJPS2_RFvS4_EEPS3_EEPT_S9_DpOT0_, symObjAddr: 0x4520, symBinAddr: 0x100006BA0, symSize: 0x40 }
  - { offsetInCU: 0x17F82, offset: 0x17F82, size: 0x8, addend: 0x0, symName: __ZNSt3__119__debug_db_insert_cB7v160006INS_6vectorINS_11basic_regexIcNS_12regex_traitsIcEEEENS_9allocatorIS5_EEEEEEvPT_, symObjAddr: 0x45F0, symBinAddr: 0x100006C70, symSize: 0x10 }
  - { offsetInCU: 0x17FB3, offset: 0x17FB3, size: 0x8, addend: 0x0, symName: __ZNSt3__112__to_addressB7v160006INS_11basic_regexIcNS_12regex_traitsIcEEEEEEPT_S6_, symObjAddr: 0x4900, symBinAddr: 0x100006F80, symSize: 0x10 }
  - { offsetInCU: 0x1800D, offset: 0x1800D, size: 0x8, addend: 0x0, symName: __ZNSt3__112construct_atB7v160006INS_11basic_regexIcNS_12regex_traitsIcEEEEJDnEPS4_EEPT_S7_DpOT0_, symObjAddr: 0x4970, symBinAddr: 0x100006FF0, symSize: 0x40 }
  - { offsetInCU: 0x1807D, offset: 0x1807D, size: 0x8, addend: 0x0, symName: __ZNSt3__119__allocate_at_leastB7v160006INS_9allocatorINS_11basic_regexIcNS_12regex_traitsIcEEEEEEEENS_19__allocation_resultINS_16allocator_traitsIT_E7pointerEEERS9_m, symObjAddr: 0x4EC0, symBinAddr: 0x100007540, symSize: 0x40 }
  - { offsetInCU: 0x180C0, offset: 0x180C0, size: 0x8, addend: 0x0, symName: __ZNSt3__142__uninitialized_allocator_move_if_noexceptB7v160006INS_9allocatorINS_11basic_regexIcNS_12regex_traitsIcEEEEEENS_16reverse_iteratorIPS5_EES9_S9_EET2_RT_T0_T1_SA_, symObjAddr: 0x5100, symBinAddr: 0x100007780, symSize: 0x180 }
  - { offsetInCU: 0x1815F, offset: 0x1815F, size: 0x8, addend: 0x0, symName: __ZNSt3__14swapB7v160006IPNS_11basic_regexIcNS_12regex_traitsIcEEEEEENS_9enable_ifIXaasr21is_move_constructibleIT_EE5valuesr18is_move_assignableIS7_EE5valueEvE4typeERS7_SA_, symObjAddr: 0x52D0, symBinAddr: 0x100007950, symSize: 0x40 }
  - { offsetInCU: 0x181B0, offset: 0x181B0, size: 0x8, addend: 0x0, symName: __ZNSt3__125__debug_db_invalidate_allB7v160006INS_6vectorINS_11basic_regexIcNS_12regex_traitsIcEEEENS_9allocatorIS5_EEEEEEvPT_, symObjAddr: 0x53C0, symBinAddr: 0x100007A40, symSize: 0x10 }
  - { offsetInCU: 0x181E1, offset: 0x181E1, size: 0x8, addend: 0x0, symName: __ZNSt3__122__make_exception_guardB7v160006INS_29_AllocatorDestroyRangeReverseINS_9allocatorINS_11basic_regexIcNS_12regex_traitsIcEEEEEENS_16reverse_iteratorIPS6_EEEEEENS_28__exception_guard_exceptionsIT_EESD_, symObjAddr: 0x5410, symBinAddr: 0x100007A90, symSize: 0x60 }
  - { offsetInCU: 0x18216, offset: 0x18216, size: 0x8, addend: 0x0, symName: __ZNSt3__1neB7v160006IPNS_11basic_regexIcNS_12regex_traitsIcEEEES5_EEbRKNS_16reverse_iteratorIT_EERKNS6_IT0_EE, symObjAddr: 0x54B0, symBinAddr: 0x100007B30, symSize: 0x40 }
  - { offsetInCU: 0x18262, offset: 0x18262, size: 0x8, addend: 0x0, symName: __ZNSt3__112__to_addressB7v160006INS_16reverse_iteratorIPNS_11basic_regexIcNS_12regex_traitsIcEEEEEEvEENS_5decayIDTclsr19__to_address_helperIT_EE6__callclsr3stdE7declvalIRKS9_EEEEE4typeESB_, symObjAddr: 0x5520, symBinAddr: 0x100007BA0, symSize: 0x20 }
  - { offsetInCU: 0x18298, offset: 0x18298, size: 0x8, addend: 0x0, symName: __ZNSt3__112construct_atB7v160006INS_11basic_regexIcNS_12regex_traitsIcEEEEJS4_EPS4_EEPT_S7_DpOT0_, symObjAddr: 0x5680, symBinAddr: 0x100007D00, symSize: 0x40 }
  - { offsetInCU: 0x18331, offset: 0x18331, size: 0x8, addend: 0x0, symName: __ZNSt3__14prevB7v160006IPNS_11basic_regexIcNS_12regex_traitsIcEEEEEENS_9enable_ifIXsr25__is_cpp17_input_iteratorIT_EE5valueES7_E4typeES7_NS_15iterator_traitsIS7_E15difference_typeE, symObjAddr: 0x58A0, symBinAddr: 0x100007F20, symSize: 0x50 }
  - { offsetInCU: 0x18374, offset: 0x18374, size: 0x8, addend: 0x0, symName: __ZNSt3__19__advanceB7v160006IPNS_11basic_regexIcNS_12regex_traitsIcEEEEEEvRT_NS_15iterator_traitsIS6_E15difference_typeENS_26random_access_iterator_tagE, symObjAddr: 0x5940, symBinAddr: 0x100007FC0, symSize: 0x20 }
  - { offsetInCU: 0x183BD, offset: 0x183BD, size: 0x8, addend: 0x0, symName: __ZNSt3__119__allocator_destroyB7v160006INS_9allocatorINS_11basic_regexIcNS_12regex_traitsIcEEEEEENS_16reverse_iteratorINS7_IPS5_EEEESA_EEvRT_T0_T1_, symObjAddr: 0x5A90, symBinAddr: 0x100008110, symSize: 0x70 }
  - { offsetInCU: 0x18420, offset: 0x18420, size: 0x8, addend: 0x0, symName: __ZNSt3__1neB7v160006INS_16reverse_iteratorIPNS_11basic_regexIcNS_12regex_traitsIcEEEEEES7_EEbRKNS1_IT_EERKNS1_IT0_EE, symObjAddr: 0x5B30, symBinAddr: 0x1000081B0, symSize: 0x50 }
  - { offsetInCU: 0x1846C, offset: 0x1846C, size: 0x8, addend: 0x0, symName: __ZNSt3__112__to_addressB7v160006INS_16reverse_iteratorINS1_IPNS_11basic_regexIcNS_12regex_traitsIcEEEEEEEEvEENS_5decayIDTclsr19__to_address_helperIT_EE6__callclsr3stdE7declvalIRKSA_EEEEE4typeESC_, symObjAddr: 0x5BA0, symBinAddr: 0x100008220, symSize: 0x20 }
  - { offsetInCU: 0x184A2, offset: 0x184A2, size: 0x8, addend: 0x0, symName: __ZNSt3__110destroy_atB7v160006INS_11basic_regexIcNS_12regex_traitsIcEEEELi0EEEvPT_, symObjAddr: 0x5C10, symBinAddr: 0x100008290, symSize: 0x20 }
  - { offsetInCU: 0x184D9, offset: 0x184D9, size: 0x8, addend: 0x0, symName: __ZNSt3__112__destroy_atB7v160006INS_11basic_regexIcNS_12regex_traitsIcEEEELi0EEEvPT_, symObjAddr: 0x5C30, symBinAddr: 0x1000082B0, symSize: 0x20 }
  - { offsetInCU: 0x18539, offset: 0x18539, size: 0x8, addend: 0x0, symName: __ZNSt3__14prevB7v160006INS_16reverse_iteratorIPNS_11basic_regexIcNS_12regex_traitsIcEEEEEEEENS_9enable_ifIXsr25__is_cpp17_input_iteratorIT_EE5valueES9_E4typeES9_NS_15iterator_traitsIS9_E15difference_typeE, symObjAddr: 0x5CE0, symBinAddr: 0x100008360, symSize: 0x60 }
  - { offsetInCU: 0x1857C, offset: 0x1857C, size: 0x8, addend: 0x0, symName: __ZNSt3__19__advanceB7v160006INS_16reverse_iteratorIPNS_11basic_regexIcNS_12regex_traitsIcEEEEEEEEvRT_NS_15iterator_traitsIS8_E15difference_typeENS_26random_access_iterator_tagE, symObjAddr: 0x5D90, symBinAddr: 0x100008410, symSize: 0x30 }
  - { offsetInCU: 0x185C5, offset: 0x185C5, size: 0x8, addend: 0x0, symName: __ZNSt3__134__libcpp_atomic_refcount_decrementB7v160006IlEET_RS1_, symObjAddr: 0x61E0, symBinAddr: 0x100008860, symSize: 0x30 }
  - { offsetInCU: 0x185FA, offset: 0x185FA, size: 0x8, addend: 0x0, symName: __ZNSt3__118__debug_db_erase_cB7v160006INS_6vectorINS_11basic_regexIcNS_12regex_traitsIcEEEENS_9allocatorIS5_EEEEEEvPT_, symObjAddr: 0x6350, symBinAddr: 0x1000089D0, symSize: 0x10 }
  - { offsetInCU: 0x1862B, offset: 0x1862B, size: 0x8, addend: 0x0, symName: __ZNSt3__118__debug_db_erase_cB7v160006INS_6vectorINS_10shared_ptrI6WidgetEENS_9allocatorIS4_EEEEEEvPT_, symObjAddr: 0x6520, symBinAddr: 0x100008BA0, symSize: 0x10 }
  - { offsetInCU: 0x1865C, offset: 0x1865C, size: 0x8, addend: 0x0, symName: __ZNSt3__118__debug_db_erase_cB7v160006INS_6vectorINS_12basic_stringIcNS_11char_traitsIcEENS_9allocatorIcEEEENS5_IS7_EEEEEEvPT_, symObjAddr: 0x66F0, symBinAddr: 0x100008D70, symSize: 0x10 }
  - { offsetInCU: 0x18D5F, offset: 0x18D5F, size: 0x8, addend: 0x0, symName: __ZNSt3__19use_facetB7v160006INS_5ctypeIcEEEERKT_RKNS_6localeE, symObjAddr: 0x7200, symBinAddr: 0x100009880, symSize: 0x30 }
  - { offsetInCU: 0x18D96, offset: 0x18D96, size: 0x8, addend: 0x0, symName: __ZNSt3__19use_facetB7v160006INS_7collateIcEEEERKT_RKNS_6localeE, symObjAddr: 0x7230, symBinAddr: 0x1000098B0, symSize: 0x30 }
  - { offsetInCU: 0x18DCD, offset: 0x18DCD, size: 0x8, addend: 0x0, symName: __ZNSt3__119__throw_regex_errorB7v160006ILNS_15regex_constants10error_typeE17EEEvv, symObjAddr: 0x74F0, symBinAddr: 0x100009B70, symSize: 0x60 }
  - { offsetInCU: 0x1925E, offset: 0x1925E, size: 0x8, addend: 0x0, symName: __ZNSt3__119__throw_regex_errorB7v160006ILNS_15regex_constants10error_typeE14EEEvv, symObjAddr: 0x7C40, symBinAddr: 0x10000A2C0, symSize: 0x60 }
  - { offsetInCU: 0x19CA5, offset: 0x19CA5, size: 0x8, addend: 0x0, symName: __ZNSt3__14swapB7v160006IPNS_13__empty_stateIcEEEENS_9enable_ifIXaasr21is_move_constructibleIT_EE5valuesr18is_move_assignableIS5_EE5valueEvE4typeERS5_S8_, symObjAddr: 0x88A0, symBinAddr: 0x10000AF20, symSize: 0x40 }
  - { offsetInCU: 0x19CF6, offset: 0x19CF6, size: 0x8, addend: 0x0, symName: __ZNSt3__14swapB7v160006IPNS_19__shared_weak_countEEENS_9enable_ifIXaasr21is_move_constructibleIT_EE5valuesr18is_move_assignableIS4_EE5valueEvE4typeERS4_S7_, symObjAddr: 0x88E0, symBinAddr: 0x10000AF60, symSize: 0x40 }
  - { offsetInCU: 0x19D47, offset: 0x19D47, size: 0x8, addend: 0x0, symName: __ZNSt3__14nextB7v160006IPKcEENS_9enable_ifIXsr25__is_cpp17_input_iteratorIT_EE5valueES4_E4typeES4_NS_15iterator_traitsIS4_E15difference_typeE, symObjAddr: 0x9D70, symBinAddr: 0x10000C3F0, symSize: 0x50 }
  - { offsetInCU: 0x19D8A, offset: 0x19D8A, size: 0x8, addend: 0x0, symName: __ZNSt3__119__throw_regex_errorB7v160006ILNS_15regex_constants10error_typeE6EEEvv, symObjAddr: 0x9F70, symBinAddr: 0x10000C5F0, symSize: 0x60 }
  - { offsetInCU: 0x19E35, offset: 0x19E35, size: 0x8, addend: 0x0, symName: __ZNSt3__18__is_eolB7v160006IcEEbT_, symObjAddr: 0xA270, symBinAddr: 0x10000C8F0, symSize: 0x40 }
  - { offsetInCU: 0x19E6C, offset: 0x19E6C, size: 0x8, addend: 0x0, symName: __ZNSt3__14prevB7v160006IPKcEENS_9enable_ifIXsr25__is_cpp17_input_iteratorIT_EE5valueES4_E4typeES4_NS_15iterator_traitsIS4_E15difference_typeE, symObjAddr: 0xA2B0, symBinAddr: 0x10000C930, symSize: 0x50 }
  - { offsetInCU: 0x19EAF, offset: 0x19EAF, size: 0x8, addend: 0x0, symName: __ZNSt3__19__advanceB7v160006IPKcEEvRT_NS_15iterator_traitsIS3_E15difference_typeENS_26random_access_iterator_tagE, symObjAddr: 0xA350, symBinAddr: 0x10000C9D0, symSize: 0x20 }
  - { offsetInCU: 0x1A100, offset: 0x1A100, size: 0x8, addend: 0x0, symName: __ZNSt3__134__libcpp_atomic_refcount_incrementB7v160006IlEET_RS1_, symObjAddr: 0xAF90, symBinAddr: 0x10000D610, symSize: 0x30 }
  - { offsetInCU: 0x1A41C, offset: 0x1A41C, size: 0x8, addend: 0x0, symName: __ZNSt3__119__debug_db_insert_cB7v160006INS_6vectorINS_9sub_matchIPKcEENS_9allocatorIS5_EEEEEEvPT_, symObjAddr: 0xB9E0, symBinAddr: 0x10000E060, symSize: 0x10 }
  - { offsetInCU: 0x1A44D, offset: 0x1A44D, size: 0x8, addend: 0x0, symName: __ZNSt3__118__debug_db_erase_cB7v160006INS_6vectorINS_9sub_matchIPKcEENS_9allocatorIS5_EEEEEEvPT_, symObjAddr: 0xBC80, symBinAddr: 0x10000E300, symSize: 0x10 }
  - { offsetInCU: 0x1A47E, offset: 0x1A47E, size: 0x8, addend: 0x0, symName: __ZNSt3__112__to_addressB7v160006INS_9sub_matchIPKcEEEEPT_S6_, symObjAddr: 0xBDB0, symBinAddr: 0x10000E430, symSize: 0x10 }
  - { offsetInCU: 0x1A4B3, offset: 0x1A4B3, size: 0x8, addend: 0x0, symName: __ZNSt3__110destroy_atB7v160006INS_9sub_matchIPKcEELi0EEEvPT_, symObjAddr: 0xBE60, symBinAddr: 0x10000E4E0, symSize: 0x20 }
  - { offsetInCU: 0x1A4EA, offset: 0x1A4EA, size: 0x8, addend: 0x0, symName: __ZNSt3__112__destroy_atB7v160006INS_9sub_matchIPKcEELi0EEEvPT_, symObjAddr: 0xBE80, symBinAddr: 0x10000E500, symSize: 0x10 }
  - { offsetInCU: 0x1A521, offset: 0x1A521, size: 0x8, addend: 0x0, symName: __ZNSt3__16fill_nB7v160006IPNS_9sub_matchIPKcEEmS4_EET_S6_T0_RKT1_, symObjAddr: 0xC060, symBinAddr: 0x10000E6E0, symSize: 0x40 }
  - { offsetInCU: 0x1A584, offset: 0x1A584, size: 0x8, addend: 0x0, symName: __ZNSt3__125__debug_db_invalidate_allB7v160006INS_6vectorINS_9sub_matchIPKcEENS_9allocatorIS5_EEEEEEvPT_, symObjAddr: 0xC380, symBinAddr: 0x10000EA00, symSize: 0x10 }
  - { offsetInCU: 0x1A5B5, offset: 0x1A5B5, size: 0x8, addend: 0x0, symName: __ZNSt3__18__fill_nB7v160006IPNS_9sub_matchIPKcEEmS4_EET_S6_T0_RKT1_, symObjAddr: 0xC390, symBinAddr: 0x10000EA10, symSize: 0x60 }
  - { offsetInCU: 0x1A618, offset: 0x1A618, size: 0x8, addend: 0x0, symName: __ZNSt3__121__convert_to_integralB7v160006Em, symObjAddr: 0xC3F0, symBinAddr: 0x10000EA70, symSize: 0x10 }
  - { offsetInCU: 0x1A669, offset: 0x1A669, size: 0x8, addend: 0x0, symName: __ZNSt3__112construct_atB7v160006INS_9sub_matchIPKcEEJRKS4_EPS4_EEPT_S9_DpOT0_, symObjAddr: 0xC4C0, symBinAddr: 0x10000EB40, symSize: 0x40 }
  - { offsetInCU: 0x1A6D9, offset: 0x1A6D9, size: 0x8, addend: 0x0, symName: __ZNSt3__119__allocate_at_leastB7v160006INS_9allocatorINS_9sub_matchIPKcEEEEEENS_19__allocation_resultINS_16allocator_traitsIT_E7pointerEEERS9_m, symObjAddr: 0xC6F0, symBinAddr: 0x10000ED70, symSize: 0x40 }
  - { offsetInCU: 0x1A71C, offset: 0x1A71C, size: 0x8, addend: 0x0, symName: __ZNSt3__119__throw_regex_errorB7v160006ILNS_15regex_constants10error_typeE12EEEvv, symObjAddr: 0xCAA0, symBinAddr: 0x10000F120, symSize: 0x60 }
  - { offsetInCU: 0x1A741, offset: 0x1A741, size: 0x8, addend: 0x0, symName: __ZNSt3__119__throw_regex_errorB7v160006ILNS_15regex_constants10error_typeE16EEEvv, symObjAddr: 0xCB60, symBinAddr: 0x10000F1E0, symSize: 0x60 }
  - { offsetInCU: 0x1A766, offset: 0x1A766, size: 0x8, addend: 0x0, symName: __ZNSt3__119__debug_db_insert_cB7v160006INS_6vectorINS_7__stateIcEENS_9allocatorIS3_EEEEEEvPT_, symObjAddr: 0xCC90, symBinAddr: 0x10000F310, symSize: 0x10 }
  - { offsetInCU: 0x1A797, offset: 0x1A797, size: 0x8, addend: 0x0, symName: __ZNSt3__112__to_addressB7v160006INS_7__stateIcEEEEPT_S4_, symObjAddr: 0xCF80, symBinAddr: 0x10000F600, symSize: 0x10 }
  - { offsetInCU: 0x1A7F1, offset: 0x1A7F1, size: 0x8, addend: 0x0, symName: __ZNSt3__112construct_atB7v160006INS_7__stateIcEEJS2_EPS2_EEPT_S5_DpOT0_, symObjAddr: 0xCFF0, symBinAddr: 0x10000F670, symSize: 0x40 }
  - { offsetInCU: 0x1A861, offset: 0x1A861, size: 0x8, addend: 0x0, symName: __ZNSt3__115__debug_db_swapB7v160006INS_6vectorINS_9sub_matchIPKcEENS_9allocatorIS5_EEEEEEvPT_SA_, symObjAddr: 0xD260, symBinAddr: 0x10000F8E0, symSize: 0x10 }
  - { offsetInCU: 0x1A8A0, offset: 0x1A8A0, size: 0x8, addend: 0x0, symName: __ZNSt3__119__debug_db_insert_cB7v160006INS_6vectorINS_4pairImPKcEENS_9allocatorIS5_EEEEEEvPT_, symObjAddr: 0xD400, symBinAddr: 0x10000FA80, symSize: 0x10 }
  - { offsetInCU: 0x1A8D1, offset: 0x1A8D1, size: 0x8, addend: 0x0, symName: __ZNSt3__115__debug_db_swapB7v160006INS_6vectorINS_4pairImPKcEENS_9allocatorIS5_EEEEEEvPT_SA_, symObjAddr: 0xD410, symBinAddr: 0x10000FA90, symSize: 0x10 }
  - { offsetInCU: 0x1A910, offset: 0x1A910, size: 0x8, addend: 0x0, symName: __ZNSt3__119__allocate_at_leastB7v160006INS_9allocatorINS_7__stateIcEEEEEENS_19__allocation_resultINS_16allocator_traitsIT_E7pointerEEERS7_m, symObjAddr: 0xDA40, symBinAddr: 0x1000100C0, symSize: 0x40 }
  - { offsetInCU: 0x1A953, offset: 0x1A953, size: 0x8, addend: 0x0, symName: __ZNSt3__142__uninitialized_allocator_move_if_noexceptB7v160006INS_9allocatorINS_7__stateIcEEEENS_16reverse_iteratorIPS3_EES7_S7_EET2_RT_T0_T1_S8_, symObjAddr: 0xDC80, symBinAddr: 0x100010300, symSize: 0x180 }
  - { offsetInCU: 0x1A9F2, offset: 0x1A9F2, size: 0x8, addend: 0x0, symName: __ZNSt3__14swapB7v160006IPNS_7__stateIcEEEENS_9enable_ifIXaasr21is_move_constructibleIT_EE5valuesr18is_move_assignableIS5_EE5valueEvE4typeERS5_S8_, symObjAddr: 0xDE50, symBinAddr: 0x1000104D0, symSize: 0x40 }
  - { offsetInCU: 0x1AA43, offset: 0x1AA43, size: 0x8, addend: 0x0, symName: __ZNSt3__125__debug_db_invalidate_allB7v160006INS_6vectorINS_7__stateIcEENS_9allocatorIS3_EEEEEEvPT_, symObjAddr: 0xDF30, symBinAddr: 0x1000105B0, symSize: 0x10 }
  - { offsetInCU: 0x1AA74, offset: 0x1AA74, size: 0x8, addend: 0x0, symName: __ZNSt3__122__make_exception_guardB7v160006INS_29_AllocatorDestroyRangeReverseINS_9allocatorINS_7__stateIcEEEENS_16reverse_iteratorIPS4_EEEEEENS_28__exception_guard_exceptionsIT_EESB_, symObjAddr: 0xDF80, symBinAddr: 0x100010600, symSize: 0x60 }
  - { offsetInCU: 0x1AAA9, offset: 0x1AAA9, size: 0x8, addend: 0x0, symName: __ZNSt3__1neB7v160006IPNS_7__stateIcEES3_EEbRKNS_16reverse_iteratorIT_EERKNS4_IT0_EE, symObjAddr: 0xE020, symBinAddr: 0x1000106A0, symSize: 0x40 }
  - { offsetInCU: 0x1AAF5, offset: 0x1AAF5, size: 0x8, addend: 0x0, symName: __ZNSt3__112__to_addressB7v160006INS_16reverse_iteratorIPNS_7__stateIcEEEEvEENS_5decayIDTclsr19__to_address_helperIT_EE6__callclsr3stdE7declvalIRKS7_EEEEE4typeES9_, symObjAddr: 0xE060, symBinAddr: 0x1000106E0, symSize: 0x20 }
  - { offsetInCU: 0x1AB54, offset: 0x1AB54, size: 0x8, addend: 0x0, symName: __ZNSt3__14prevB7v160006IPNS_7__stateIcEEEENS_9enable_ifIXsr25__is_cpp17_input_iteratorIT_EE5valueES5_E4typeES5_NS_15iterator_traitsIS5_E15difference_typeE, symObjAddr: 0xE230, symBinAddr: 0x1000108B0, symSize: 0x50 }
  - { offsetInCU: 0x1AB97, offset: 0x1AB97, size: 0x8, addend: 0x0, symName: __ZNSt3__19__advanceB7v160006IPNS_7__stateIcEEEEvRT_NS_15iterator_traitsIS4_E15difference_typeENS_26random_access_iterator_tagE, symObjAddr: 0xE2D0, symBinAddr: 0x100010950, symSize: 0x20 }
  - { offsetInCU: 0x1ABE0, offset: 0x1ABE0, size: 0x8, addend: 0x0, symName: __ZNSt3__119__allocator_destroyB7v160006INS_9allocatorINS_7__stateIcEEEENS_16reverse_iteratorINS5_IPS3_EEEES8_EEvRT_T0_T1_, symObjAddr: 0xE420, symBinAddr: 0x100010AA0, symSize: 0x70 }
  - { offsetInCU: 0x1AC43, offset: 0x1AC43, size: 0x8, addend: 0x0, symName: __ZNSt3__1neB7v160006INS_16reverse_iteratorIPNS_7__stateIcEEEES5_EEbRKNS1_IT_EERKNS1_IT0_EE, symObjAddr: 0xE4C0, symBinAddr: 0x100010B40, symSize: 0x50 }
  - { offsetInCU: 0x1AC8F, offset: 0x1AC8F, size: 0x8, addend: 0x0, symName: __ZNSt3__112__to_addressB7v160006INS_16reverse_iteratorINS1_IPNS_7__stateIcEEEEEEvEENS_5decayIDTclsr19__to_address_helperIT_EE6__callclsr3stdE7declvalIRKS8_EEEEE4typeESA_, symObjAddr: 0xE530, symBinAddr: 0x100010BB0, symSize: 0x20 }
  - { offsetInCU: 0x1ACC5, offset: 0x1ACC5, size: 0x8, addend: 0x0, symName: __ZNSt3__110destroy_atB7v160006INS_7__stateIcEELi0EEEvPT_, symObjAddr: 0xE5A0, symBinAddr: 0x100010C20, symSize: 0x20 }
  - { offsetInCU: 0x1ACFC, offset: 0x1ACFC, size: 0x8, addend: 0x0, symName: __ZNSt3__112__destroy_atB7v160006INS_7__stateIcEELi0EEEvPT_, symObjAddr: 0xE5C0, symBinAddr: 0x100010C40, symSize: 0x20 }
  - { offsetInCU: 0x1AD5C, offset: 0x1AD5C, size: 0x8, addend: 0x0, symName: __ZNSt3__14prevB7v160006INS_16reverse_iteratorIPNS_7__stateIcEEEEEENS_9enable_ifIXsr25__is_cpp17_input_iteratorIT_EE5valueES7_E4typeES7_NS_15iterator_traitsIS7_E15difference_typeE, symObjAddr: 0xE670, symBinAddr: 0x100010CF0, symSize: 0x60 }
  - { offsetInCU: 0x1AD9F, offset: 0x1AD9F, size: 0x8, addend: 0x0, symName: __ZNSt3__19__advanceB7v160006INS_16reverse_iteratorIPNS_7__stateIcEEEEEEvRT_NS_15iterator_traitsIS6_E15difference_typeENS_26random_access_iterator_tagE, symObjAddr: 0xE720, symBinAddr: 0x100010DA0, symSize: 0x30 }
  - { offsetInCU: 0x1ADE8, offset: 0x1ADE8, size: 0x8, addend: 0x0, symName: __ZNSt3__118__debug_db_erase_cB7v160006INS_6vectorINS_4pairImPKcEENS_9allocatorIS5_EEEEEEvPT_, symObjAddr: 0xEF30, symBinAddr: 0x1000115B0, symSize: 0x10 }
  - { offsetInCU: 0x1AE19, offset: 0x1AE19, size: 0x8, addend: 0x0, symName: __ZNSt3__112__to_addressB7v160006INS_4pairImPKcEEEEPT_S6_, symObjAddr: 0xF020, symBinAddr: 0x1000116A0, symSize: 0x10 }
  - { offsetInCU: 0x1AE4E, offset: 0x1AE4E, size: 0x8, addend: 0x0, symName: __ZNSt3__110destroy_atB7v160006INS_4pairImPKcEELi0EEEvPT_, symObjAddr: 0xF0D0, symBinAddr: 0x100011750, symSize: 0x20 }
  - { offsetInCU: 0x1AE85, offset: 0x1AE85, size: 0x8, addend: 0x0, symName: __ZNSt3__112__destroy_atB7v160006INS_4pairImPKcEELi0EEEvPT_, symObjAddr: 0xF0F0, symBinAddr: 0x100011770, symSize: 0x10 }
  - { offsetInCU: 0x1AEBC, offset: 0x1AEBC, size: 0x8, addend: 0x0, symName: __ZNSt3__142__uninitialized_allocator_move_if_noexceptB7v160006INS_9allocatorINS_9sub_matchIPKcEEEENS_16reverse_iteratorIPS5_EES9_S9_EET2_RT_T0_T1_SA_, symObjAddr: 0xF780, symBinAddr: 0x100011E00, symSize: 0x180 }
  - { offsetInCU: 0x1AF5B, offset: 0x1AF5B, size: 0x8, addend: 0x0, symName: __ZNSt3__14swapB7v160006IPNS_9sub_matchIPKcEEEENS_9enable_ifIXaasr21is_move_constructibleIT_EE5valuesr18is_move_assignableIS7_EE5valueEvE4typeERS7_SA_, symObjAddr: 0xF950, symBinAddr: 0x100011FD0, symSize: 0x40 }
  - { offsetInCU: 0x1AFAC, offset: 0x1AFAC, size: 0x8, addend: 0x0, symName: __ZNSt3__122__make_exception_guardB7v160006INS_29_AllocatorDestroyRangeReverseINS_9allocatorINS_9sub_matchIPKcEEEENS_16reverse_iteratorIPS6_EEEEEENS_28__exception_guard_exceptionsIT_EESD_, symObjAddr: 0xF990, symBinAddr: 0x100012010, symSize: 0x60 }
  - { offsetInCU: 0x1AFE1, offset: 0x1AFE1, size: 0x8, addend: 0x0, symName: __ZNSt3__1neB7v160006IPNS_9sub_matchIPKcEES5_EEbRKNS_16reverse_iteratorIT_EERKNS6_IT0_EE, symObjAddr: 0xFA30, symBinAddr: 0x1000120B0, symSize: 0x40 }
  - { offsetInCU: 0x1B02D, offset: 0x1B02D, size: 0x8, addend: 0x0, symName: __ZNSt3__112__to_addressB7v160006INS_16reverse_iteratorIPNS_9sub_matchIPKcEEEEvEENS_5decayIDTclsr19__to_address_helperIT_EE6__callclsr3stdE7declvalIRKS9_EEEEE4typeESB_, symObjAddr: 0xFAA0, symBinAddr: 0x100012120, symSize: 0x20 }
  - { offsetInCU: 0x1B063, offset: 0x1B063, size: 0x8, addend: 0x0, symName: __ZNSt3__112construct_atB7v160006INS_9sub_matchIPKcEEJS4_EPS4_EEPT_S7_DpOT0_, symObjAddr: 0xFC00, symBinAddr: 0x100012280, symSize: 0x40 }
  - { offsetInCU: 0x1B0FC, offset: 0x1B0FC, size: 0x8, addend: 0x0, symName: __ZNSt3__14prevB7v160006IPNS_9sub_matchIPKcEEEENS_9enable_ifIXsr25__is_cpp17_input_iteratorIT_EE5valueES7_E4typeES7_NS_15iterator_traitsIS7_E15difference_typeE, symObjAddr: 0xFCB0, symBinAddr: 0x100012330, symSize: 0x50 }
  - { offsetInCU: 0x1B13F, offset: 0x1B13F, size: 0x8, addend: 0x0, symName: __ZNSt3__19__advanceB7v160006IPNS_9sub_matchIPKcEEEEvRT_NS_15iterator_traitsIS6_E15difference_typeENS_26random_access_iterator_tagE, symObjAddr: 0xFD50, symBinAddr: 0x1000123D0, symSize: 0x20 }
  - { offsetInCU: 0x1B188, offset: 0x1B188, size: 0x8, addend: 0x0, symName: __ZNSt3__119__allocator_destroyB7v160006INS_9allocatorINS_9sub_matchIPKcEEEENS_16reverse_iteratorINS7_IPS5_EEEESA_EEvRT_T0_T1_, symObjAddr: 0xFEA0, symBinAddr: 0x100012520, symSize: 0x70 }
  - { offsetInCU: 0x1B1EB, offset: 0x1B1EB, size: 0x8, addend: 0x0, symName: __ZNSt3__1neB7v160006INS_16reverse_iteratorIPNS_9sub_matchIPKcEEEES7_EEbRKNS1_IT_EERKNS1_IT0_EE, symObjAddr: 0xFF40, symBinAddr: 0x1000125C0, symSize: 0x50 }
  - { offsetInCU: 0x1B237, offset: 0x1B237, size: 0x8, addend: 0x0, symName: __ZNSt3__112__to_addressB7v160006INS_16reverse_iteratorINS1_IPNS_9sub_matchIPKcEEEEEEvEENS_5decayIDTclsr19__to_address_helperIT_EE6__callclsr3stdE7declvalIRKSA_EEEEE4typeESC_, symObjAddr: 0xFF90, symBinAddr: 0x100012610, symSize: 0x20 }
  - { offsetInCU: 0x1B296, offset: 0x1B296, size: 0x8, addend: 0x0, symName: __ZNSt3__14prevB7v160006INS_16reverse_iteratorIPNS_9sub_matchIPKcEEEEEENS_9enable_ifIXsr25__is_cpp17_input_iteratorIT_EE5valueES9_E4typeES9_NS_15iterator_traitsIS9_E15difference_typeE, symObjAddr: 0x10090, symBinAddr: 0x100012710, symSize: 0x60 }
  - { offsetInCU: 0x1B2D9, offset: 0x1B2D9, size: 0x8, addend: 0x0, symName: __ZNSt3__19__advanceB7v160006INS_16reverse_iteratorIPNS_9sub_matchIPKcEEEEEEvRT_NS_15iterator_traitsIS8_E15difference_typeENS_26random_access_iterator_tagE, symObjAddr: 0x10140, symBinAddr: 0x1000127C0, symSize: 0x30 }
  - { offsetInCU: 0x1B347, offset: 0x1B347, size: 0x8, addend: 0x0, symName: __ZNSt3__112construct_atB7v160006INS_4pairImPKcEEJEPS4_EEPT_S7_DpOT0_, symObjAddr: 0x109A0, symBinAddr: 0x100013020, symSize: 0x30 }
  - { offsetInCU: 0x1B3A3, offset: 0x1B3A3, size: 0x8, addend: 0x0, symName: __ZNSt3__119__allocate_at_leastB7v160006INS_9allocatorINS_4pairImPKcEEEEEENS_19__allocation_resultINS_16allocator_traitsIT_E7pointerEEERS9_m, symObjAddr: 0x10C20, symBinAddr: 0x1000132A0, symSize: 0x40 }
  - { offsetInCU: 0x1B3E6, offset: 0x1B3E6, size: 0x8, addend: 0x0, symName: __ZNSt3__142__uninitialized_allocator_move_if_noexceptB7v160006INS_9allocatorINS_4pairImPKcEEEENS_16reverse_iteratorIPS5_EES9_S9_EET2_RT_T0_T1_SA_, symObjAddr: 0x10E60, symBinAddr: 0x1000134E0, symSize: 0x180 }
  - { offsetInCU: 0x1B485, offset: 0x1B485, size: 0x8, addend: 0x0, symName: __ZNSt3__14swapB7v160006IPNS_4pairImPKcEEEENS_9enable_ifIXaasr21is_move_constructibleIT_EE5valuesr18is_move_assignableIS7_EE5valueEvE4typeERS7_SA_, symObjAddr: 0x11030, symBinAddr: 0x1000136B0, symSize: 0x40 }
  - { offsetInCU: 0x1B4D6, offset: 0x1B4D6, size: 0x8, addend: 0x0, symName: __ZNSt3__125__debug_db_invalidate_allB7v160006INS_6vectorINS_4pairImPKcEENS_9allocatorIS5_EEEEEEvPT_, symObjAddr: 0x11120, symBinAddr: 0x1000137A0, symSize: 0x10 }
  - { offsetInCU: 0x1B507, offset: 0x1B507, size: 0x8, addend: 0x0, symName: __ZNSt3__122__make_exception_guardB7v160006INS_29_AllocatorDestroyRangeReverseINS_9allocatorINS_4pairImPKcEEEENS_16reverse_iteratorIPS6_EEEEEENS_28__exception_guard_exceptionsIT_EESD_, symObjAddr: 0x11130, symBinAddr: 0x1000137B0, symSize: 0x60 }
  - { offsetInCU: 0x1B53C, offset: 0x1B53C, size: 0x8, addend: 0x0, symName: __ZNSt3__1neB7v160006IPNS_4pairImPKcEES5_EEbRKNS_16reverse_iteratorIT_EERKNS6_IT0_EE, symObjAddr: 0x111D0, symBinAddr: 0x100013850, symSize: 0x40 }
  - { offsetInCU: 0x1B588, offset: 0x1B588, size: 0x8, addend: 0x0, symName: __ZNSt3__112__to_addressB7v160006INS_16reverse_iteratorIPNS_4pairImPKcEEEEvEENS_5decayIDTclsr19__to_address_helperIT_EE6__callclsr3stdE7declvalIRKS9_EEEEE4typeESB_, symObjAddr: 0x11240, symBinAddr: 0x1000138C0, symSize: 0x20 }
  - { offsetInCU: 0x1B5BE, offset: 0x1B5BE, size: 0x8, addend: 0x0, symName: __ZNSt3__112construct_atB7v160006INS_4pairImPKcEEJS4_EPS4_EEPT_S7_DpOT0_, symObjAddr: 0x113A0, symBinAddr: 0x100013A20, symSize: 0x30 }
  - { offsetInCU: 0x1B657, offset: 0x1B657, size: 0x8, addend: 0x0, symName: __ZNSt3__14prevB7v160006IPNS_4pairImPKcEEEENS_9enable_ifIXsr25__is_cpp17_input_iteratorIT_EE5valueES7_E4typeES7_NS_15iterator_traitsIS7_E15difference_typeE, symObjAddr: 0x11440, symBinAddr: 0x100013AC0, symSize: 0x50 }
  - { offsetInCU: 0x1B69A, offset: 0x1B69A, size: 0x8, addend: 0x0, symName: __ZNSt3__19__advanceB7v160006IPNS_4pairImPKcEEEEvRT_NS_15iterator_traitsIS6_E15difference_typeENS_26random_access_iterator_tagE, symObjAddr: 0x114E0, symBinAddr: 0x100013B60, symSize: 0x20 }
  - { offsetInCU: 0x1B6E3, offset: 0x1B6E3, size: 0x8, addend: 0x0, symName: __ZNSt3__119__allocator_destroyB7v160006INS_9allocatorINS_4pairImPKcEEEENS_16reverse_iteratorINS7_IPS5_EEEESA_EEvRT_T0_T1_, symObjAddr: 0x11630, symBinAddr: 0x100013CB0, symSize: 0x70 }
  - { offsetInCU: 0x1B746, offset: 0x1B746, size: 0x8, addend: 0x0, symName: __ZNSt3__1neB7v160006INS_16reverse_iteratorIPNS_4pairImPKcEEEES7_EEbRKNS1_IT_EERKNS1_IT0_EE, symObjAddr: 0x116D0, symBinAddr: 0x100013D50, symSize: 0x50 }
  - { offsetInCU: 0x1B792, offset: 0x1B792, size: 0x8, addend: 0x0, symName: __ZNSt3__112__to_addressB7v160006INS_16reverse_iteratorINS1_IPNS_4pairImPKcEEEEEEvEENS_5decayIDTclsr19__to_address_helperIT_EE6__callclsr3stdE7declvalIRKSA_EEEEE4typeESC_, symObjAddr: 0x11720, symBinAddr: 0x100013DA0, symSize: 0x20 }
  - { offsetInCU: 0x1B7F1, offset: 0x1B7F1, size: 0x8, addend: 0x0, symName: __ZNSt3__14prevB7v160006INS_16reverse_iteratorIPNS_4pairImPKcEEEEEENS_9enable_ifIXsr25__is_cpp17_input_iteratorIT_EE5valueES9_E4typeES9_NS_15iterator_traitsIS9_E15difference_typeE, symObjAddr: 0x11820, symBinAddr: 0x100013EA0, symSize: 0x60 }
  - { offsetInCU: 0x1B834, offset: 0x1B834, size: 0x8, addend: 0x0, symName: __ZNSt3__19__advanceB7v160006INS_16reverse_iteratorIPNS_4pairImPKcEEEEEEvRT_NS_15iterator_traitsIS8_E15difference_typeENS_26random_access_iterator_tagE, symObjAddr: 0x118D0, symBinAddr: 0x100013F50, symSize: 0x30 }
  - { offsetInCU: 0x1B87D, offset: 0x1B87D, size: 0x8, addend: 0x0, symName: __ZNSt3__122__make_exception_guardB7v160006INS_6vectorINS_9sub_matchIPKcEENS_9allocatorIS5_EEE16__destroy_vectorEEENS_28__exception_guard_exceptionsIT_EESB_, symObjAddr: 0x11FD0, symBinAddr: 0x100014650, symSize: 0x40 }
  - { offsetInCU: 0x1B8B2, offset: 0x1B8B2, size: 0x8, addend: 0x0, symName: __ZNSt3__130__uninitialized_allocator_copyB7v160006INS_9allocatorINS_9sub_matchIPKcEEEEPS5_S7_S7_EET2_RT_T0_T1_S8_, symObjAddr: 0x12130, symBinAddr: 0x1000147B0, symSize: 0x100 }
  - { offsetInCU: 0x1B950, offset: 0x1B950, size: 0x8, addend: 0x0, symName: __ZNSt3__122__make_exception_guardB7v160006INS_29_AllocatorDestroyRangeReverseINS_9allocatorINS_9sub_matchIPKcEEEEPS6_EEEENS_28__exception_guard_exceptionsIT_EESB_, symObjAddr: 0x12230, symBinAddr: 0x1000148B0, symSize: 0x60 }
  - { offsetInCU: 0x1B985, offset: 0x1B985, size: 0x8, addend: 0x0, symName: __ZNSt3__112construct_atB7v160006INS_9sub_matchIPKcEEJRS4_EPS4_EEPT_S8_DpOT0_, symObjAddr: 0x123F0, symBinAddr: 0x100014A70, symSize: 0x40 }
  - { offsetInCU: 0x1B9F5, offset: 0x1B9F5, size: 0x8, addend: 0x0, symName: __ZNSt3__119__allocator_destroyB7v160006INS_9allocatorINS_9sub_matchIPKcEEEENS_16reverse_iteratorIPS5_EES9_EEvRT_T0_T1_, symObjAddr: 0x124D0, symBinAddr: 0x100014B50, symSize: 0x70 }
  - { offsetInCU: 0x1BA58, offset: 0x1BA58, size: 0x8, addend: 0x0, symName: __ZNSt3__122__make_exception_guardB7v160006INS_6vectorINS_4pairImPKcEENS_9allocatorIS5_EEE16__destroy_vectorEEENS_28__exception_guard_exceptionsIT_EESB_, symObjAddr: 0x126A0, symBinAddr: 0x100014D20, symSize: 0x40 }
  - { offsetInCU: 0x1BA8D, offset: 0x1BA8D, size: 0x8, addend: 0x0, symName: __ZNSt3__130__uninitialized_allocator_copyB7v160006INS_9allocatorINS_4pairImPKcEEEEPS5_S7_S7_EET2_RT_T0_T1_S8_, symObjAddr: 0x128A0, symBinAddr: 0x100014F20, symSize: 0x100 }
  - { offsetInCU: 0x1BB2B, offset: 0x1BB2B, size: 0x8, addend: 0x0, symName: __ZNSt3__122__make_exception_guardB7v160006INS_29_AllocatorDestroyRangeReverseINS_9allocatorINS_4pairImPKcEEEEPS6_EEEENS_28__exception_guard_exceptionsIT_EESB_, symObjAddr: 0x129A0, symBinAddr: 0x100015020, symSize: 0x60 }
  - { offsetInCU: 0x1BB60, offset: 0x1BB60, size: 0x8, addend: 0x0, symName: __ZNSt3__112construct_atB7v160006INS_4pairImPKcEEJRS4_EPS4_EEPT_S8_DpOT0_, symObjAddr: 0x12B60, symBinAddr: 0x1000151E0, symSize: 0x30 }
  - { offsetInCU: 0x1BBD0, offset: 0x1BBD0, size: 0x8, addend: 0x0, symName: __ZNSt3__119__allocator_destroyB7v160006INS_9allocatorINS_4pairImPKcEEEENS_16reverse_iteratorIPS5_EES9_EEvRT_T0_T1_, symObjAddr: 0x12C30, symBinAddr: 0x1000152B0, symSize: 0x70 }
  - { offsetInCU: 0x1BC33, offset: 0x1BC33, size: 0x8, addend: 0x0, symName: __ZNSt3__118__debug_db_erase_cB7v160006INS_6vectorINS_7__stateIcEENS_9allocatorIS3_EEEEEEvPT_, symObjAddr: 0x12E00, symBinAddr: 0x100015480, symSize: 0x10 }
  - { offsetInCU: 0x1BC64, offset: 0x1BC64, size: 0x8, addend: 0x0, symName: __ZNSt3__119__throw_regex_errorB7v160006ILNS_15regex_constants10error_typeE11EEEvv, symObjAddr: 0x13350, symBinAddr: 0x1000159D0, symSize: 0x60 }
  - { offsetInCU: 0x1BCFD, offset: 0x1BCFD, size: 0x8, addend: 0x0, symName: __ZNSt3__119__throw_regex_errorB7v160006ILNS_15regex_constants10error_typeE3EEEvv, symObjAddr: 0x13680, symBinAddr: 0x100015D00, symSize: 0x60 }
  - { offsetInCU: 0x1BF0D, offset: 0x1BF0D, size: 0x8, addend: 0x0, symName: __ZNSt3__119__throw_regex_errorB7v160006ILNS_15regex_constants10error_typeE4EEEvv, symObjAddr: 0x142A0, symBinAddr: 0x100016920, symSize: 0x60 }
  - { offsetInCU: 0x1C34C, offset: 0x1C34C, size: 0x8, addend: 0x0, symName: __ZNSt3__15equalB7v160006IPKcS2_EEbT_S3_T0_, symObjAddr: 0x152F0, symBinAddr: 0x100017970, symSize: 0x30 }
  - { offsetInCU: 0x1C3A6, offset: 0x1C3A6, size: 0x8, addend: 0x0, symName: __ZNSt3__15equalB7v160006IPKcS2_NS_10__equal_toEEEbT_S4_T0_T1_, symObjAddr: 0x15320, symBinAddr: 0x1000179A0, symSize: 0x80 }
  - { offsetInCU: 0x1C452, offset: 0x1C452, size: 0x8, addend: 0x0, symName: __ZNSt3__1eqB7v160006IcNS_11char_traitsIcEENS_9allocatorIcEEEEbRKNS_12basic_stringIT_T0_T1_EEPKS6_, symObjAddr: 0x158D0, symBinAddr: 0x100017F50, symSize: 0x60 }
  - { offsetInCU: 0x1C4AA, offset: 0x1C4AA, size: 0x8, addend: 0x0, symName: __ZNSt3__119__debug_db_insert_cB7v160006INS_6vectorIcNS_9allocatorIcEEEEEEvPT_, symObjAddr: 0x165C0, symBinAddr: 0x100018C40, symSize: 0x10 }
  - { offsetInCU: 0x1C4DB, offset: 0x1C4DB, size: 0x8, addend: 0x0, symName: __ZNSt3__119__debug_db_insert_cB7v160006INS_6vectorINS_4pairINS_12basic_stringIcNS_11char_traitsIcEENS_9allocatorIcEEEES8_EENS6_IS9_EEEEEEvPT_, symObjAddr: 0x166C0, symBinAddr: 0x100018D40, symSize: 0x10 }
  - { offsetInCU: 0x1C50C, offset: 0x1C50C, size: 0x8, addend: 0x0, symName: __ZNSt3__119__debug_db_insert_cB7v160006INS_6vectorINS_4pairIccEENS_9allocatorIS3_EEEEEEvPT_, symObjAddr: 0x16810, symBinAddr: 0x100018E90, symSize: 0x10 }
  - { offsetInCU: 0x1C53D, offset: 0x1C53D, size: 0x8, addend: 0x0, symName: __ZNSt3__1eqB7v160006IcNS_11char_traitsIcEEEEbNS_17basic_string_viewIT_T0_EES6_, symObjAddr: 0x168D0, symBinAddr: 0x100018F50, symSize: 0x90 }
  - { offsetInCU: 0x1C58C, offset: 0x1C58C, size: 0x8, addend: 0x0, symName: __ZNSt3__118__constexpr_memcmpB7v160006IcEEiPKT_S3_m, symObjAddr: 0x16B80, symBinAddr: 0x100019200, symSize: 0x30 }
  - { offsetInCU: 0x1C5DD, offset: 0x1C5DD, size: 0x8, addend: 0x0, symName: __ZNSt3__112__to_addressB7v160006IKcEEPT_S3_, symObjAddr: 0x16C60, symBinAddr: 0x1000192E0, symSize: 0x10 }
  - { offsetInCU: 0x1C645, offset: 0x1C645, size: 0x8, addend: 0x0, symName: __ZNSt3__128__char_traits_length_checkedB7v160006INS_11char_traitsIcEEEEmPKNT_9char_typeE, symObjAddr: 0x16E00, symBinAddr: 0x100019480, symSize: 0x20 }
  - { offsetInCU: 0x1C67A, offset: 0x1C67A, size: 0x8, addend: 0x0, symName: __ZNSt3__118__debug_db_erase_cB7v160006INS_6vectorINS_4pairIccEENS_9allocatorIS3_EEEEEEvPT_, symObjAddr: 0x16FF0, symBinAddr: 0x100019670, symSize: 0x10 }
  - { offsetInCU: 0x1C6AB, offset: 0x1C6AB, size: 0x8, addend: 0x0, symName: __ZNSt3__112__to_addressB7v160006INS_4pairIccEEEEPT_S4_, symObjAddr: 0x17100, symBinAddr: 0x100019780, symSize: 0x10 }
  - { offsetInCU: 0x1C6E0, offset: 0x1C6E0, size: 0x8, addend: 0x0, symName: __ZNSt3__110destroy_atB7v160006INS_4pairIccEELi0EEEvPT_, symObjAddr: 0x171B0, symBinAddr: 0x100019830, symSize: 0x20 }
  - { offsetInCU: 0x1C717, offset: 0x1C717, size: 0x8, addend: 0x0, symName: __ZNSt3__112__destroy_atB7v160006INS_4pairIccEELi0EEEvPT_, symObjAddr: 0x171D0, symBinAddr: 0x100019850, symSize: 0x10 }
  - { offsetInCU: 0x1C74E, offset: 0x1C74E, size: 0x8, addend: 0x0, symName: __ZNSt3__118__debug_db_erase_cB7v160006INS_6vectorINS_4pairINS_12basic_stringIcNS_11char_traitsIcEENS_9allocatorIcEEEES8_EENS6_IS9_EEEEEEvPT_, symObjAddr: 0x17470, symBinAddr: 0x100019AF0, symSize: 0x10 }
  - { offsetInCU: 0x1C77F, offset: 0x1C77F, size: 0x8, addend: 0x0, symName: __ZNSt3__112__to_addressB7v160006INS_4pairINS_12basic_stringIcNS_11char_traitsIcEENS_9allocatorIcEEEES7_EEEEPT_SA_, symObjAddr: 0x175A0, symBinAddr: 0x100019C20, symSize: 0x10 }
  - { offsetInCU: 0x1C7B4, offset: 0x1C7B4, size: 0x8, addend: 0x0, symName: __ZNSt3__110destroy_atB7v160006INS_4pairINS_12basic_stringIcNS_11char_traitsIcEENS_9allocatorIcEEEES7_EELi0EEEvPT_, symObjAddr: 0x17650, symBinAddr: 0x100019CD0, symSize: 0x20 }
  - { offsetInCU: 0x1C7EB, offset: 0x1C7EB, size: 0x8, addend: 0x0, symName: __ZNSt3__112__destroy_atB7v160006INS_4pairINS_12basic_stringIcNS_11char_traitsIcEENS_9allocatorIcEEEES7_EELi0EEEvPT_, symObjAddr: 0x17670, symBinAddr: 0x100019CF0, symSize: 0x20 }
  - { offsetInCU: 0x1C822, offset: 0x1C822, size: 0x8, addend: 0x0, symName: __ZNSt3__118__debug_db_erase_cB7v160006INS_6vectorIcNS_9allocatorIcEEEEEEvPT_, symObjAddr: 0x17970, symBinAddr: 0x100019FF0, symSize: 0x10 }
  - { offsetInCU: 0x1C853, offset: 0x1C853, size: 0x8, addend: 0x0, symName: __ZNSt3__112__to_addressB7v160006IcEEPT_S2_, symObjAddr: 0x17A80, symBinAddr: 0x10001A100, symSize: 0x10 }
  - { offsetInCU: 0x1C888, offset: 0x1C888, size: 0x8, addend: 0x0, symName: __ZNSt3__110destroy_atB7v160006IcLi0EEEvPT_, symObjAddr: 0x17B30, symBinAddr: 0x10001A1B0, symSize: 0x20 }
  - { offsetInCU: 0x1C8BF, offset: 0x1C8BF, size: 0x8, addend: 0x0, symName: __ZNSt3__112__destroy_atB7v160006IcLi0EEEvPT_, symObjAddr: 0x17B50, symBinAddr: 0x10001A1D0, symSize: 0x10 }
  - { offsetInCU: 0x1C8F6, offset: 0x1C8F6, size: 0x8, addend: 0x0, symName: __ZNSt3__1eqB7v160006IccEEbRKNS_4pairIT_T0_EES6_, symObjAddr: 0x17D40, symBinAddr: 0x10001A3C0, symSize: 0x50 }
  - { offsetInCU: 0x1C945, offset: 0x1C945, size: 0x8, addend: 0x0, symName: __ZNSt3__1leB7v160006ENS_15strong_orderingENS_20_CmpUnspecifiedParamE, symObjAddr: 0x17EE0, symBinAddr: 0x10001A560, symSize: 0x20 }
  - { offsetInCU: 0x1C97E, offset: 0x1C97E, size: 0x8, addend: 0x0, symName: __ZNSt3__1ssB7v160006IcNS_11char_traitsIcEENS_9allocatorIcEEEEDaRKNS_12basic_stringIT_T0_T1_EESC_, symObjAddr: 0x17F00, symBinAddr: 0x10001A580, symSize: 0x60 }
  - { offsetInCU: 0x1C9F2, offset: 0x1C9F2, size: 0x8, addend: 0x0, symName: __ZNSt3__1eqB7v160006INS_9allocatorIcEEEEbRKNS_12basic_stringIcNS_11char_traitsIcEET_EES9_, symObjAddr: 0x18010, symBinAddr: 0x10001A690, symSize: 0x110 }
  - { offsetInCU: 0x1CA65, offset: 0x1CA65, size: 0x8, addend: 0x0, symName: __ZNSt3__1neB7v160006IPKcEEbRKNS_11__wrap_iterIT_EES7_, symObjAddr: 0x18180, symBinAddr: 0x10001A800, symSize: 0x30 }
  - { offsetInCU: 0x1CAA8, offset: 0x1CAA8, size: 0x8, addend: 0x0, symName: __ZNSt3__14findB7v160006INS_11__wrap_iterIPKcEEcEET_S5_S5_RKT0_, symObjAddr: 0x181B0, symBinAddr: 0x10001A830, symSize: 0x80 }
  - { offsetInCU: 0x1CB1E, offset: 0x1CB1E, size: 0x8, addend: 0x0, symName: __ZNSt3__18distanceB7v160006IPcEENS_15iterator_traitsIT_E15difference_typeES3_S3_, symObjAddr: 0x18850, symBinAddr: 0x10001AED0, symSize: 0x30 }
  - { offsetInCU: 0x1CB61, offset: 0x1CB61, size: 0x8, addend: 0x0, symName: __ZNSt3__119__allocate_at_leastB7v160006INS_9allocatorIcEEEENS_19__allocation_resultINS_16allocator_traitsIT_E7pointerEEERS5_m, symObjAddr: 0x189E0, symBinAddr: 0x10001B060, symSize: 0x40 }
  - { offsetInCU: 0x1CBA4, offset: 0x1CBA4, size: 0x8, addend: 0x0, symName: __ZNSt3__110__distanceB7v160006IPcEENS_15iterator_traitsIT_E15difference_typeES3_S3_NS_26random_access_iterator_tagE, symObjAddr: 0x18BB0, symBinAddr: 0x10001B230, symSize: 0x20 }
  - { offsetInCU: 0x1CBF1, offset: 0x1CBF1, size: 0x8, addend: 0x0, symName: __ZNSt3__125__debug_db_invalidate_allB7v160006INS_12basic_stringIcNS_11char_traitsIcEENS_9allocatorIcEEEEEEvPT_, symObjAddr: 0x18F00, symBinAddr: 0x10001B580, symSize: 0x10 }
  - { offsetInCU: 0x1CC22, offset: 0x1CC22, size: 0x8, addend: 0x0, symName: __ZNSt3__1ssB7v160006IcNS_11char_traitsIcEEEEDaNS_17basic_string_viewIT_T0_EES7_, symObjAddr: 0x18F10, symBinAddr: 0x10001B590, symSize: 0x90 }
  - { offsetInCU: 0x1CC71, offset: 0x1CC71, size: 0x8, addend: 0x0, symName: __ZNSt3__1eqB7v160006IPKcEEbRKNS_11__wrap_iterIT_EES7_, symObjAddr: 0x191B0, symBinAddr: 0x10001B830, symSize: 0x40 }
  - { offsetInCU: 0x1CCD9, offset: 0x1CCD9, size: 0x8, addend: 0x0, symName: __ZNSt3__112construct_atB7v160006IcJcEPcEEPT_S3_DpOT0_, symObjAddr: 0x19650, symBinAddr: 0x10001BCD0, symSize: 0x30 }
  - { offsetInCU: 0x1CD49, offset: 0x1CD49, size: 0x8, addend: 0x0, symName: __ZNSt3__142__uninitialized_allocator_move_if_noexceptB7v160006INS_9allocatorIcEENS_16reverse_iteratorIPcEES5_cvEET1_RT_T0_S9_S6_, symObjAddr: 0x19B80, symBinAddr: 0x10001C200, symSize: 0x70 }
  - { offsetInCU: 0x1CDC5, offset: 0x1CDC5, size: 0x8, addend: 0x0, symName: __ZNSt3__14swapB7v160006IPcEENS_9enable_ifIXaasr21is_move_constructibleIT_EE5valuesr18is_move_assignableIS3_EE5valueEvE4typeERS3_S6_, symObjAddr: 0x19C40, symBinAddr: 0x10001C2C0, symSize: 0x40 }
  - { offsetInCU: 0x1CE16, offset: 0x1CE16, size: 0x8, addend: 0x0, symName: __ZNSt3__125__debug_db_invalidate_allB7v160006INS_6vectorIcNS_9allocatorIcEEEEEEvPT_, symObjAddr: 0x19D20, symBinAddr: 0x10001C3A0, symSize: 0x10 }
  - { offsetInCU: 0x1CE47, offset: 0x1CE47, size: 0x8, addend: 0x0, symName: __ZNSt3__14moveB7v160006INS_16reverse_iteratorIPcEES3_EET0_T_S5_S4_, symObjAddr: 0x19D30, symBinAddr: 0x10001C3B0, symSize: 0x80 }
  - { offsetInCU: 0x1CEA1, offset: 0x1CEA1, size: 0x8, addend: 0x0, symName: __ZNSt3__16__moveB7v160006INS_17_ClassicAlgPolicyENS_16reverse_iteratorIPcEES4_S4_EENS_4pairIT0_T2_EES6_T1_S7_, symObjAddr: 0x19DB0, symBinAddr: 0x10001C430, symSize: 0x90 }
  - { offsetInCU: 0x1CF0D, offset: 0x1CF0D, size: 0x8, addend: 0x0, symName: __ZNSt3__123__dispatch_copy_or_moveB7v160006INS_17_ClassicAlgPolicyENS_11__move_loopIS1_EENS_14__move_trivialENS_16reverse_iteratorIPcEES7_S7_EENS_4pairIT2_T4_EES9_T3_SA_, symObjAddr: 0x19E40, symBinAddr: 0x10001C4C0, symSize: 0x90 }
  - { offsetInCU: 0x1CF8B, offset: 0x1CF8B, size: 0x8, addend: 0x0, symName: __ZNSt3__121__unwrap_and_dispatchB7v160006INS_10__overloadINS_11__move_loopINS_17_ClassicAlgPolicyEEENS_14__move_trivialEEENS_16reverse_iteratorIPcEES9_S9_Li0EEENS_4pairIT0_T2_EESB_T1_SC_, symObjAddr: 0x19ED0, symBinAddr: 0x10001C550, symSize: 0x210 }
  - { offsetInCU: 0x1D01A, offset: 0x1D01A, size: 0x8, addend: 0x0, symName: __ZNSt3__114__unwrap_rangeB7v160006INS_16reverse_iteratorIPcEES3_EEDaT_T0_, symObjAddr: 0x1A0E0, symBinAddr: 0x10001C760, symSize: 0x60 }
  - { offsetInCU: 0x1D195, offset: 0x1D195, size: 0x8, addend: 0x0, symName: __ZNSt3__113__unwrap_iterB7v160006INS_16reverse_iteratorIPcEENS_18__unwrap_iter_implIS3_Lb0EEELi0EEEDTclsrT0_8__unwrapclsr3stdE7declvalIT_EEEES7_, symObjAddr: 0x1A1E0, symBinAddr: 0x10001C860, symSize: 0x40 }
  - { offsetInCU: 0x1D1D9, offset: 0x1D1D9, size: 0x8, addend: 0x0, symName: __ZNSt3__19make_pairB7v160006INS_16reverse_iteratorIPcEES3_EENS_4pairINS_18__unwrap_ref_decayIT_E4typeENS5_IT0_E4typeEEEOS6_OS9_, symObjAddr: 0x1A220, symBinAddr: 0x10001C8A0, symSize: 0x30 }
  - { offsetInCU: 0x1D228, offset: 0x1D228, size: 0x8, addend: 0x0, symName: __ZNSt3__114__rewrap_rangeB7v160006INS_16reverse_iteratorIPcEES3_S3_EET0_S4_T1_, symObjAddr: 0x1A250, symBinAddr: 0x10001C8D0, symSize: 0x60 }
  - { offsetInCU: 0x1D27D, offset: 0x1D27D, size: 0x8, addend: 0x0, symName: __ZNSt3__113__rewrap_iterB7v160006INS_16reverse_iteratorIPcEES3_NS_18__unwrap_iter_implIS3_Lb0EEEEET_S6_T0_, symObjAddr: 0x1A2B0, symBinAddr: 0x10001C930, symSize: 0x70 }
  - { offsetInCU: 0x1D322, offset: 0x1D322, size: 0x8, addend: 0x0, symName: __ZNSt3__1neB7v160006IPcS1_EEbRKNS_16reverse_iteratorIT_EERKNS2_IT0_EE, symObjAddr: 0x1A420, symBinAddr: 0x10001CAA0, symSize: 0x40 }
  - { offsetInCU: 0x1D43F, offset: 0x1D43F, size: 0x8, addend: 0x0, symName: __ZNSt3__112construct_atB7v160006IcJRKcEPcEEPT_S5_DpOT0_, symObjAddr: 0x1A900, symBinAddr: 0x10001CF80, symSize: 0x30 }
  - { offsetInCU: 0x1D4AF, offset: 0x1D4AF, size: 0x8, addend: 0x0, symName: __ZNSt3__17__is_07B7v160006Eh, symObjAddr: 0x1AA60, symBinAddr: 0x10001D0E0, symSize: 0x20 }
  - { offsetInCU: 0x1D4DD, offset: 0x1D4DD, size: 0x8, addend: 0x0, symName: __ZNSt3__17__is_89B7v160006Eh, symObjAddr: 0x1AA80, symBinAddr: 0x10001D100, symSize: 0x20 }
  - { offsetInCU: 0x1D50B, offset: 0x1D50B, size: 0x8, addend: 0x0, symName: __ZNSt3__110__to_lowerB7v160006Eh, symObjAddr: 0x1AAA0, symBinAddr: 0x10001D120, symSize: 0x20 }
  - { offsetInCU: 0x1D539, offset: 0x1D539, size: 0x8, addend: 0x0, symName: __ZNSt3__119__throw_regex_errorB7v160006ILNS_15regex_constants10error_typeE5EEEvv, symObjAddr: 0x1AAC0, symBinAddr: 0x10001D140, symSize: 0x60 }
  - { offsetInCU: 0x1D55E, offset: 0x1D55E, size: 0x8, addend: 0x0, symName: __ZNSt3__16searchB7v160006IPKcPcEET_S4_S4_T0_S5_, symObjAddr: 0x1C460, symBinAddr: 0x10001EAE0, symSize: 0x40 }
  - { offsetInCU: 0x1D5C6, offset: 0x1D5C6, size: 0x8, addend: 0x0, symName: __ZNSt3__119__throw_regex_errorB7v160006ILNS_15regex_constants10error_typeE1EEEvv, symObjAddr: 0x1C4E0, symBinAddr: 0x10001EB60, symSize: 0x60 }
  - { offsetInCU: 0x1D5EB, offset: 0x1D5EB, size: 0x8, addend: 0x0, symName: __ZNSt3__16searchB7v160006IPKcPcNS_10__equal_toEEET_S5_S5_T0_S6_T1_, symObjAddr: 0x1C660, symBinAddr: 0x10001ECE0, symSize: 0x70 }
  - { offsetInCU: 0x1D678, offset: 0x1D678, size: 0x8, addend: 0x0, symName: __ZNSt3__113__search_implB7v160006IPKcS2_PcS3_NS_10__equal_toENS_10__identityES5_EENS_4pairIT_S7_EES7_T0_T1_T2_RT3_RT4_RT5_PNS_9enable_ifIXaasr33__is_cpp17_random_access_iteratorIS7_EE5valuesr33__is_cpp17_random_access_iteratorISA_EE5valueEvE4typeE, symObjAddr: 0x1C6D0, symBinAddr: 0x10001ED50, symSize: 0xE0 }
  - { offsetInCU: 0x1D75F, offset: 0x1D75F, size: 0x8, addend: 0x0, symName: __ZNSt3__19make_pairB7v160006IRPKcS3_EENS_4pairINS_18__unwrap_ref_decayIT_E4typeENS5_IT0_E4typeEEEOS6_OS9_, symObjAddr: 0x1C7B0, symBinAddr: 0x10001EE30, symSize: 0x30 }
  - { offsetInCU: 0x1D7AE, offset: 0x1D7AE, size: 0x8, addend: 0x0, symName: __ZNSt3__127__search_random_access_implB7v160006INS_17_ClassicAlgPolicyEPKcS3_PcS4_NS_10__equal_toENS_10__identityES6_llEENS_4pairIT0_S8_EES8_T1_T2_T3_RT4_RT5_RT6_T7_T8_, symObjAddr: 0x1C7E0, symBinAddr: 0x10001EE60, symSize: 0x1A0 }
  - { offsetInCU: 0x1D8DF, offset: 0x1D8DF, size: 0x8, addend: 0x0, symName: __ZNSt3__18__invokeB7v160006IRNS_10__equal_toEJRKcRcEEEDTclclsr3stdE7declvalIT_EEspclsr3stdE7declvalIT0_EEEEOS6_DpOS7_, symObjAddr: 0x1CA00, symBinAddr: 0x10001F080, symSize: 0x30 }
  - { offsetInCU: 0x1D944, offset: 0x1D944, size: 0x8, addend: 0x0, symName: __ZNSt3__18__invokeB7v160006IRNS_10__identityEJRKcEEEDTclclsr3stdE7declvalIT_EEspclsr3stdE7declvalIT0_EEEEOS5_DpOS6_, symObjAddr: 0x1CA30, symBinAddr: 0x10001F0B0, symSize: 0x30 }
  - { offsetInCU: 0x1D995, offset: 0x1D995, size: 0x8, addend: 0x0, symName: __ZNSt3__18__invokeB7v160006IRNS_10__identityEJRcEEEDTclclsr3stdE7declvalIT_EEspclsr3stdE7declvalIT0_EEEEOS4_DpOS5_, symObjAddr: 0x1CA60, symBinAddr: 0x10001F0E0, symSize: 0x30 }
  - { offsetInCU: 0x1D9E6, offset: 0x1D9E6, size: 0x8, addend: 0x0, symName: __ZNSt3__19make_pairB7v160006IRPKcS2_EENS_4pairINS_18__unwrap_ref_decayIT_E4typeENS5_IT0_E4typeEEEOS6_OS9_, symObjAddr: 0x1CA90, symBinAddr: 0x10001F110, symSize: 0x30 }
  - { offsetInCU: 0x1DA85, offset: 0x1DA85, size: 0x8, addend: 0x0, symName: __ZNSt3__18distanceB7v160006IPKcEENS_15iterator_traitsIT_E15difference_typeES4_S4_, symObjAddr: 0x1CF80, symBinAddr: 0x10001F600, symSize: 0x30 }
  - { offsetInCU: 0x1DAC8, offset: 0x1DAC8, size: 0x8, addend: 0x0, symName: __ZNSt3__110__distanceB7v160006IPKcEENS_15iterator_traitsIT_E15difference_typeES4_S4_NS_26random_access_iterator_tagE, symObjAddr: 0x1CFB0, symBinAddr: 0x10001F630, symSize: 0x20 }
  - { offsetInCU: 0x1DB15, offset: 0x1DB15, size: 0x8, addend: 0x0, symName: __ZNSt3__18distanceB7v160006INS_11__wrap_iterIPcEEEENS_15iterator_traitsIT_E15difference_typeES5_S5_, symObjAddr: 0x1D3C0, symBinAddr: 0x10001FA40, symSize: 0x40 }
  - { offsetInCU: 0x1DB58, offset: 0x1DB58, size: 0x8, addend: 0x0, symName: __ZNSt3__1neB7v160006IPcEEbRKNS_11__wrap_iterIT_EES6_, symObjAddr: 0x1D400, symBinAddr: 0x10001FA80, symSize: 0x30 }
  - { offsetInCU: 0x1DB9B, offset: 0x1DB9B, size: 0x8, addend: 0x0, symName: __ZNSt3__110__distanceB7v160006INS_11__wrap_iterIPcEEEENS_15iterator_traitsIT_E15difference_typeES5_S5_NS_26random_access_iterator_tagE, symObjAddr: 0x1D470, symBinAddr: 0x10001FAF0, symSize: 0x30 }
  - { offsetInCU: 0x1DBE8, offset: 0x1DBE8, size: 0x8, addend: 0x0, symName: __ZNSt3__1miB7v160006IPcS1_EEDTmicldtfp_4baseEcldtfp0_4baseEERKNS_11__wrap_iterIT_EERKNS3_IT0_EE, symObjAddr: 0x1D4A0, symBinAddr: 0x10001FB20, symSize: 0x40 }
  - { offsetInCU: 0x1DC34, offset: 0x1DC34, size: 0x8, addend: 0x0, symName: __ZNSt3__1eqB7v160006IPcEEbRKNS_11__wrap_iterIT_EES6_, symObjAddr: 0x1D500, symBinAddr: 0x10001FB80, symSize: 0x40 }
  - { offsetInCU: 0x1DC77, offset: 0x1DC77, size: 0x8, addend: 0x0, symName: __ZNSt3__112construct_atB7v160006INS_12basic_stringIcNS_11char_traitsIcEENS_9allocatorIcEEEEJRKS6_EPS6_EEPT_SB_DpOT0_, symObjAddr: 0x1D7B0, symBinAddr: 0x10001FE30, symSize: 0x40 }
  - { offsetInCU: 0x1DCE7, offset: 0x1DCE7, size: 0x8, addend: 0x0, symName: __ZNSt3__119__throw_regex_errorB7v160006ILNS_15regex_constants10error_typeE2EEEvv, symObjAddr: 0x1D830, symBinAddr: 0x10001FEB0, symSize: 0x60 }
  - { offsetInCU: 0x1DD0C, offset: 0x1DD0C, size: 0x8, addend: 0x0, symName: __ZNSt3__19make_pairB7v160006INS_12basic_stringIcNS_11char_traitsIcEENS_9allocatorIcEEEES6_EENS_4pairINS_18__unwrap_ref_decayIT_E4typeENS8_IT0_E4typeEEEOS9_OSC_, symObjAddr: 0x1DAF0, symBinAddr: 0x100020170, symSize: 0x40 }
  - { offsetInCU: 0x1DD5B, offset: 0x1DD5B, size: 0x8, addend: 0x0, symName: __ZNSt3__119__throw_regex_errorB7v160006ILNS_15regex_constants10error_typeE9EEEvv, symObjAddr: 0x1DC60, symBinAddr: 0x1000202E0, symSize: 0x60 }
  - { offsetInCU: 0x1DDA5, offset: 0x1DDA5, size: 0x8, addend: 0x0, symName: __ZNSt3__112construct_atB7v160006INS_4pairINS_12basic_stringIcNS_11char_traitsIcEENS_9allocatorIcEEEES7_EEJS8_EPS8_EEPT_SB_DpOT0_, symObjAddr: 0x1DF30, symBinAddr: 0x1000205B0, symSize: 0x40 }
  - { offsetInCU: 0x1DE15, offset: 0x1DE15, size: 0x8, addend: 0x0, symName: __ZNSt3__119__allocate_at_leastB7v160006INS_9allocatorINS_4pairINS_12basic_stringIcNS_11char_traitsIcEENS1_IcEEEES7_EEEEEENS_19__allocation_resultINS_16allocator_traitsIT_E7pointerEEERSC_m, symObjAddr: 0x1E420, symBinAddr: 0x100020AA0, symSize: 0x40 }
  - { offsetInCU: 0x1DE58, offset: 0x1DE58, size: 0x8, addend: 0x0, symName: __ZNSt3__142__uninitialized_allocator_move_if_noexceptB7v160006INS_9allocatorINS_4pairINS_12basic_stringIcNS_11char_traitsIcEENS1_IcEEEES7_EEEENS_16reverse_iteratorIPS8_EESC_SC_EET2_RT_T0_T1_SD_, symObjAddr: 0x1E5B0, symBinAddr: 0x100020C30, symSize: 0x180 }
  - { offsetInCU: 0x1DEF7, offset: 0x1DEF7, size: 0x8, addend: 0x0, symName: __ZNSt3__14swapB7v160006IPNS_4pairINS_12basic_stringIcNS_11char_traitsIcEENS_9allocatorIcEEEES7_EEEENS_9enable_ifIXaasr21is_move_constructibleIT_EE5valuesr18is_move_assignableISB_EE5valueEvE4typeERSB_SE_, symObjAddr: 0x1E780, symBinAddr: 0x100020E00, symSize: 0x40 }
  - { offsetInCU: 0x1DF48, offset: 0x1DF48, size: 0x8, addend: 0x0, symName: __ZNSt3__125__debug_db_invalidate_allB7v160006INS_6vectorINS_4pairINS_12basic_stringIcNS_11char_traitsIcEENS_9allocatorIcEEEES8_EENS6_IS9_EEEEEEvPT_, symObjAddr: 0x1E860, symBinAddr: 0x100020EE0, symSize: 0x10 }
  - { offsetInCU: 0x1DF79, offset: 0x1DF79, size: 0x8, addend: 0x0, symName: __ZNSt3__122__make_exception_guardB7v160006INS_29_AllocatorDestroyRangeReverseINS_9allocatorINS_4pairINS_12basic_stringIcNS_11char_traitsIcEENS2_IcEEEES8_EEEENS_16reverse_iteratorIPS9_EEEEEENS_28__exception_guard_exceptionsIT_EESG_, symObjAddr: 0x1E870, symBinAddr: 0x100020EF0, symSize: 0x60 }
  - { offsetInCU: 0x1DFAE, offset: 0x1DFAE, size: 0x8, addend: 0x0, symName: __ZNSt3__1neB7v160006IPNS_4pairINS_12basic_stringIcNS_11char_traitsIcEENS_9allocatorIcEEEES7_EES9_EEbRKNS_16reverse_iteratorIT_EERKNSA_IT0_EE, symObjAddr: 0x1E910, symBinAddr: 0x100020F90, symSize: 0x40 }
  - { offsetInCU: 0x1DFFA, offset: 0x1DFFA, size: 0x8, addend: 0x0, symName: __ZNSt3__112__to_addressB7v160006INS_16reverse_iteratorIPNS_4pairINS_12basic_stringIcNS_11char_traitsIcEENS_9allocatorIcEEEES8_EEEEvEENS_5decayIDTclsr19__to_address_helperIT_EE6__callclsr3stdE7declvalIRKSD_EEEEE4typeESF_, symObjAddr: 0x1E950, symBinAddr: 0x100020FD0, symSize: 0x20 }
  - { offsetInCU: 0x1E059, offset: 0x1E059, size: 0x8, addend: 0x0, symName: __ZNSt3__14prevB7v160006IPNS_4pairINS_12basic_stringIcNS_11char_traitsIcEENS_9allocatorIcEEEES7_EEEENS_9enable_ifIXsr25__is_cpp17_input_iteratorIT_EE5valueESB_E4typeESB_NS_15iterator_traitsISB_E15difference_typeE, symObjAddr: 0x1EB20, symBinAddr: 0x1000211A0, symSize: 0x50 }
  - { offsetInCU: 0x1E09C, offset: 0x1E09C, size: 0x8, addend: 0x0, symName: __ZNSt3__19__advanceB7v160006IPNS_4pairINS_12basic_stringIcNS_11char_traitsIcEENS_9allocatorIcEEEES7_EEEEvRT_NS_15iterator_traitsISA_E15difference_typeENS_26random_access_iterator_tagE, symObjAddr: 0x1EBC0, symBinAddr: 0x100021240, symSize: 0x20 }
  - { offsetInCU: 0x1E0E5, offset: 0x1E0E5, size: 0x8, addend: 0x0, symName: __ZNSt3__119__allocator_destroyB7v160006INS_9allocatorINS_4pairINS_12basic_stringIcNS_11char_traitsIcEENS1_IcEEEES7_EEEENS_16reverse_iteratorINSA_IPS8_EEEESD_EEvRT_T0_T1_, symObjAddr: 0x1ED10, symBinAddr: 0x100021390, symSize: 0x70 }
  - { offsetInCU: 0x1E148, offset: 0x1E148, size: 0x8, addend: 0x0, symName: __ZNSt3__1neB7v160006INS_16reverse_iteratorIPNS_4pairINS_12basic_stringIcNS_11char_traitsIcEENS_9allocatorIcEEEES8_EEEESB_EEbRKNS1_IT_EERKNS1_IT0_EE, symObjAddr: 0x1EDB0, symBinAddr: 0x100021430, symSize: 0x50 }
  - { offsetInCU: 0x1E194, offset: 0x1E194, size: 0x8, addend: 0x0, symName: __ZNSt3__112__to_addressB7v160006INS_16reverse_iteratorINS1_IPNS_4pairINS_12basic_stringIcNS_11char_traitsIcEENS_9allocatorIcEEEES8_EEEEEEvEENS_5decayIDTclsr19__to_address_helperIT_EE6__callclsr3stdE7declvalIRKSE_EEEEE4typeESG_, symObjAddr: 0x1EE00, symBinAddr: 0x100021480, symSize: 0x20 }
  - { offsetInCU: 0x1E1F3, offset: 0x1E1F3, size: 0x8, addend: 0x0, symName: __ZNSt3__14prevB7v160006INS_16reverse_iteratorIPNS_4pairINS_12basic_stringIcNS_11char_traitsIcEENS_9allocatorIcEEEES8_EEEEEENS_9enable_ifIXsr25__is_cpp17_input_iteratorIT_EE5valueESD_E4typeESD_NS_15iterator_traitsISD_E15difference_typeE, symObjAddr: 0x1EF00, symBinAddr: 0x100021580, symSize: 0x60 }
  - { offsetInCU: 0x1E236, offset: 0x1E236, size: 0x8, addend: 0x0, symName: __ZNSt3__19__advanceB7v160006INS_16reverse_iteratorIPNS_4pairINS_12basic_stringIcNS_11char_traitsIcEENS_9allocatorIcEEEES8_EEEEEEvRT_NS_15iterator_traitsISC_E15difference_typeENS_26random_access_iterator_tagE, symObjAddr: 0x1EFB0, symBinAddr: 0x100021630, symSize: 0x30 }
  - { offsetInCU: 0x1E27F, offset: 0x1E27F, size: 0x8, addend: 0x0, symName: __ZNSt3__19make_pairB7v160006IccEENS_4pairINS_18__unwrap_ref_decayIT_E4typeENS2_IT0_E4typeEEEOS3_OS6_, symObjAddr: 0x1F330, symBinAddr: 0x1000219B0, symSize: 0x30 }
  - { offsetInCU: 0x1E2CE, offset: 0x1E2CE, size: 0x8, addend: 0x0, symName: __ZNSt3__19make_pairB7v160006IRcS1_EENS_4pairINS_18__unwrap_ref_decayIT_E4typeENS3_IT0_E4typeEEEOS4_OS7_, symObjAddr: 0x1F360, symBinAddr: 0x1000219E0, symSize: 0x30 }
  - { offsetInCU: 0x1E342, offset: 0x1E342, size: 0x8, addend: 0x0, symName: __ZNSt3__112construct_atB7v160006INS_4pairIccEEJS2_EPS2_EEPT_S5_DpOT0_, symObjAddr: 0x1F600, symBinAddr: 0x100021C80, symSize: 0x30 }
  - { offsetInCU: 0x1E3B2, offset: 0x1E3B2, size: 0x8, addend: 0x0, symName: __ZNSt3__119__allocate_at_leastB7v160006INS_9allocatorINS_4pairIccEEEEEENS_19__allocation_resultINS_16allocator_traitsIT_E7pointerEEERS7_m, symObjAddr: 0x1FA70, symBinAddr: 0x1000220F0, symSize: 0x40 }
  - { offsetInCU: 0x1E3F5, offset: 0x1E3F5, size: 0x8, addend: 0x0, symName: __ZNSt3__142__uninitialized_allocator_move_if_noexceptB7v160006INS_9allocatorINS_4pairIccEEEENS_16reverse_iteratorIPS3_EES7_S7_EET2_RT_T0_T1_S8_, symObjAddr: 0x1FC00, symBinAddr: 0x100022280, symSize: 0x180 }
  - { offsetInCU: 0x1E494, offset: 0x1E494, size: 0x8, addend: 0x0, symName: __ZNSt3__14swapB7v160006IPNS_4pairIccEEEENS_9enable_ifIXaasr21is_move_constructibleIT_EE5valuesr18is_move_assignableIS5_EE5valueEvE4typeERS5_S8_, symObjAddr: 0x1FDD0, symBinAddr: 0x100022450, symSize: 0x40 }
  - { offsetInCU: 0x1E4E5, offset: 0x1E4E5, size: 0x8, addend: 0x0, symName: __ZNSt3__125__debug_db_invalidate_allB7v160006INS_6vectorINS_4pairIccEENS_9allocatorIS3_EEEEEEvPT_, symObjAddr: 0x1FEC0, symBinAddr: 0x100022540, symSize: 0x10 }
  - { offsetInCU: 0x1E516, offset: 0x1E516, size: 0x8, addend: 0x0, symName: __ZNSt3__122__make_exception_guardB7v160006INS_29_AllocatorDestroyRangeReverseINS_9allocatorINS_4pairIccEEEENS_16reverse_iteratorIPS4_EEEEEENS_28__exception_guard_exceptionsIT_EESB_, symObjAddr: 0x1FED0, symBinAddr: 0x100022550, symSize: 0x60 }
  - { offsetInCU: 0x1E54B, offset: 0x1E54B, size: 0x8, addend: 0x0, symName: __ZNSt3__1neB7v160006IPNS_4pairIccEES3_EEbRKNS_16reverse_iteratorIT_EERKNS4_IT0_EE, symObjAddr: 0x1FF70, symBinAddr: 0x1000225F0, symSize: 0x40 }
  - { offsetInCU: 0x1E597, offset: 0x1E597, size: 0x8, addend: 0x0, symName: __ZNSt3__112__to_addressB7v160006INS_16reverse_iteratorIPNS_4pairIccEEEEvEENS_5decayIDTclsr19__to_address_helperIT_EE6__callclsr3stdE7declvalIRKS7_EEEEE4typeES9_, symObjAddr: 0x1FFB0, symBinAddr: 0x100022630, symSize: 0x20 }
  - { offsetInCU: 0x1E5F6, offset: 0x1E5F6, size: 0x8, addend: 0x0, symName: __ZNSt3__14prevB7v160006IPNS_4pairIccEEEENS_9enable_ifIXsr25__is_cpp17_input_iteratorIT_EE5valueES5_E4typeES5_NS_15iterator_traitsIS5_E15difference_typeE, symObjAddr: 0x20180, symBinAddr: 0x100022800, symSize: 0x50 }
  - { offsetInCU: 0x1E639, offset: 0x1E639, size: 0x8, addend: 0x0, symName: __ZNSt3__19__advanceB7v160006IPNS_4pairIccEEEEvRT_NS_15iterator_traitsIS4_E15difference_typeENS_26random_access_iterator_tagE, symObjAddr: 0x20220, symBinAddr: 0x1000228A0, symSize: 0x20 }
  - { offsetInCU: 0x1E682, offset: 0x1E682, size: 0x8, addend: 0x0, symName: __ZNSt3__119__allocator_destroyB7v160006INS_9allocatorINS_4pairIccEEEENS_16reverse_iteratorINS5_IPS3_EEEES8_EEvRT_T0_T1_, symObjAddr: 0x20370, symBinAddr: 0x1000229F0, symSize: 0x70 }
  - { offsetInCU: 0x1E6E5, offset: 0x1E6E5, size: 0x8, addend: 0x0, symName: __ZNSt3__1neB7v160006INS_16reverse_iteratorIPNS_4pairIccEEEES5_EEbRKNS1_IT_EERKNS1_IT0_EE, symObjAddr: 0x20410, symBinAddr: 0x100022A90, symSize: 0x50 }
  - { offsetInCU: 0x1E731, offset: 0x1E731, size: 0x8, addend: 0x0, symName: __ZNSt3__112__to_addressB7v160006INS_16reverse_iteratorINS1_IPNS_4pairIccEEEEEEvEENS_5decayIDTclsr19__to_address_helperIT_EE6__callclsr3stdE7declvalIRKS8_EEEEE4typeESA_, symObjAddr: 0x20460, symBinAddr: 0x100022AE0, symSize: 0x20 }
  - { offsetInCU: 0x1E790, offset: 0x1E790, size: 0x8, addend: 0x0, symName: __ZNSt3__14prevB7v160006INS_16reverse_iteratorIPNS_4pairIccEEEEEENS_9enable_ifIXsr25__is_cpp17_input_iteratorIT_EE5valueES7_E4typeES7_NS_15iterator_traitsIS7_E15difference_typeE, symObjAddr: 0x20560, symBinAddr: 0x100022BE0, symSize: 0x60 }
  - { offsetInCU: 0x1E7D3, offset: 0x1E7D3, size: 0x8, addend: 0x0, symName: __ZNSt3__19__advanceB7v160006INS_16reverse_iteratorIPNS_4pairIccEEEEEEvRT_NS_15iterator_traitsIS6_E15difference_typeENS_26random_access_iterator_tagE, symObjAddr: 0x20610, symBinAddr: 0x100022C90, symSize: 0x30 }
  - { offsetInCU: 0x1E928, offset: 0x1E928, size: 0x8, addend: 0x0, symName: __ZNSt3__119__throw_regex_errorB7v160006ILNS_15regex_constants10error_typeE8EEEvv, symObjAddr: 0x210A0, symBinAddr: 0x100023720, symSize: 0x60 }
  - { offsetInCU: 0x1E94D, offset: 0x1E94D, size: 0x8, addend: 0x0, symName: __ZNSt3__119__throw_regex_errorB7v160006ILNS_15regex_constants10error_typeE7EEEvv, symObjAddr: 0x21100, symBinAddr: 0x100023780, symSize: 0x60 }
  - { offsetInCU: 0x1F296, offset: 0x1F296, size: 0x8, addend: 0x0, symName: __ZNSt3__119__throw_regex_errorB7v160006ILNS_15regex_constants10error_typeE15EEEvv, symObjAddr: 0x21F50, symBinAddr: 0x1000245D0, symSize: 0x60 }
  - { offsetInCU: 0x1F32F, offset: 0x1F32F, size: 0x8, addend: 0x0, symName: __ZNSt3__14findB7v160006IPKccEET_S3_S3_RKT0_, symObjAddr: 0x23350, symBinAddr: 0x1000259D0, symSize: 0x55 }
  - { offsetInCU: 0x1FD19, offset: 0x1FD19, size: 0x8, addend: 0x0, symName: __ZSt28__throw_bad_array_new_lengthB7v160006v, symObjAddr: 0x1520, symBinAddr: 0x100003BA0, symSize: 0x40 }
  - { offsetInCU: 0x20440, offset: 0x20440, size: 0x8, addend: 0x0, symName: __ZNSt3__16vectorINS_12basic_stringIcNS_11char_traitsIcEENS_9allocatorIcEEEENS4_IS6_EEE26__swap_out_circular_bufferERNS_14__split_bufferIS6_RS7_EE, symObjAddr: 0xDD0, symBinAddr: 0x100003450, symSize: 0x130 }
  - { offsetInCU: 0x206CE, offset: 0x206CE, size: 0x8, addend: 0x0, symName: __ZNSt3__16vectorINS_10shared_ptrI6WidgetEENS_9allocatorIS3_EEE26__swap_out_circular_bufferERNS_14__split_bufferIS3_RS5_EE, symObjAddr: 0x2F70, symBinAddr: 0x1000055F0, symSize: 0x130 }
  - { offsetInCU: 0x20E9C, offset: 0x20E9C, size: 0x8, addend: 0x0, symName: __ZNSt3__16vectorINS_11basic_regexIcNS_12regex_traitsIcEEEENS_9allocatorIS4_EEE26__swap_out_circular_bufferERNS_14__split_bufferIS4_RS6_EE, symObjAddr: 0x4B00, symBinAddr: 0x100007180, symSize: 0x130 }
  - { offsetInCU: 0x210A6, offset: 0x210A6, size: 0x8, addend: 0x0, symName: __ZNSt3__16vectorINS_7__stateIcEENS_9allocatorIS2_EEE26__swap_out_circular_bufferERNS_14__split_bufferIS2_RS4_EE, symObjAddr: 0xD670, symBinAddr: 0x10000FCF0, symSize: 0x130 }
  - { offsetInCU: 0x2113E, offset: 0x2113E, size: 0x8, addend: 0x0, symName: __ZNSt3__16vectorINS_9sub_matchIPKcEENS_9allocatorIS4_EEE26__swap_out_circular_bufferERNS_14__split_bufferIS4_RS6_EE, symObjAddr: 0xF390, symBinAddr: 0x100011A10, symSize: 0x130 }
  - { offsetInCU: 0x211D1, offset: 0x211D1, size: 0x8, addend: 0x0, symName: __ZNSt3__16vectorINS_4pairImPKcEENS_9allocatorIS4_EEE26__swap_out_circular_bufferERNS_14__split_bufferIS4_RS6_EE, symObjAddr: 0x107A0, symBinAddr: 0x100012E20, symSize: 0x130 }
  - { offsetInCU: 0x21327, offset: 0x21327, size: 0x8, addend: 0x0, symName: __ZNSt3__16vectorIcNS_9allocatorIcEEE26__swap_out_circular_bufferERNS_14__split_bufferIcRS2_EE, symObjAddr: 0x19780, symBinAddr: 0x10001BE00, symSize: 0x130 }
  - { offsetInCU: 0x2137E, offset: 0x2137E, size: 0x8, addend: 0x0, symName: __ZNSt3__16vectorINS_4pairINS_12basic_stringIcNS_11char_traitsIcEENS_9allocatorIcEEEES7_EENS5_IS8_EEE26__swap_out_circular_bufferERNS_14__split_bufferIS8_RS9_EE, symObjAddr: 0x1E0E0, symBinAddr: 0x100020760, symSize: 0x130 }
  - { offsetInCU: 0x21411, offset: 0x21411, size: 0x8, addend: 0x0, symName: __ZNSt3__16vectorINS_4pairIccEENS_9allocatorIS2_EEE26__swap_out_circular_bufferERNS_14__split_bufferIS2_RS4_EE, symObjAddr: 0x1F730, symBinAddr: 0x100021DB0, symSize: 0x130 }
  - { offsetInCU: 0x23722, offset: 0x23722, size: 0x8, addend: 0x0, symName: __Z10killWidgetP6Widget, symObjAddr: 0x0, symBinAddr: 0x100002680, symSize: 0x10 }
  - { offsetInCU: 0x2374B, offset: 0x2374B, size: 0x8, addend: 0x0, symName: _main, symObjAddr: 0x10, symBinAddr: 0x100002690, symSize: 0x2A0 }
  - { offsetInCU: 0x237B0, offset: 0x237B0, size: 0x8, addend: 0x0, symName: __ZNSt3__16vectorINS_12basic_stringIcNS_11char_traitsIcEENS_9allocatorIcEEEENS4_IS6_EEEC1B7v160006Ev, symObjAddr: 0x2B0, symBinAddr: 0x100002930, symSize: 0x20 }
  - { offsetInCU: 0x237DA, offset: 0x237DA, size: 0x8, addend: 0x0, symName: __ZNSt3__16vectorINS_12basic_stringIcNS_11char_traitsIcEENS_9allocatorIcEEEENS4_IS6_EEE9push_backB7v160006EOS6_, symObjAddr: 0x2D0, symBinAddr: 0x100002950, symSize: 0x60 }
  - { offsetInCU: 0x23816, offset: 0x23816, size: 0x8, addend: 0x0, symName: __ZNSt3__112basic_stringIcNS_11char_traitsIcEENS_9allocatorIcEEEC1B7v160006IDnEEPKc, symObjAddr: 0x330, symBinAddr: 0x1000029B0, symSize: 0x30 }
  - { offsetInCU: 0x2386A, offset: 0x2386A, size: 0x8, addend: 0x0, symName: __ZNSt3__16vectorINS_12basic_stringIcNS_11char_traitsIcEENS_9allocatorIcEEEENS4_IS6_EEE12emplace_backIJRA6_KcEEERS6_DpOT_, symObjAddr: 0x360, symBinAddr: 0x1000029E0, symSize: 0x70 }
  - { offsetInCU: 0x238AC, offset: 0x238AC, size: 0x8, addend: 0x0, symName: __ZNSt3__16vectorINS_10shared_ptrI6WidgetEENS_9allocatorIS3_EEEC1B7v160006Ev, symObjAddr: 0x3D0, symBinAddr: 0x100002A50, symSize: 0x20 }
  - { offsetInCU: 0x238D6, offset: 0x238D6, size: 0x8, addend: 0x0, symName: __ZNSt3__16vectorINS_10shared_ptrI6WidgetEENS_9allocatorIS3_EEE9push_backB7v160006EOS3_, symObjAddr: 0x3F0, symBinAddr: 0x100002A70, symSize: 0x60 }
  - { offsetInCU: 0x23912, offset: 0x23912, size: 0x8, addend: 0x0, symName: __ZN6WidgetC1Ev, symObjAddr: 0x450, symBinAddr: 0x100002AD0, symSize: 0x20 }
  - { offsetInCU: 0x23950, offset: 0x23950, size: 0x8, addend: 0x0, symName: __ZNSt3__110shared_ptrI6WidgetEC1B7v160006IS1_PFvPS1_EvEEPT_T0_, symObjAddr: 0x470, symBinAddr: 0x100002AF0, symSize: 0x30 }
  - { offsetInCU: 0x239AB, offset: 0x239AB, size: 0x8, addend: 0x0, symName: __ZNSt3__110shared_ptrI6WidgetED1B7v160006Ev, symObjAddr: 0x4A0, symBinAddr: 0x100002B20, symSize: 0x20 }
  - { offsetInCU: 0x239DF, offset: 0x239DF, size: 0x8, addend: 0x0, symName: __ZNSt3__16vectorINS_10shared_ptrI6WidgetEENS_9allocatorIS3_EEE12emplace_backIJPS2_RFvS8_EEEERS3_DpOT_, symObjAddr: 0x4C0, symBinAddr: 0x100002B40, symSize: 0x70 }
  - { offsetInCU: 0x23A35, offset: 0x23A35, size: 0x8, addend: 0x0, symName: __ZNSt3__16vectorINS_11basic_regexIcNS_12regex_traitsIcEEEENS_9allocatorIS4_EEEC1B7v160006Ev, symObjAddr: 0x530, symBinAddr: 0x100002BB0, symSize: 0x20 }
  - { offsetInCU: 0x23A64, offset: 0x23A64, size: 0x8, addend: 0x0, symName: __ZNSt3__16vectorINS_11basic_regexIcNS_12regex_traitsIcEEEENS_9allocatorIS4_EEE12emplace_backIJDnEEERS4_DpOT_, symObjAddr: 0x550, symBinAddr: 0x100002BD0, symSize: 0x70 }
  - { offsetInCU: 0x23AA6, offset: 0x23AA6, size: 0x8, addend: 0x0, symName: __ZNSt3__111basic_regexIcNS_12regex_traitsIcEEEC1B7v160006EPKcNS_15regex_constants18syntax_option_typeE, symObjAddr: 0x5C0, symBinAddr: 0x100002C40, symSize: 0x30 }
  - { offsetInCU: 0x23AF3, offset: 0x23AF3, size: 0x8, addend: 0x0, symName: __ZNSt3__111basic_regexIcNS_12regex_traitsIcEEED1Ev, symObjAddr: 0x5F0, symBinAddr: 0x100002C70, symSize: 0x20 }
  - { offsetInCU: 0x23B20, offset: 0x23B20, size: 0x8, addend: 0x0, symName: __ZNSt3__16vectorINS_11basic_regexIcNS_12regex_traitsIcEEEENS_9allocatorIS4_EEED1B7v160006Ev, symObjAddr: 0x610, symBinAddr: 0x100002C90, symSize: 0x20 }
  - { offsetInCU: 0x23B4A, offset: 0x23B4A, size: 0x8, addend: 0x0, symName: __ZNSt3__16vectorINS_10shared_ptrI6WidgetEENS_9allocatorIS3_EEED1B7v160006Ev, symObjAddr: 0x630, symBinAddr: 0x100002CB0, symSize: 0x20 }
  - { offsetInCU: 0x23B74, offset: 0x23B74, size: 0x8, addend: 0x0, symName: __ZNSt3__16vectorINS_12basic_stringIcNS_11char_traitsIcEENS_9allocatorIcEEEENS4_IS6_EEED1B7v160006Ev, symObjAddr: 0x650, symBinAddr: 0x100002CD0, symSize: 0x20 }
  - { offsetInCU: 0x23B9E, offset: 0x23B9E, size: 0x8, addend: 0x0, symName: __ZNSt3__16vectorINS_12basic_stringIcNS_11char_traitsIcEENS_9allocatorIcEEEENS4_IS6_EEEC2B7v160006Ev, symObjAddr: 0x670, symBinAddr: 0x100002CF0, symSize: 0x60 }
  - { offsetInCU: 0x23BCD, offset: 0x23BCD, size: 0x8, addend: 0x0, symName: __ZNSt3__117__compressed_pairIPNS_12basic_stringIcNS_11char_traitsIcEENS_9allocatorIcEEEENS4_IS6_EEEC1B7v160006IDnNS_18__default_init_tagEEEOT_OT0_, symObjAddr: 0x6D0, symBinAddr: 0x100002D50, symSize: 0x30 }
  - { offsetInCU: 0x23C25, offset: 0x23C25, size: 0x8, addend: 0x0, symName: __ZNSt3__117__compressed_pairIPNS_12basic_stringIcNS_11char_traitsIcEENS_9allocatorIcEEEENS4_IS6_EEEC2B7v160006IDnNS_18__default_init_tagEEEOT_OT0_, symObjAddr: 0x720, symBinAddr: 0x100002DA0, symSize: 0x40 }
  - { offsetInCU: 0x23C7D, offset: 0x23C7D, size: 0x8, addend: 0x0, symName: __ZNSt3__122__compressed_pair_elemIPNS_12basic_stringIcNS_11char_traitsIcEENS_9allocatorIcEEEELi0ELb0EEC2B7v160006IDnvEEOT_, symObjAddr: 0x760, symBinAddr: 0x100002DE0, symSize: 0x20 }
  - { offsetInCU: 0x23CBF, offset: 0x23CBF, size: 0x8, addend: 0x0, symName: __ZNSt3__122__compressed_pair_elemINS_9allocatorINS_12basic_stringIcNS_11char_traitsIcEENS1_IcEEEEEELi1ELb1EEC2B7v160006ENS_18__default_init_tagE, symObjAddr: 0x780, symBinAddr: 0x100002E00, symSize: 0x20 }
  - { offsetInCU: 0x23CF3, offset: 0x23CF3, size: 0x8, addend: 0x0, symName: __ZNSt3__19allocatorINS_12basic_stringIcNS_11char_traitsIcEENS0_IcEEEEEC2B7v160006Ev, symObjAddr: 0x7A0, symBinAddr: 0x100002E20, symSize: 0x20 }
  - { offsetInCU: 0x23D1D, offset: 0x23D1D, size: 0x8, addend: 0x0, symName: __ZNSt3__116__non_trivial_ifILb1ENS_9allocatorINS_12basic_stringIcNS_11char_traitsIcEENS1_IcEEEEEEEC2B7v160006Ev, symObjAddr: 0x7C0, symBinAddr: 0x100002E40, symSize: 0x10 }
  - { offsetInCU: 0x23D47, offset: 0x23D47, size: 0x8, addend: 0x0, symName: __ZNSt3__16vectorINS_12basic_stringIcNS_11char_traitsIcEENS_9allocatorIcEEEENS4_IS6_EEE9__end_capB7v160006Ev, symObjAddr: 0x7D0, symBinAddr: 0x100002E50, symSize: 0x20 }
  - { offsetInCU: 0x23D72, offset: 0x23D72, size: 0x8, addend: 0x0, symName: __ZNSt3__16vectorINS_12basic_stringIcNS_11char_traitsIcEENS_9allocatorIcEEEENS4_IS6_EEE22__construct_one_at_endB7v160006IJS6_EEEvDpOT_, symObjAddr: 0x7F0, symBinAddr: 0x100002E70, symSize: 0x90 }
  - { offsetInCU: 0x23DC1, offset: 0x23DC1, size: 0x8, addend: 0x0, symName: __ZNSt3__16vectorINS_12basic_stringIcNS_11char_traitsIcEENS_9allocatorIcEEEENS4_IS6_EEE21__push_back_slow_pathIS6_EEvOT_, symObjAddr: 0x880, symBinAddr: 0x100002F00, symSize: 0xD0 }
  - { offsetInCU: 0x23E1F, offset: 0x23E1F, size: 0x8, addend: 0x0, symName: __ZNSt3__117__compressed_pairIPNS_12basic_stringIcNS_11char_traitsIcEENS_9allocatorIcEEEENS4_IS6_EEE5firstB7v160006Ev, symObjAddr: 0x950, symBinAddr: 0x100002FD0, symSize: 0x20 }
  - { offsetInCU: 0x23E45, offset: 0x23E45, size: 0x8, addend: 0x0, symName: __ZNSt3__122__compressed_pair_elemIPNS_12basic_stringIcNS_11char_traitsIcEENS_9allocatorIcEEEELi0ELb0EE5__getB7v160006Ev, symObjAddr: 0x970, symBinAddr: 0x100002FF0, symSize: 0x10 }
  - { offsetInCU: 0x23E84, offset: 0x23E84, size: 0x8, addend: 0x0, symName: __ZNSt3__16vectorINS_12basic_stringIcNS_11char_traitsIcEENS_9allocatorIcEEEENS4_IS6_EEE21_ConstructTransactionC1B7v160006ERS8_m, symObjAddr: 0x980, symBinAddr: 0x100003000, symSize: 0x30 }
  - { offsetInCU: 0x23ECC, offset: 0x23ECC, size: 0x8, addend: 0x0, symName: __ZNSt3__116allocator_traitsINS_9allocatorINS_12basic_stringIcNS_11char_traitsIcEENS1_IcEEEEEEE9constructB7v160006IS6_JS6_EvvEEvRS7_PT_DpOT0_, symObjAddr: 0x9B0, symBinAddr: 0x100003030, symSize: 0x30 }
  - { offsetInCU: 0x23F20, offset: 0x23F20, size: 0x8, addend: 0x0, symName: __ZNSt3__16vectorINS_12basic_stringIcNS_11char_traitsIcEENS_9allocatorIcEEEENS4_IS6_EEE7__allocB7v160006Ev, symObjAddr: 0x9E0, symBinAddr: 0x100003060, symSize: 0x20 }
  - { offsetInCU: 0x23F46, offset: 0x23F46, size: 0x8, addend: 0x0, symName: __ZNSt3__16vectorINS_12basic_stringIcNS_11char_traitsIcEENS_9allocatorIcEEEENS4_IS6_EEE21_ConstructTransactionD1B7v160006Ev, symObjAddr: 0xA10, symBinAddr: 0x100003090, symSize: 0x20 }
  - { offsetInCU: 0x23F70, offset: 0x23F70, size: 0x8, addend: 0x0, symName: __ZNSt3__16vectorINS_12basic_stringIcNS_11char_traitsIcEENS_9allocatorIcEEEENS4_IS6_EEE21_ConstructTransactionC2B7v160006ERS8_m, symObjAddr: 0xA30, symBinAddr: 0x1000030B0, symSize: 0x40 }
  - { offsetInCU: 0x23FB8, offset: 0x23FB8, size: 0x8, addend: 0x0, symName: __ZNSt3__112basic_stringIcNS_11char_traitsIcEENS_9allocatorIcEEEC1B7v160006EOS5_, symObjAddr: 0xAB0, symBinAddr: 0x100003130, symSize: 0x30 }
  - { offsetInCU: 0x23FF1, offset: 0x23FF1, size: 0x8, addend: 0x0, symName: __ZNSt3__112basic_stringIcNS_11char_traitsIcEENS_9allocatorIcEEEC2B7v160006EOS5_, symObjAddr: 0xAE0, symBinAddr: 0x100003160, symSize: 0x90 }
  - { offsetInCU: 0x2402A, offset: 0x2402A, size: 0x8, addend: 0x0, symName: __ZNSt3__112basic_stringIcNS_11char_traitsIcEENS_9allocatorIcEEE14__default_initB7v160006Ev, symObjAddr: 0xB70, symBinAddr: 0x1000031F0, symSize: 0x50 }
  - { offsetInCU: 0x24050, offset: 0x24050, size: 0x8, addend: 0x0, symName: __ZNKSt3__112basic_stringIcNS_11char_traitsIcEENS_9allocatorIcEEE9__is_longB7v160006Ev, symObjAddr: 0xBD0, symBinAddr: 0x100003250, symSize: 0x30 }
  - { offsetInCU: 0x24076, offset: 0x24076, size: 0x8, addend: 0x0, symName: __ZNSt3__117__compressed_pairINS_12basic_stringIcNS_11char_traitsIcEENS_9allocatorIcEEE5__repES5_E5firstB7v160006Ev, symObjAddr: 0xC10, symBinAddr: 0x100003290, symSize: 0x20 }
  - { offsetInCU: 0x2409C, offset: 0x2409C, size: 0x8, addend: 0x0, symName: __ZNSt3__122__compressed_pair_elemINS_12basic_stringIcNS_11char_traitsIcEENS_9allocatorIcEEE5__repELi0ELb0EE5__getB7v160006Ev, symObjAddr: 0xC30, symBinAddr: 0x1000032B0, symSize: 0x10 }
  - { offsetInCU: 0x240C2, offset: 0x240C2, size: 0x8, addend: 0x0, symName: __ZNKSt3__117__compressed_pairINS_12basic_stringIcNS_11char_traitsIcEENS_9allocatorIcEEE5__repES5_E5firstB7v160006Ev, symObjAddr: 0xC40, symBinAddr: 0x1000032C0, symSize: 0x20 }
  - { offsetInCU: 0x240E8, offset: 0x240E8, size: 0x8, addend: 0x0, symName: __ZNKSt3__122__compressed_pair_elemINS_12basic_stringIcNS_11char_traitsIcEENS_9allocatorIcEEE5__repELi0ELb0EE5__getB7v160006Ev, symObjAddr: 0xC60, symBinAddr: 0x1000032E0, symSize: 0x10 }
  - { offsetInCU: 0x2410E, offset: 0x2410E, size: 0x8, addend: 0x0, symName: __ZNSt3__117__compressed_pairIPNS_12basic_stringIcNS_11char_traitsIcEENS_9allocatorIcEEEENS4_IS6_EEE6secondB7v160006Ev, symObjAddr: 0xC70, symBinAddr: 0x1000032F0, symSize: 0x20 }
  - { offsetInCU: 0x24134, offset: 0x24134, size: 0x8, addend: 0x0, symName: __ZNSt3__122__compressed_pair_elemINS_9allocatorINS_12basic_stringIcNS_11char_traitsIcEENS1_IcEEEEEELi1ELb1EE5__getB7v160006Ev, symObjAddr: 0xC90, symBinAddr: 0x100003310, symSize: 0x10 }
  - { offsetInCU: 0x2415A, offset: 0x2415A, size: 0x8, addend: 0x0, symName: __ZNSt3__16vectorINS_12basic_stringIcNS_11char_traitsIcEENS_9allocatorIcEEEENS4_IS6_EEE21_ConstructTransactionD2B7v160006Ev, symObjAddr: 0xCA0, symBinAddr: 0x100003320, symSize: 0x20 }
  - { offsetInCU: 0x24184, offset: 0x24184, size: 0x8, addend: 0x0, symName: __ZNKSt3__16vectorINS_12basic_stringIcNS_11char_traitsIcEENS_9allocatorIcEEEENS4_IS6_EEE11__recommendB7v160006Em, symObjAddr: 0xCC0, symBinAddr: 0x100003340, symSize: 0xA0 }
  - { offsetInCU: 0x241D9, offset: 0x241D9, size: 0x8, addend: 0x0, symName: __ZNKSt3__16vectorINS_12basic_stringIcNS_11char_traitsIcEENS_9allocatorIcEEEENS4_IS6_EEE4sizeB7v160006Ev, symObjAddr: 0xD60, symBinAddr: 0x1000033E0, symSize: 0x30 }
  - { offsetInCU: 0x241FF, offset: 0x241FF, size: 0x8, addend: 0x0, symName: __ZNSt3__114__split_bufferINS_12basic_stringIcNS_11char_traitsIcEENS_9allocatorIcEEEERNS4_IS6_EEEC1EmmS8_, symObjAddr: 0xD90, symBinAddr: 0x100003410, symSize: 0x40 }
  - { offsetInCU: 0x24255, offset: 0x24255, size: 0x8, addend: 0x0, symName: __ZNSt3__114__split_bufferINS_12basic_stringIcNS_11char_traitsIcEENS_9allocatorIcEEEERNS4_IS6_EEED1Ev, symObjAddr: 0xF00, symBinAddr: 0x100003580, symSize: 0x20 }
  - { offsetInCU: 0x24281, offset: 0x24281, size: 0x8, addend: 0x0, symName: __ZNKSt3__16vectorINS_12basic_stringIcNS_11char_traitsIcEENS_9allocatorIcEEEENS4_IS6_EEE8max_sizeEv, symObjAddr: 0xF20, symBinAddr: 0x1000035A0, symSize: 0x60 }
  - { offsetInCU: 0x242A9, offset: 0x242A9, size: 0x8, addend: 0x0, symName: __ZNKSt3__16vectorINS_12basic_stringIcNS_11char_traitsIcEENS_9allocatorIcEEEENS4_IS6_EEE20__throw_length_errorB7v160006Ev, symObjAddr: 0xF80, symBinAddr: 0x100003600, symSize: 0x20 }
  - { offsetInCU: 0x242CF, offset: 0x242CF, size: 0x8, addend: 0x0, symName: __ZNKSt3__16vectorINS_12basic_stringIcNS_11char_traitsIcEENS_9allocatorIcEEEENS4_IS6_EEE8capacityB7v160006Ev, symObjAddr: 0xFA0, symBinAddr: 0x100003620, symSize: 0x40 }
  - { offsetInCU: 0x242FF, offset: 0x242FF, size: 0x8, addend: 0x0, symName: __ZNSt3__116allocator_traitsINS_9allocatorINS_12basic_stringIcNS_11char_traitsIcEENS1_IcEEEEEEE8max_sizeB7v160006IS7_vvEEmRKS7_, symObjAddr: 0x1040, symBinAddr: 0x1000036C0, symSize: 0x30 }
  - { offsetInCU: 0x2432A, offset: 0x2432A, size: 0x8, addend: 0x0, symName: __ZNKSt3__16vectorINS_12basic_stringIcNS_11char_traitsIcEENS_9allocatorIcEEEENS4_IS6_EEE7__allocB7v160006Ev, symObjAddr: 0x1070, symBinAddr: 0x1000036F0, symSize: 0x20 }
  - { offsetInCU: 0x24350, offset: 0x24350, size: 0x8, addend: 0x0, symName: __ZNSt3__114numeric_limitsIlE3maxB7v160006Ev, symObjAddr: 0x1090, symBinAddr: 0x100003710, symSize: 0x10 }
  - { offsetInCU: 0x24378, offset: 0x24378, size: 0x8, addend: 0x0, symName: __ZNKSt3__16__lessImmEclB7v160006ERKmS3_, symObjAddr: 0x10F0, symBinAddr: 0x100003770, symSize: 0x30 }
  - { offsetInCU: 0x243BA, offset: 0x243BA, size: 0x8, addend: 0x0, symName: __ZNSt3__114numeric_limitsImE3maxB7v160006Ev, symObjAddr: 0x1120, symBinAddr: 0x1000037A0, symSize: 0x10 }
  - { offsetInCU: 0x243CE, offset: 0x243CE, size: 0x8, addend: 0x0, symName: __ZNSt3__123__libcpp_numeric_limitsImLb1EE3maxB7v160006Ev, symObjAddr: 0x1130, symBinAddr: 0x1000037B0, symSize: 0x10 }
  - { offsetInCU: 0x243E2, offset: 0x243E2, size: 0x8, addend: 0x0, symName: __ZNKSt3__117__compressed_pairIPNS_12basic_stringIcNS_11char_traitsIcEENS_9allocatorIcEEEENS4_IS6_EEE6secondB7v160006Ev, symObjAddr: 0x1140, symBinAddr: 0x1000037C0, symSize: 0x20 }
  - { offsetInCU: 0x24408, offset: 0x24408, size: 0x8, addend: 0x0, symName: __ZNKSt3__122__compressed_pair_elemINS_9allocatorINS_12basic_stringIcNS_11char_traitsIcEENS1_IcEEEEEELi1ELb1EE5__getB7v160006Ev, symObjAddr: 0x1160, symBinAddr: 0x1000037E0, symSize: 0x10 }
  - { offsetInCU: 0x2442E, offset: 0x2442E, size: 0x8, addend: 0x0, symName: __ZNSt3__123__libcpp_numeric_limitsIlLb1EE3maxB7v160006Ev, symObjAddr: 0x1170, symBinAddr: 0x1000037F0, symSize: 0x10 }
  - { offsetInCU: 0x24442, offset: 0x24442, size: 0x8, addend: 0x0, symName: __ZNSt12length_errorC1B7v160006EPKc, symObjAddr: 0x11F0, symBinAddr: 0x100003870, symSize: 0x30 }
  - { offsetInCU: 0x2447A, offset: 0x2447A, size: 0x8, addend: 0x0, symName: __ZNSt12length_errorC2B7v160006EPKc, symObjAddr: 0x1220, symBinAddr: 0x1000038A0, symSize: 0x40 }
  - { offsetInCU: 0x244B2, offset: 0x244B2, size: 0x8, addend: 0x0, symName: __ZNKSt3__16vectorINS_12basic_stringIcNS_11char_traitsIcEENS_9allocatorIcEEEENS4_IS6_EEE9__end_capB7v160006Ev, symObjAddr: 0x1260, symBinAddr: 0x1000038E0, symSize: 0x20 }
  - { offsetInCU: 0x244D8, offset: 0x244D8, size: 0x8, addend: 0x0, symName: __ZNKSt3__117__compressed_pairIPNS_12basic_stringIcNS_11char_traitsIcEENS_9allocatorIcEEEENS4_IS6_EEE5firstB7v160006Ev, symObjAddr: 0x1280, symBinAddr: 0x100003900, symSize: 0x20 }
  - { offsetInCU: 0x244FE, offset: 0x244FE, size: 0x8, addend: 0x0, symName: __ZNKSt3__122__compressed_pair_elemIPNS_12basic_stringIcNS_11char_traitsIcEENS_9allocatorIcEEEELi0ELb0EE5__getB7v160006Ev, symObjAddr: 0x12A0, symBinAddr: 0x100003920, symSize: 0x10 }
  - { offsetInCU: 0x24524, offset: 0x24524, size: 0x8, addend: 0x0, symName: __ZNSt3__114__split_bufferINS_12basic_stringIcNS_11char_traitsIcEENS_9allocatorIcEEEERNS4_IS6_EEEC2EmmS8_, symObjAddr: 0x1300, symBinAddr: 0x100003980, symSize: 0xC0 }
  - { offsetInCU: 0x24597, offset: 0x24597, size: 0x8, addend: 0x0, symName: __ZNSt3__117__compressed_pairIPNS_12basic_stringIcNS_11char_traitsIcEENS_9allocatorIcEEEERNS4_IS6_EEEC1B7v160006IDnS9_EEOT_OT0_, symObjAddr: 0x13C0, symBinAddr: 0x100003A40, symSize: 0x30 }
  - { offsetInCU: 0x245EF, offset: 0x245EF, size: 0x8, addend: 0x0, symName: __ZNSt3__114__split_bufferINS_12basic_stringIcNS_11char_traitsIcEENS_9allocatorIcEEEERNS4_IS6_EEE7__allocB7v160006Ev, symObjAddr: 0x1430, symBinAddr: 0x100003AB0, symSize: 0x20 }
  - { offsetInCU: 0x24615, offset: 0x24615, size: 0x8, addend: 0x0, symName: __ZNSt3__114__split_bufferINS_12basic_stringIcNS_11char_traitsIcEENS_9allocatorIcEEEERNS4_IS6_EEE9__end_capB7v160006Ev, symObjAddr: 0x1450, symBinAddr: 0x100003AD0, symSize: 0x20 }
  - { offsetInCU: 0x2463B, offset: 0x2463B, size: 0x8, addend: 0x0, symName: __ZNSt3__117__compressed_pairIPNS_12basic_stringIcNS_11char_traitsIcEENS_9allocatorIcEEEERNS4_IS6_EEEC2B7v160006IDnS9_EEOT_OT0_, symObjAddr: 0x1470, symBinAddr: 0x100003AF0, symSize: 0x40 }
  - { offsetInCU: 0x24693, offset: 0x24693, size: 0x8, addend: 0x0, symName: __ZNSt3__122__compressed_pair_elemIRNS_9allocatorINS_12basic_stringIcNS_11char_traitsIcEENS1_IcEEEEEELi1ELb0EEC2B7v160006IS8_vEEOT_, symObjAddr: 0x14B0, symBinAddr: 0x100003B30, symSize: 0x20 }
  - { offsetInCU: 0x246D5, offset: 0x246D5, size: 0x8, addend: 0x0, symName: __ZNSt3__19allocatorINS_12basic_stringIcNS_11char_traitsIcEENS0_IcEEEEE8allocateB7v160006Em, symObjAddr: 0x14D0, symBinAddr: 0x100003B50, symSize: 0x50 }
  - { offsetInCU: 0x24709, offset: 0x24709, size: 0x8, addend: 0x0, symName: __ZNSt3__117__compressed_pairIPNS_12basic_stringIcNS_11char_traitsIcEENS_9allocatorIcEEEERNS4_IS6_EEE6secondB7v160006Ev, symObjAddr: 0x1630, symBinAddr: 0x100003CB0, symSize: 0x20 }
  - { offsetInCU: 0x2472F, offset: 0x2472F, size: 0x8, addend: 0x0, symName: __ZNSt3__122__compressed_pair_elemIRNS_9allocatorINS_12basic_stringIcNS_11char_traitsIcEENS1_IcEEEEEELi1ELb0EE5__getB7v160006Ev, symObjAddr: 0x1650, symBinAddr: 0x100003CD0, symSize: 0x20 }
  - { offsetInCU: 0x24755, offset: 0x24755, size: 0x8, addend: 0x0, symName: __ZNSt3__117__compressed_pairIPNS_12basic_stringIcNS_11char_traitsIcEENS_9allocatorIcEEEERNS4_IS6_EEE5firstB7v160006Ev, symObjAddr: 0x1670, symBinAddr: 0x100003CF0, symSize: 0x20 }
  - { offsetInCU: 0x2477B, offset: 0x2477B, size: 0x8, addend: 0x0, symName: __ZNKSt3__16vectorINS_12basic_stringIcNS_11char_traitsIcEENS_9allocatorIcEEEENS4_IS6_EEE17__annotate_deleteB7v160006Ev, symObjAddr: 0x1690, symBinAddr: 0x100003D10, symSize: 0xB0 }
  - { offsetInCU: 0x247A1, offset: 0x247A1, size: 0x8, addend: 0x0, symName: __ZNSt3__116reverse_iteratorIPNS_12basic_stringIcNS_11char_traitsIcEENS_9allocatorIcEEEEEC1B7v160006ES7_, symObjAddr: 0x18C0, symBinAddr: 0x100003F40, symSize: 0x30 }
  - { offsetInCU: 0x247D9, offset: 0x247D9, size: 0x8, addend: 0x0, symName: __ZNKSt3__116reverse_iteratorIPNS_12basic_stringIcNS_11char_traitsIcEENS_9allocatorIcEEEEE4baseB7v160006Ev, symObjAddr: 0x18F0, symBinAddr: 0x100003F70, symSize: 0x20 }
  - { offsetInCU: 0x247FF, offset: 0x247FF, size: 0x8, addend: 0x0, symName: __ZNKSt3__16vectorINS_12basic_stringIcNS_11char_traitsIcEENS_9allocatorIcEEEENS4_IS6_EEE14__annotate_newB7v160006Em, symObjAddr: 0x1950, symBinAddr: 0x100003FD0, symSize: 0xA0 }
  - { offsetInCU: 0x24834, offset: 0x24834, size: 0x8, addend: 0x0, symName: __ZNKSt3__16vectorINS_12basic_stringIcNS_11char_traitsIcEENS_9allocatorIcEEEENS4_IS6_EEE31__annotate_contiguous_containerB7v160006EPKvSA_SA_SA_, symObjAddr: 0x1A00, symBinAddr: 0x100004080, symSize: 0x20 }
  - { offsetInCU: 0x24886, offset: 0x24886, size: 0x8, addend: 0x0, symName: __ZNKSt3__16vectorINS_12basic_stringIcNS_11char_traitsIcEENS_9allocatorIcEEEENS4_IS6_EEE4dataB7v160006Ev, symObjAddr: 0x1A20, symBinAddr: 0x1000040A0, symSize: 0x20 }
  - { offsetInCU: 0x248AC, offset: 0x248AC, size: 0x8, addend: 0x0, symName: __ZNSt3__129_AllocatorDestroyRangeReverseINS_9allocatorINS_12basic_stringIcNS_11char_traitsIcEENS1_IcEEEEEENS_16reverse_iteratorIPS6_EEEC1B7v160006ERS7_RSA_SD_, symObjAddr: 0x1AA0, symBinAddr: 0x100004120, symSize: 0x40 }
  - { offsetInCU: 0x24903, offset: 0x24903, size: 0x8, addend: 0x0, symName: __ZNKSt3__116reverse_iteratorIPNS_12basic_stringIcNS_11char_traitsIcEENS_9allocatorIcEEEEEdeB7v160006Ev, symObjAddr: 0x1B40, symBinAddr: 0x1000041C0, symSize: 0x30 }
  - { offsetInCU: 0x24937, offset: 0x24937, size: 0x8, addend: 0x0, symName: __ZNSt3__116reverse_iteratorIPNS_12basic_stringIcNS_11char_traitsIcEENS_9allocatorIcEEEEEppB7v160006Ev, symObjAddr: 0x1B70, symBinAddr: 0x1000041F0, symSize: 0x20 }
  - { offsetInCU: 0x2495D, offset: 0x2495D, size: 0x8, addend: 0x0, symName: __ZNSt3__128__exception_guard_exceptionsINS_29_AllocatorDestroyRangeReverseINS_9allocatorINS_12basic_stringIcNS_11char_traitsIcEENS2_IcEEEEEENS_16reverse_iteratorIPS7_EEEEE10__completeB7v160006Ev, symObjAddr: 0x1B90, symBinAddr: 0x100004210, symSize: 0x20 }
  - { offsetInCU: 0x24983, offset: 0x24983, size: 0x8, addend: 0x0, symName: __ZNSt3__128__exception_guard_exceptionsINS_29_AllocatorDestroyRangeReverseINS_9allocatorINS_12basic_stringIcNS_11char_traitsIcEENS2_IcEEEEEENS_16reverse_iteratorIPS7_EEEEED1B7v160006Ev, symObjAddr: 0x1BB0, symBinAddr: 0x100004230, symSize: 0x20 }
  - { offsetInCU: 0x249AD, offset: 0x249AD, size: 0x8, addend: 0x0, symName: __ZNSt3__128__exception_guard_exceptionsINS_29_AllocatorDestroyRangeReverseINS_9allocatorINS_12basic_stringIcNS_11char_traitsIcEENS2_IcEEEEEENS_16reverse_iteratorIPS7_EEEEEC1B7v160006ESC_, symObjAddr: 0x1BD0, symBinAddr: 0x100004250, symSize: 0x40 }
  - { offsetInCU: 0x249E5, offset: 0x249E5, size: 0x8, addend: 0x0, symName: __ZNSt3__128__exception_guard_exceptionsINS_29_AllocatorDestroyRangeReverseINS_9allocatorINS_12basic_stringIcNS_11char_traitsIcEENS2_IcEEEEEENS_16reverse_iteratorIPS7_EEEEEC2B7v160006ESC_, symObjAddr: 0x1C10, symBinAddr: 0x100004290, symSize: 0x30 }
  - { offsetInCU: 0x24A1D, offset: 0x24A1D, size: 0x8, addend: 0x0, symName: __ZNSt3__129_AllocatorDestroyRangeReverseINS_9allocatorINS_12basic_stringIcNS_11char_traitsIcEENS1_IcEEEEEENS_16reverse_iteratorIPS6_EEEC2B7v160006ERS7_RSA_SD_, symObjAddr: 0x1C40, symBinAddr: 0x1000042C0, symSize: 0x40 }
  - { offsetInCU: 0x24A79, offset: 0x24A79, size: 0x8, addend: 0x0, symName: __ZNSt3__119__to_address_helperINS_16reverse_iteratorIPNS_12basic_stringIcNS_11char_traitsIcEENS_9allocatorIcEEEEEEvE6__callB7v160006ERKS9_, symObjAddr: 0x1C80, symBinAddr: 0x100004300, symSize: 0x40 }
  - { offsetInCU: 0x24A9C, offset: 0x24A9C, size: 0x8, addend: 0x0, symName: __ZNKSt3__116reverse_iteratorIPNS_12basic_stringIcNS_11char_traitsIcEENS_9allocatorIcEEEEEptB7v160006Ev, symObjAddr: 0x1CC0, symBinAddr: 0x100004340, symSize: 0x30 }
  - { offsetInCU: 0x24AC2, offset: 0x24AC2, size: 0x8, addend: 0x0, symName: __ZNSt3__128__exception_guard_exceptionsINS_29_AllocatorDestroyRangeReverseINS_9allocatorINS_12basic_stringIcNS_11char_traitsIcEENS2_IcEEEEEENS_16reverse_iteratorIPS7_EEEEED2B7v160006Ev, symObjAddr: 0x1DC0, symBinAddr: 0x100004440, symSize: 0x40 }
  - { offsetInCU: 0x24AEC, offset: 0x24AEC, size: 0x8, addend: 0x0, symName: __ZNKSt3__129_AllocatorDestroyRangeReverseINS_9allocatorINS_12basic_stringIcNS_11char_traitsIcEENS1_IcEEEEEENS_16reverse_iteratorIPS6_EEEclB7v160006Ev, symObjAddr: 0x1E00, symBinAddr: 0x100004480, symSize: 0xF0 }
  - { offsetInCU: 0x24B13, offset: 0x24B13, size: 0x8, addend: 0x0, symName: __ZNSt3__116reverse_iteratorINS0_IPNS_12basic_stringIcNS_11char_traitsIcEENS_9allocatorIcEEEEEEEC1B7v160006ES8_, symObjAddr: 0x1F60, symBinAddr: 0x1000045E0, symSize: 0x30 }
  - { offsetInCU: 0x24B4B, offset: 0x24B4B, size: 0x8, addend: 0x0, symName: __ZNSt3__116allocator_traitsINS_9allocatorINS_12basic_stringIcNS_11char_traitsIcEENS1_IcEEEEEEE7destroyB7v160006IS6_vvEEvRS7_PT_, symObjAddr: 0x1FE0, symBinAddr: 0x100004660, symSize: 0x20 }
  - { offsetInCU: 0x24B85, offset: 0x24B85, size: 0x8, addend: 0x0, symName: __ZNSt3__116reverse_iteratorINS0_IPNS_12basic_stringIcNS_11char_traitsIcEENS_9allocatorIcEEEEEEEppB7v160006Ev, symObjAddr: 0x2020, symBinAddr: 0x1000046A0, symSize: 0x30 }
  - { offsetInCU: 0x24BAB, offset: 0x24BAB, size: 0x8, addend: 0x0, symName: __ZNKSt3__116reverse_iteratorINS0_IPNS_12basic_stringIcNS_11char_traitsIcEENS_9allocatorIcEEEEEEE4baseB7v160006Ev, symObjAddr: 0x2050, symBinAddr: 0x1000046D0, symSize: 0x20 }
  - { offsetInCU: 0x24BD6, offset: 0x24BD6, size: 0x8, addend: 0x0, symName: __ZNSt3__119__to_address_helperINS_16reverse_iteratorINS1_IPNS_12basic_stringIcNS_11char_traitsIcEENS_9allocatorIcEEEEEEEEvE6__callB7v160006ERKSA_, symObjAddr: 0x20B0, symBinAddr: 0x100004730, symSize: 0x40 }
  - { offsetInCU: 0x24BF9, offset: 0x24BF9, size: 0x8, addend: 0x0, symName: __ZNKSt3__116reverse_iteratorINS0_IPNS_12basic_stringIcNS_11char_traitsIcEENS_9allocatorIcEEEEEEEptB7v160006Ev, symObjAddr: 0x20F0, symBinAddr: 0x100004770, symSize: 0x50 }
  - { offsetInCU: 0x24C1F, offset: 0x24C1F, size: 0x8, addend: 0x0, symName: __ZNSt3__116reverse_iteratorIPNS_12basic_stringIcNS_11char_traitsIcEENS_9allocatorIcEEEEEpLB7v160006El, symObjAddr: 0x2220, symBinAddr: 0x1000048A0, symSize: 0x30 }
  - { offsetInCU: 0x24C53, offset: 0x24C53, size: 0x8, addend: 0x0, symName: __ZNSt3__116reverse_iteratorIPNS_12basic_stringIcNS_11char_traitsIcEENS_9allocatorIcEEEEEmmB7v160006Ev, symObjAddr: 0x2250, symBinAddr: 0x1000048D0, symSize: 0x20 }
  - { offsetInCU: 0x24C79, offset: 0x24C79, size: 0x8, addend: 0x0, symName: __ZNSt3__116reverse_iteratorINS0_IPNS_12basic_stringIcNS_11char_traitsIcEENS_9allocatorIcEEEEEEEC2B7v160006ES8_, symObjAddr: 0x2270, symBinAddr: 0x1000048F0, symSize: 0x40 }
  - { offsetInCU: 0x24CB1, offset: 0x24CB1, size: 0x8, addend: 0x0, symName: __ZNSt3__116reverse_iteratorIPNS_12basic_stringIcNS_11char_traitsIcEENS_9allocatorIcEEEEEC2B7v160006ES7_, symObjAddr: 0x22B0, symBinAddr: 0x100004930, symSize: 0x30 }
  - { offsetInCU: 0x24CE9, offset: 0x24CE9, size: 0x8, addend: 0x0, symName: __ZNSt3__114__split_bufferINS_12basic_stringIcNS_11char_traitsIcEENS_9allocatorIcEEEERNS4_IS6_EEED2Ev, symObjAddr: 0x22E0, symBinAddr: 0x100004960, symSize: 0x70 }
  - { offsetInCU: 0x24D15, offset: 0x24D15, size: 0x8, addend: 0x0, symName: __ZNSt3__114__split_bufferINS_12basic_stringIcNS_11char_traitsIcEENS_9allocatorIcEEEERNS4_IS6_EEE5clearB7v160006Ev, symObjAddr: 0x2350, symBinAddr: 0x1000049D0, symSize: 0x20 }
  - { offsetInCU: 0x24D3B, offset: 0x24D3B, size: 0x8, addend: 0x0, symName: __ZNSt3__116allocator_traitsINS_9allocatorINS_12basic_stringIcNS_11char_traitsIcEENS1_IcEEEEEEE10deallocateB7v160006ERS7_PS6_m, symObjAddr: 0x2370, symBinAddr: 0x1000049F0, symSize: 0x30 }
  - { offsetInCU: 0x24D7D, offset: 0x24D7D, size: 0x8, addend: 0x0, symName: __ZNKSt3__114__split_bufferINS_12basic_stringIcNS_11char_traitsIcEENS_9allocatorIcEEEERNS4_IS6_EEE8capacityB7v160006Ev, symObjAddr: 0x23A0, symBinAddr: 0x100004A20, symSize: 0x40 }
  - { offsetInCU: 0x24DA3, offset: 0x24DA3, size: 0x8, addend: 0x0, symName: __ZNSt3__114__split_bufferINS_12basic_stringIcNS_11char_traitsIcEENS_9allocatorIcEEEERNS4_IS6_EEE17__destruct_at_endB7v160006EPS6_, symObjAddr: 0x23E0, symBinAddr: 0x100004A60, symSize: 0x30 }
  - { offsetInCU: 0x24DD7, offset: 0x24DD7, size: 0x8, addend: 0x0, symName: __ZNSt3__114__split_bufferINS_12basic_stringIcNS_11char_traitsIcEENS_9allocatorIcEEEERNS4_IS6_EEE17__destruct_at_endB7v160006EPS6_NS_17integral_constantIbLb0EEE, symObjAddr: 0x2410, symBinAddr: 0x100004A90, symSize: 0x80 }
  - { offsetInCU: 0x24E17, offset: 0x24E17, size: 0x8, addend: 0x0, symName: __ZNSt3__19allocatorINS_12basic_stringIcNS_11char_traitsIcEENS0_IcEEEEE10deallocateB7v160006EPS5_m, symObjAddr: 0x2490, symBinAddr: 0x100004B10, symSize: 0x50 }
  - { offsetInCU: 0x24E59, offset: 0x24E59, size: 0x8, addend: 0x0, symName: __ZNKSt3__114__split_bufferINS_12basic_stringIcNS_11char_traitsIcEENS_9allocatorIcEEEERNS4_IS6_EEE9__end_capB7v160006Ev, symObjAddr: 0x25E0, symBinAddr: 0x100004C60, symSize: 0x20 }
  - { offsetInCU: 0x24E7F, offset: 0x24E7F, size: 0x8, addend: 0x0, symName: __ZNKSt3__117__compressed_pairIPNS_12basic_stringIcNS_11char_traitsIcEENS_9allocatorIcEEEERNS4_IS6_EEE5firstB7v160006Ev, symObjAddr: 0x2600, symBinAddr: 0x100004C80, symSize: 0x20 }
  - { offsetInCU: 0x24EA5, offset: 0x24EA5, size: 0x8, addend: 0x0, symName: __ZNSt3__112basic_stringIcNS_11char_traitsIcEENS_9allocatorIcEEEC2B7v160006IDnEEPKc, symObjAddr: 0x2620, symBinAddr: 0x100004CA0, symSize: 0x60 }
  - { offsetInCU: 0x24EE3, offset: 0x24EE3, size: 0x8, addend: 0x0, symName: __ZNSt3__117__compressed_pairINS_12basic_stringIcNS_11char_traitsIcEENS_9allocatorIcEEE5__repES5_EC1B7v160006INS_18__default_init_tagESA_EEOT_OT0_, symObjAddr: 0x2680, symBinAddr: 0x100004D00, symSize: 0x30 }
  - { offsetInCU: 0x24F3B, offset: 0x24F3B, size: 0x8, addend: 0x0, symName: __ZNSt3__111char_traitsIcE6lengthEPKc, symObjAddr: 0x26B0, symBinAddr: 0x100004D30, symSize: 0x30 }
  - { offsetInCU: 0x24F5E, offset: 0x24F5E, size: 0x8, addend: 0x0, symName: __ZNSt3__117__compressed_pairINS_12basic_stringIcNS_11char_traitsIcEENS_9allocatorIcEEE5__repES5_EC2B7v160006INS_18__default_init_tagESA_EEOT_OT0_, symObjAddr: 0x26E0, symBinAddr: 0x100004D60, symSize: 0x30 }
  - { offsetInCU: 0x24FB6, offset: 0x24FB6, size: 0x8, addend: 0x0, symName: __ZNSt3__122__compressed_pair_elemINS_12basic_stringIcNS_11char_traitsIcEENS_9allocatorIcEEE5__repELi0ELb0EEC2B7v160006ENS_18__default_init_tagE, symObjAddr: 0x2710, symBinAddr: 0x100004D90, symSize: 0x10 }
  - { offsetInCU: 0x24FEA, offset: 0x24FEA, size: 0x8, addend: 0x0, symName: __ZNSt3__122__compressed_pair_elemINS_9allocatorIcEELi1ELb1EEC2B7v160006ENS_18__default_init_tagE, symObjAddr: 0x2720, symBinAddr: 0x100004DA0, symSize: 0x20 }
  - { offsetInCU: 0x2501E, offset: 0x2501E, size: 0x8, addend: 0x0, symName: __ZNSt3__19allocatorIcEC2B7v160006Ev, symObjAddr: 0x2740, symBinAddr: 0x100004DC0, symSize: 0x20 }
  - { offsetInCU: 0x25048, offset: 0x25048, size: 0x8, addend: 0x0, symName: __ZNSt3__116__non_trivial_ifILb1ENS_9allocatorIcEEEC2B7v160006Ev, symObjAddr: 0x2760, symBinAddr: 0x100004DE0, symSize: 0x10 }
  - { offsetInCU: 0x25072, offset: 0x25072, size: 0x8, addend: 0x0, symName: __ZNSt3__16vectorINS_12basic_stringIcNS_11char_traitsIcEENS_9allocatorIcEEEENS4_IS6_EEE22__construct_one_at_endB7v160006IJRA6_KcEEEvDpOT_, symObjAddr: 0x2790, symBinAddr: 0x100004E10, symSize: 0x90 }
  - { offsetInCU: 0x250C1, offset: 0x250C1, size: 0x8, addend: 0x0, symName: __ZNSt3__16vectorINS_12basic_stringIcNS_11char_traitsIcEENS_9allocatorIcEEEENS4_IS6_EEE24__emplace_back_slow_pathIJRA6_KcEEEvDpOT_, symObjAddr: 0x2820, symBinAddr: 0x100004EA0, symSize: 0xD0 }
  - { offsetInCU: 0x25121, offset: 0x25121, size: 0x8, addend: 0x0, symName: __ZNSt3__16vectorINS_12basic_stringIcNS_11char_traitsIcEENS_9allocatorIcEEEENS4_IS6_EEE4backB7v160006Ev, symObjAddr: 0x28F0, symBinAddr: 0x100004F70, symSize: 0x20 }
  - { offsetInCU: 0x25147, offset: 0x25147, size: 0x8, addend: 0x0, symName: __ZNSt3__116allocator_traitsINS_9allocatorINS_12basic_stringIcNS_11char_traitsIcEENS1_IcEEEEEEE9constructB7v160006IS6_JRA6_KcEvvEEvRS7_PT_DpOT0_, symObjAddr: 0x2910, symBinAddr: 0x100004F90, symSize: 0x30 }
  - { offsetInCU: 0x2519B, offset: 0x2519B, size: 0x8, addend: 0x0, symName: __ZNSt3__16vectorINS_10shared_ptrI6WidgetEENS_9allocatorIS3_EEEC2B7v160006Ev, symObjAddr: 0x2980, symBinAddr: 0x100005000, symSize: 0x60 }
  - { offsetInCU: 0x251C5, offset: 0x251C5, size: 0x8, addend: 0x0, symName: __ZNSt3__117__compressed_pairIPNS_10shared_ptrI6WidgetEENS_9allocatorIS3_EEEC1B7v160006IDnNS_18__default_init_tagEEEOT_OT0_, symObjAddr: 0x29E0, symBinAddr: 0x100005060, symSize: 0x30 }
  - { offsetInCU: 0x2521D, offset: 0x2521D, size: 0x8, addend: 0x0, symName: __ZNSt3__117__compressed_pairIPNS_10shared_ptrI6WidgetEENS_9allocatorIS3_EEEC2B7v160006IDnNS_18__default_init_tagEEEOT_OT0_, symObjAddr: 0x2A20, symBinAddr: 0x1000050A0, symSize: 0x40 }
  - { offsetInCU: 0x25275, offset: 0x25275, size: 0x8, addend: 0x0, symName: __ZNSt3__122__compressed_pair_elemIPNS_10shared_ptrI6WidgetEELi0ELb0EEC2B7v160006IDnvEEOT_, symObjAddr: 0x2A60, symBinAddr: 0x1000050E0, symSize: 0x20 }
  - { offsetInCU: 0x252B7, offset: 0x252B7, size: 0x8, addend: 0x0, symName: __ZNSt3__122__compressed_pair_elemINS_9allocatorINS_10shared_ptrI6WidgetEEEELi1ELb1EEC2B7v160006ENS_18__default_init_tagE, symObjAddr: 0x2A80, symBinAddr: 0x100005100, symSize: 0x20 }
  - { offsetInCU: 0x252EB, offset: 0x252EB, size: 0x8, addend: 0x0, symName: __ZNSt3__19allocatorINS_10shared_ptrI6WidgetEEEC2B7v160006Ev, symObjAddr: 0x2AA0, symBinAddr: 0x100005120, symSize: 0x20 }
  - { offsetInCU: 0x25315, offset: 0x25315, size: 0x8, addend: 0x0, symName: __ZNSt3__116__non_trivial_ifILb1ENS_9allocatorINS_10shared_ptrI6WidgetEEEEEC2B7v160006Ev, symObjAddr: 0x2AC0, symBinAddr: 0x100005140, symSize: 0x10 }
  - { offsetInCU: 0x2533F, offset: 0x2533F, size: 0x8, addend: 0x0, symName: __ZNSt3__16vectorINS_10shared_ptrI6WidgetEENS_9allocatorIS3_EEE9__end_capB7v160006Ev, symObjAddr: 0x2AD0, symBinAddr: 0x100005150, symSize: 0x20 }
  - { offsetInCU: 0x25365, offset: 0x25365, size: 0x8, addend: 0x0, symName: __ZNSt3__16vectorINS_10shared_ptrI6WidgetEENS_9allocatorIS3_EEE22__construct_one_at_endB7v160006IJS3_EEEvDpOT_, symObjAddr: 0x2AF0, symBinAddr: 0x100005170, symSize: 0x90 }
  - { offsetInCU: 0x253B4, offset: 0x253B4, size: 0x8, addend: 0x0, symName: __ZNSt3__16vectorINS_10shared_ptrI6WidgetEENS_9allocatorIS3_EEE21__push_back_slow_pathIS3_EEvOT_, symObjAddr: 0x2B80, symBinAddr: 0x100005200, symSize: 0xD0 }
  - { offsetInCU: 0x25412, offset: 0x25412, size: 0x8, addend: 0x0, symName: __ZNSt3__117__compressed_pairIPNS_10shared_ptrI6WidgetEENS_9allocatorIS3_EEE5firstB7v160006Ev, symObjAddr: 0x2C50, symBinAddr: 0x1000052D0, symSize: 0x20 }
  - { offsetInCU: 0x25438, offset: 0x25438, size: 0x8, addend: 0x0, symName: __ZNSt3__122__compressed_pair_elemIPNS_10shared_ptrI6WidgetEELi0ELb0EE5__getB7v160006Ev, symObjAddr: 0x2C70, symBinAddr: 0x1000052F0, symSize: 0x10 }
  - { offsetInCU: 0x25477, offset: 0x25477, size: 0x8, addend: 0x0, symName: __ZNSt3__16vectorINS_10shared_ptrI6WidgetEENS_9allocatorIS3_EEE21_ConstructTransactionC1B7v160006ERS6_m, symObjAddr: 0x2C80, symBinAddr: 0x100005300, symSize: 0x30 }
  - { offsetInCU: 0x254BF, offset: 0x254BF, size: 0x8, addend: 0x0, symName: __ZNSt3__116allocator_traitsINS_9allocatorINS_10shared_ptrI6WidgetEEEEE9constructB7v160006IS4_JS4_EvvEEvRS5_PT_DpOT0_, symObjAddr: 0x2CB0, symBinAddr: 0x100005330, symSize: 0x30 }
  - { offsetInCU: 0x25513, offset: 0x25513, size: 0x8, addend: 0x0, symName: __ZNSt3__16vectorINS_10shared_ptrI6WidgetEENS_9allocatorIS3_EEE7__allocB7v160006Ev, symObjAddr: 0x2CE0, symBinAddr: 0x100005360, symSize: 0x20 }
  - { offsetInCU: 0x25539, offset: 0x25539, size: 0x8, addend: 0x0, symName: __ZNSt3__16vectorINS_10shared_ptrI6WidgetEENS_9allocatorIS3_EEE21_ConstructTransactionD1B7v160006Ev, symObjAddr: 0x2D10, symBinAddr: 0x100005390, symSize: 0x20 }
  - { offsetInCU: 0x25563, offset: 0x25563, size: 0x8, addend: 0x0, symName: __ZNSt3__16vectorINS_10shared_ptrI6WidgetEENS_9allocatorIS3_EEE21_ConstructTransactionC2B7v160006ERS6_m, symObjAddr: 0x2D30, symBinAddr: 0x1000053B0, symSize: 0x40 }
  - { offsetInCU: 0x255AB, offset: 0x255AB, size: 0x8, addend: 0x0, symName: __ZNSt3__110shared_ptrI6WidgetEC1B7v160006EOS2_, symObjAddr: 0x2DB0, symBinAddr: 0x100005430, symSize: 0x30 }
  - { offsetInCU: 0x255E4, offset: 0x255E4, size: 0x8, addend: 0x0, symName: __ZNSt3__110shared_ptrI6WidgetEC2B7v160006EOS2_, symObjAddr: 0x2DE0, symBinAddr: 0x100005460, symSize: 0x40 }
  - { offsetInCU: 0x2561D, offset: 0x2561D, size: 0x8, addend: 0x0, symName: __ZNSt3__117__compressed_pairIPNS_10shared_ptrI6WidgetEENS_9allocatorIS3_EEE6secondB7v160006Ev, symObjAddr: 0x2E20, symBinAddr: 0x1000054A0, symSize: 0x20 }
  - { offsetInCU: 0x25643, offset: 0x25643, size: 0x8, addend: 0x0, symName: __ZNSt3__122__compressed_pair_elemINS_9allocatorINS_10shared_ptrI6WidgetEEEELi1ELb1EE5__getB7v160006Ev, symObjAddr: 0x2E40, symBinAddr: 0x1000054C0, symSize: 0x10 }
  - { offsetInCU: 0x25669, offset: 0x25669, size: 0x8, addend: 0x0, symName: __ZNSt3__16vectorINS_10shared_ptrI6WidgetEENS_9allocatorIS3_EEE21_ConstructTransactionD2B7v160006Ev, symObjAddr: 0x2E50, symBinAddr: 0x1000054D0, symSize: 0x20 }
  - { offsetInCU: 0x25693, offset: 0x25693, size: 0x8, addend: 0x0, symName: __ZNKSt3__16vectorINS_10shared_ptrI6WidgetEENS_9allocatorIS3_EEE11__recommendB7v160006Em, symObjAddr: 0x2E70, symBinAddr: 0x1000054F0, symSize: 0xA0 }
  - { offsetInCU: 0x256E8, offset: 0x256E8, size: 0x8, addend: 0x0, symName: __ZNKSt3__16vectorINS_10shared_ptrI6WidgetEENS_9allocatorIS3_EEE4sizeB7v160006Ev, symObjAddr: 0x2F10, symBinAddr: 0x100005590, symSize: 0x20 }
  - { offsetInCU: 0x2570E, offset: 0x2570E, size: 0x8, addend: 0x0, symName: __ZNSt3__114__split_bufferINS_10shared_ptrI6WidgetEERNS_9allocatorIS3_EEEC1EmmS6_, symObjAddr: 0x2F30, symBinAddr: 0x1000055B0, symSize: 0x40 }
  - { offsetInCU: 0x25764, offset: 0x25764, size: 0x8, addend: 0x0, symName: __ZNSt3__114__split_bufferINS_10shared_ptrI6WidgetEERNS_9allocatorIS3_EEED1Ev, symObjAddr: 0x30A0, symBinAddr: 0x100005720, symSize: 0x20 }
  - { offsetInCU: 0x25790, offset: 0x25790, size: 0x8, addend: 0x0, symName: __ZNKSt3__16vectorINS_10shared_ptrI6WidgetEENS_9allocatorIS3_EEE8max_sizeEv, symObjAddr: 0x30C0, symBinAddr: 0x100005740, symSize: 0x60 }
  - { offsetInCU: 0x257B8, offset: 0x257B8, size: 0x8, addend: 0x0, symName: __ZNKSt3__16vectorINS_10shared_ptrI6WidgetEENS_9allocatorIS3_EEE20__throw_length_errorB7v160006Ev, symObjAddr: 0x3120, symBinAddr: 0x1000057A0, symSize: 0x20 }
  - { offsetInCU: 0x257DE, offset: 0x257DE, size: 0x8, addend: 0x0, symName: __ZNKSt3__16vectorINS_10shared_ptrI6WidgetEENS_9allocatorIS3_EEE8capacityB7v160006Ev, symObjAddr: 0x3140, symBinAddr: 0x1000057C0, symSize: 0x30 }
  - { offsetInCU: 0x2580E, offset: 0x2580E, size: 0x8, addend: 0x0, symName: __ZNSt3__116allocator_traitsINS_9allocatorINS_10shared_ptrI6WidgetEEEEE8max_sizeB7v160006IS5_vvEEmRKS5_, symObjAddr: 0x3170, symBinAddr: 0x1000057F0, symSize: 0x20 }
  - { offsetInCU: 0x25839, offset: 0x25839, size: 0x8, addend: 0x0, symName: __ZNKSt3__16vectorINS_10shared_ptrI6WidgetEENS_9allocatorIS3_EEE7__allocB7v160006Ev, symObjAddr: 0x3190, symBinAddr: 0x100005810, symSize: 0x20 }
  - { offsetInCU: 0x2585F, offset: 0x2585F, size: 0x8, addend: 0x0, symName: __ZNKSt3__117__compressed_pairIPNS_10shared_ptrI6WidgetEENS_9allocatorIS3_EEE6secondB7v160006Ev, symObjAddr: 0x31B0, symBinAddr: 0x100005830, symSize: 0x20 }
  - { offsetInCU: 0x25885, offset: 0x25885, size: 0x8, addend: 0x0, symName: __ZNKSt3__122__compressed_pair_elemINS_9allocatorINS_10shared_ptrI6WidgetEEEELi1ELb1EE5__getB7v160006Ev, symObjAddr: 0x31D0, symBinAddr: 0x100005850, symSize: 0x10 }
  - { offsetInCU: 0x258AB, offset: 0x258AB, size: 0x8, addend: 0x0, symName: __ZNKSt3__16vectorINS_10shared_ptrI6WidgetEENS_9allocatorIS3_EEE9__end_capB7v160006Ev, symObjAddr: 0x31E0, symBinAddr: 0x100005860, symSize: 0x20 }
  - { offsetInCU: 0x258D1, offset: 0x258D1, size: 0x8, addend: 0x0, symName: __ZNKSt3__117__compressed_pairIPNS_10shared_ptrI6WidgetEENS_9allocatorIS3_EEE5firstB7v160006Ev, symObjAddr: 0x3200, symBinAddr: 0x100005880, symSize: 0x20 }
  - { offsetInCU: 0x258F7, offset: 0x258F7, size: 0x8, addend: 0x0, symName: __ZNKSt3__122__compressed_pair_elemIPNS_10shared_ptrI6WidgetEELi0ELb0EE5__getB7v160006Ev, symObjAddr: 0x3220, symBinAddr: 0x1000058A0, symSize: 0x10 }
  - { offsetInCU: 0x2591D, offset: 0x2591D, size: 0x8, addend: 0x0, symName: __ZNSt3__114__split_bufferINS_10shared_ptrI6WidgetEERNS_9allocatorIS3_EEEC2EmmS6_, symObjAddr: 0x3230, symBinAddr: 0x1000058B0, symSize: 0xD0 }
  - { offsetInCU: 0x25990, offset: 0x25990, size: 0x8, addend: 0x0, symName: __ZNSt3__117__compressed_pairIPNS_10shared_ptrI6WidgetEERNS_9allocatorIS3_EEEC1B7v160006IDnS7_EEOT_OT0_, symObjAddr: 0x3300, symBinAddr: 0x100005980, symSize: 0x30 }
  - { offsetInCU: 0x259E8, offset: 0x259E8, size: 0x8, addend: 0x0, symName: __ZNSt3__114__split_bufferINS_10shared_ptrI6WidgetEERNS_9allocatorIS3_EEE7__allocB7v160006Ev, symObjAddr: 0x3370, symBinAddr: 0x1000059F0, symSize: 0x20 }
  - { offsetInCU: 0x25A0E, offset: 0x25A0E, size: 0x8, addend: 0x0, symName: __ZNSt3__114__split_bufferINS_10shared_ptrI6WidgetEERNS_9allocatorIS3_EEE9__end_capB7v160006Ev, symObjAddr: 0x3390, symBinAddr: 0x100005A10, symSize: 0x20 }
  - { offsetInCU: 0x25A34, offset: 0x25A34, size: 0x8, addend: 0x0, symName: __ZNSt3__117__compressed_pairIPNS_10shared_ptrI6WidgetEERNS_9allocatorIS3_EEEC2B7v160006IDnS7_EEOT_OT0_, symObjAddr: 0x33B0, symBinAddr: 0x100005A30, symSize: 0x40 }
  - { offsetInCU: 0x25A8C, offset: 0x25A8C, size: 0x8, addend: 0x0, symName: __ZNSt3__122__compressed_pair_elemIRNS_9allocatorINS_10shared_ptrI6WidgetEEEELi1ELb0EEC2B7v160006IS6_vEEOT_, symObjAddr: 0x33F0, symBinAddr: 0x100005A70, symSize: 0x20 }
  - { offsetInCU: 0x25ACE, offset: 0x25ACE, size: 0x8, addend: 0x0, symName: __ZNSt3__19allocatorINS_10shared_ptrI6WidgetEEE8allocateB7v160006Em, symObjAddr: 0x3410, symBinAddr: 0x100005A90, symSize: 0x50 }
  - { offsetInCU: 0x25B02, offset: 0x25B02, size: 0x8, addend: 0x0, symName: __ZNSt3__117__compressed_pairIPNS_10shared_ptrI6WidgetEERNS_9allocatorIS3_EEE6secondB7v160006Ev, symObjAddr: 0x3460, symBinAddr: 0x100005AE0, symSize: 0x20 }
  - { offsetInCU: 0x25B28, offset: 0x25B28, size: 0x8, addend: 0x0, symName: __ZNSt3__122__compressed_pair_elemIRNS_9allocatorINS_10shared_ptrI6WidgetEEEELi1ELb0EE5__getB7v160006Ev, symObjAddr: 0x3480, symBinAddr: 0x100005B00, symSize: 0x20 }
  - { offsetInCU: 0x25B4E, offset: 0x25B4E, size: 0x8, addend: 0x0, symName: __ZNSt3__117__compressed_pairIPNS_10shared_ptrI6WidgetEERNS_9allocatorIS3_EEE5firstB7v160006Ev, symObjAddr: 0x34A0, symBinAddr: 0x100005B20, symSize: 0x20 }
  - { offsetInCU: 0x25B74, offset: 0x25B74, size: 0x8, addend: 0x0, symName: __ZNKSt3__16vectorINS_10shared_ptrI6WidgetEENS_9allocatorIS3_EEE17__annotate_deleteB7v160006Ev, symObjAddr: 0x34C0, symBinAddr: 0x100005B40, symSize: 0xB0 }
  - { offsetInCU: 0x25B9A, offset: 0x25B9A, size: 0x8, addend: 0x0, symName: __ZNSt3__116reverse_iteratorIPNS_10shared_ptrI6WidgetEEEC1B7v160006ES4_, symObjAddr: 0x36F0, symBinAddr: 0x100005D70, symSize: 0x30 }
  - { offsetInCU: 0x25BD2, offset: 0x25BD2, size: 0x8, addend: 0x0, symName: __ZNKSt3__116reverse_iteratorIPNS_10shared_ptrI6WidgetEEE4baseB7v160006Ev, symObjAddr: 0x3720, symBinAddr: 0x100005DA0, symSize: 0x20 }
  - { offsetInCU: 0x25BF8, offset: 0x25BF8, size: 0x8, addend: 0x0, symName: __ZNKSt3__16vectorINS_10shared_ptrI6WidgetEENS_9allocatorIS3_EEE14__annotate_newB7v160006Em, symObjAddr: 0x3780, symBinAddr: 0x100005E00, symSize: 0xB0 }
  - { offsetInCU: 0x25C2D, offset: 0x25C2D, size: 0x8, addend: 0x0, symName: __ZNKSt3__16vectorINS_10shared_ptrI6WidgetEENS_9allocatorIS3_EEE31__annotate_contiguous_containerB7v160006EPKvS8_S8_S8_, symObjAddr: 0x3840, symBinAddr: 0x100005EC0, symSize: 0x20 }
  - { offsetInCU: 0x25C7F, offset: 0x25C7F, size: 0x8, addend: 0x0, symName: __ZNKSt3__16vectorINS_10shared_ptrI6WidgetEENS_9allocatorIS3_EEE4dataB7v160006Ev, symObjAddr: 0x3860, symBinAddr: 0x100005EE0, symSize: 0x20 }
  - { offsetInCU: 0x25CA5, offset: 0x25CA5, size: 0x8, addend: 0x0, symName: __ZNSt3__129_AllocatorDestroyRangeReverseINS_9allocatorINS_10shared_ptrI6WidgetEEEENS_16reverse_iteratorIPS4_EEEC1B7v160006ERS5_RS8_SB_, symObjAddr: 0x38E0, symBinAddr: 0x100005F60, symSize: 0x40 }
  - { offsetInCU: 0x25CFC, offset: 0x25CFC, size: 0x8, addend: 0x0, symName: __ZNKSt3__116reverse_iteratorIPNS_10shared_ptrI6WidgetEEEdeB7v160006Ev, symObjAddr: 0x3980, symBinAddr: 0x100006000, symSize: 0x30 }
  - { offsetInCU: 0x25D30, offset: 0x25D30, size: 0x8, addend: 0x0, symName: __ZNSt3__116reverse_iteratorIPNS_10shared_ptrI6WidgetEEEppB7v160006Ev, symObjAddr: 0x39B0, symBinAddr: 0x100006030, symSize: 0x20 }
  - { offsetInCU: 0x25D56, offset: 0x25D56, size: 0x8, addend: 0x0, symName: __ZNSt3__128__exception_guard_exceptionsINS_29_AllocatorDestroyRangeReverseINS_9allocatorINS_10shared_ptrI6WidgetEEEENS_16reverse_iteratorIPS5_EEEEE10__completeB7v160006Ev, symObjAddr: 0x39D0, symBinAddr: 0x100006050, symSize: 0x20 }
  - { offsetInCU: 0x25D7C, offset: 0x25D7C, size: 0x8, addend: 0x0, symName: __ZNSt3__128__exception_guard_exceptionsINS_29_AllocatorDestroyRangeReverseINS_9allocatorINS_10shared_ptrI6WidgetEEEENS_16reverse_iteratorIPS5_EEEEED1B7v160006Ev, symObjAddr: 0x39F0, symBinAddr: 0x100006070, symSize: 0x20 }
  - { offsetInCU: 0x25DA6, offset: 0x25DA6, size: 0x8, addend: 0x0, symName: __ZNSt3__128__exception_guard_exceptionsINS_29_AllocatorDestroyRangeReverseINS_9allocatorINS_10shared_ptrI6WidgetEEEENS_16reverse_iteratorIPS5_EEEEEC1B7v160006ESA_, symObjAddr: 0x3A10, symBinAddr: 0x100006090, symSize: 0x40 }
  - { offsetInCU: 0x25DDE, offset: 0x25DDE, size: 0x8, addend: 0x0, symName: __ZNSt3__128__exception_guard_exceptionsINS_29_AllocatorDestroyRangeReverseINS_9allocatorINS_10shared_ptrI6WidgetEEEENS_16reverse_iteratorIPS5_EEEEEC2B7v160006ESA_, symObjAddr: 0x3A50, symBinAddr: 0x1000060D0, symSize: 0x30 }
  - { offsetInCU: 0x25E16, offset: 0x25E16, size: 0x8, addend: 0x0, symName: __ZNSt3__129_AllocatorDestroyRangeReverseINS_9allocatorINS_10shared_ptrI6WidgetEEEENS_16reverse_iteratorIPS4_EEEC2B7v160006ERS5_RS8_SB_, symObjAddr: 0x3A80, symBinAddr: 0x100006100, symSize: 0x40 }
  - { offsetInCU: 0x25E72, offset: 0x25E72, size: 0x8, addend: 0x0, symName: __ZNSt3__119__to_address_helperINS_16reverse_iteratorIPNS_10shared_ptrI6WidgetEEEEvE6__callB7v160006ERKS6_, symObjAddr: 0x3AC0, symBinAddr: 0x100006140, symSize: 0x40 }
  - { offsetInCU: 0x25E95, offset: 0x25E95, size: 0x8, addend: 0x0, symName: __ZNKSt3__116reverse_iteratorIPNS_10shared_ptrI6WidgetEEEptB7v160006Ev, symObjAddr: 0x3B00, symBinAddr: 0x100006180, symSize: 0x30 }
  - { offsetInCU: 0x25EBB, offset: 0x25EBB, size: 0x8, addend: 0x0, symName: __ZNSt3__128__exception_guard_exceptionsINS_29_AllocatorDestroyRangeReverseINS_9allocatorINS_10shared_ptrI6WidgetEEEENS_16reverse_iteratorIPS5_EEEEED2B7v160006Ev, symObjAddr: 0x3BF0, symBinAddr: 0x100006270, symSize: 0x40 }
  - { offsetInCU: 0x25EE5, offset: 0x25EE5, size: 0x8, addend: 0x0, symName: __ZNKSt3__129_AllocatorDestroyRangeReverseINS_9allocatorINS_10shared_ptrI6WidgetEEEENS_16reverse_iteratorIPS4_EEEclB7v160006Ev, symObjAddr: 0x3C30, symBinAddr: 0x1000062B0, symSize: 0xF0 }
  - { offsetInCU: 0x25F0C, offset: 0x25F0C, size: 0x8, addend: 0x0, symName: __ZNSt3__116reverse_iteratorINS0_IPNS_10shared_ptrI6WidgetEEEEEC1B7v160006ES5_, symObjAddr: 0x3D90, symBinAddr: 0x100006410, symSize: 0x30 }
  - { offsetInCU: 0x25F44, offset: 0x25F44, size: 0x8, addend: 0x0, symName: __ZNSt3__116allocator_traitsINS_9allocatorINS_10shared_ptrI6WidgetEEEEE7destroyB7v160006IS4_vvEEvRS5_PT_, symObjAddr: 0x3E10, symBinAddr: 0x100006490, symSize: 0x20 }
  - { offsetInCU: 0x25F7E, offset: 0x25F7E, size: 0x8, addend: 0x0, symName: __ZNSt3__116reverse_iteratorINS0_IPNS_10shared_ptrI6WidgetEEEEEppB7v160006Ev, symObjAddr: 0x3E50, symBinAddr: 0x1000064D0, symSize: 0x30 }
  - { offsetInCU: 0x25FA4, offset: 0x25FA4, size: 0x8, addend: 0x0, symName: __ZNKSt3__116reverse_iteratorINS0_IPNS_10shared_ptrI6WidgetEEEEE4baseB7v160006Ev, symObjAddr: 0x3E80, symBinAddr: 0x100006500, symSize: 0x20 }
  - { offsetInCU: 0x25FCF, offset: 0x25FCF, size: 0x8, addend: 0x0, symName: __ZNSt3__119__to_address_helperINS_16reverse_iteratorINS1_IPNS_10shared_ptrI6WidgetEEEEEEvE6__callB7v160006ERKS7_, symObjAddr: 0x3EE0, symBinAddr: 0x100006560, symSize: 0x40 }
  - { offsetInCU: 0x25FF2, offset: 0x25FF2, size: 0x8, addend: 0x0, symName: __ZNKSt3__116reverse_iteratorINS0_IPNS_10shared_ptrI6WidgetEEEEEptB7v160006Ev, symObjAddr: 0x3F20, symBinAddr: 0x1000065A0, symSize: 0x50 }
  - { offsetInCU: 0x26018, offset: 0x26018, size: 0x8, addend: 0x0, symName: __ZNSt3__116reverse_iteratorIPNS_10shared_ptrI6WidgetEEEpLB7v160006El, symObjAddr: 0x4050, symBinAddr: 0x1000066D0, symSize: 0x30 }
  - { offsetInCU: 0x2604C, offset: 0x2604C, size: 0x8, addend: 0x0, symName: __ZNSt3__116reverse_iteratorIPNS_10shared_ptrI6WidgetEEEmmB7v160006Ev, symObjAddr: 0x4080, symBinAddr: 0x100006700, symSize: 0x20 }
  - { offsetInCU: 0x26072, offset: 0x26072, size: 0x8, addend: 0x0, symName: __ZNSt3__116reverse_iteratorINS0_IPNS_10shared_ptrI6WidgetEEEEEC2B7v160006ES5_, symObjAddr: 0x40A0, symBinAddr: 0x100006720, symSize: 0x40 }
  - { offsetInCU: 0x260AA, offset: 0x260AA, size: 0x8, addend: 0x0, symName: __ZNSt3__116reverse_iteratorIPNS_10shared_ptrI6WidgetEEEC2B7v160006ES4_, symObjAddr: 0x40E0, symBinAddr: 0x100006760, symSize: 0x30 }
  - { offsetInCU: 0x260E2, offset: 0x260E2, size: 0x8, addend: 0x0, symName: __ZNSt3__114__split_bufferINS_10shared_ptrI6WidgetEERNS_9allocatorIS3_EEED2Ev, symObjAddr: 0x4110, symBinAddr: 0x100006790, symSize: 0x70 }
  - { offsetInCU: 0x2610E, offset: 0x2610E, size: 0x8, addend: 0x0, symName: __ZNSt3__114__split_bufferINS_10shared_ptrI6WidgetEERNS_9allocatorIS3_EEE5clearB7v160006Ev, symObjAddr: 0x4180, symBinAddr: 0x100006800, symSize: 0x20 }
  - { offsetInCU: 0x26134, offset: 0x26134, size: 0x8, addend: 0x0, symName: __ZNSt3__116allocator_traitsINS_9allocatorINS_10shared_ptrI6WidgetEEEEE10deallocateB7v160006ERS5_PS4_m, symObjAddr: 0x41A0, symBinAddr: 0x100006820, symSize: 0x30 }
  - { offsetInCU: 0x26176, offset: 0x26176, size: 0x8, addend: 0x0, symName: __ZNKSt3__114__split_bufferINS_10shared_ptrI6WidgetEERNS_9allocatorIS3_EEE8capacityB7v160006Ev, symObjAddr: 0x41D0, symBinAddr: 0x100006850, symSize: 0x30 }
  - { offsetInCU: 0x2619C, offset: 0x2619C, size: 0x8, addend: 0x0, symName: __ZNSt3__114__split_bufferINS_10shared_ptrI6WidgetEERNS_9allocatorIS3_EEE17__destruct_at_endB7v160006EPS3_, symObjAddr: 0x4200, symBinAddr: 0x100006880, symSize: 0x30 }
  - { offsetInCU: 0x261D0, offset: 0x261D0, size: 0x8, addend: 0x0, symName: __ZNSt3__114__split_bufferINS_10shared_ptrI6WidgetEERNS_9allocatorIS3_EEE17__destruct_at_endB7v160006EPS3_NS_17integral_constantIbLb0EEE, symObjAddr: 0x4230, symBinAddr: 0x1000068B0, symSize: 0x80 }
  - { offsetInCU: 0x26210, offset: 0x26210, size: 0x8, addend: 0x0, symName: __ZNSt3__19allocatorINS_10shared_ptrI6WidgetEEE10deallocateB7v160006EPS3_m, symObjAddr: 0x42B0, symBinAddr: 0x100006930, symSize: 0x40 }
  - { offsetInCU: 0x26252, offset: 0x26252, size: 0x8, addend: 0x0, symName: __ZNKSt3__114__split_bufferINS_10shared_ptrI6WidgetEERNS_9allocatorIS3_EEE9__end_capB7v160006Ev, symObjAddr: 0x42F0, symBinAddr: 0x100006970, symSize: 0x20 }
  - { offsetInCU: 0x26278, offset: 0x26278, size: 0x8, addend: 0x0, symName: __ZNKSt3__117__compressed_pairIPNS_10shared_ptrI6WidgetEERNS_9allocatorIS3_EEE5firstB7v160006Ev, symObjAddr: 0x4310, symBinAddr: 0x100006990, symSize: 0x20 }
  - { offsetInCU: 0x2629E, offset: 0x2629E, size: 0x8, addend: 0x0, symName: __ZN6WidgetC2Ev, symObjAddr: 0x4330, symBinAddr: 0x1000069B0, symSize: 0x20 }
  - { offsetInCU: 0x262CA, offset: 0x262CA, size: 0x8, addend: 0x0, symName: __ZNSt3__16vectorINS_10shared_ptrI6WidgetEENS_9allocatorIS3_EEE22__construct_one_at_endB7v160006IJPS2_RFvS8_EEEEvDpOT_, symObjAddr: 0x4350, symBinAddr: 0x1000069D0, symSize: 0xA0 }
  - { offsetInCU: 0x2632D, offset: 0x2632D, size: 0x8, addend: 0x0, symName: __ZNSt3__16vectorINS_10shared_ptrI6WidgetEENS_9allocatorIS3_EEE24__emplace_back_slow_pathIJPS2_RFvS8_EEEEvDpOT_, symObjAddr: 0x43F0, symBinAddr: 0x100006A70, symSize: 0xE0 }
  - { offsetInCU: 0x263A2, offset: 0x263A2, size: 0x8, addend: 0x0, symName: __ZNSt3__16vectorINS_10shared_ptrI6WidgetEENS_9allocatorIS3_EEE4backB7v160006Ev, symObjAddr: 0x44D0, symBinAddr: 0x100006B50, symSize: 0x20 }
  - { offsetInCU: 0x263C8, offset: 0x263C8, size: 0x8, addend: 0x0, symName: __ZNSt3__116allocator_traitsINS_9allocatorINS_10shared_ptrI6WidgetEEEEE9constructB7v160006IS4_JPS3_RFvS8_EEvvEEvRS5_PT_DpOT0_, symObjAddr: 0x44F0, symBinAddr: 0x100006B70, symSize: 0x30 }
  - { offsetInCU: 0x26430, offset: 0x26430, size: 0x8, addend: 0x0, symName: __ZNSt3__16vectorINS_11basic_regexIcNS_12regex_traitsIcEEEENS_9allocatorIS4_EEEC2B7v160006Ev, symObjAddr: 0x4560, symBinAddr: 0x100006BE0, symSize: 0x60 }
  - { offsetInCU: 0x2645A, offset: 0x2645A, size: 0x8, addend: 0x0, symName: __ZNSt3__117__compressed_pairIPNS_11basic_regexIcNS_12regex_traitsIcEEEENS_9allocatorIS4_EEEC1B7v160006IDnNS_18__default_init_tagEEEOT_OT0_, symObjAddr: 0x45C0, symBinAddr: 0x100006C40, symSize: 0x30 }
  - { offsetInCU: 0x264B2, offset: 0x264B2, size: 0x8, addend: 0x0, symName: __ZNSt3__117__compressed_pairIPNS_11basic_regexIcNS_12regex_traitsIcEEEENS_9allocatorIS4_EEEC2B7v160006IDnNS_18__default_init_tagEEEOT_OT0_, symObjAddr: 0x4600, symBinAddr: 0x100006C80, symSize: 0x40 }
  - { offsetInCU: 0x2650A, offset: 0x2650A, size: 0x8, addend: 0x0, symName: __ZNSt3__122__compressed_pair_elemIPNS_11basic_regexIcNS_12regex_traitsIcEEEELi0ELb0EEC2B7v160006IDnvEEOT_, symObjAddr: 0x4640, symBinAddr: 0x100006CC0, symSize: 0x20 }
  - { offsetInCU: 0x2654C, offset: 0x2654C, size: 0x8, addend: 0x0, symName: __ZNSt3__122__compressed_pair_elemINS_9allocatorINS_11basic_regexIcNS_12regex_traitsIcEEEEEELi1ELb1EEC2B7v160006ENS_18__default_init_tagE, symObjAddr: 0x4660, symBinAddr: 0x100006CE0, symSize: 0x20 }
  - { offsetInCU: 0x26580, offset: 0x26580, size: 0x8, addend: 0x0, symName: __ZNSt3__19allocatorINS_11basic_regexIcNS_12regex_traitsIcEEEEEC2B7v160006Ev, symObjAddr: 0x4680, symBinAddr: 0x100006D00, symSize: 0x20 }
  - { offsetInCU: 0x265AA, offset: 0x265AA, size: 0x8, addend: 0x0, symName: __ZNSt3__116__non_trivial_ifILb1ENS_9allocatorINS_11basic_regexIcNS_12regex_traitsIcEEEEEEEC2B7v160006Ev, symObjAddr: 0x46A0, symBinAddr: 0x100006D20, symSize: 0x10 }
  - { offsetInCU: 0x265D4, offset: 0x265D4, size: 0x8, addend: 0x0, symName: __ZNSt3__16vectorINS_11basic_regexIcNS_12regex_traitsIcEEEENS_9allocatorIS4_EEE9__end_capB7v160006Ev, symObjAddr: 0x46B0, symBinAddr: 0x100006D30, symSize: 0x20 }
  - { offsetInCU: 0x265FA, offset: 0x265FA, size: 0x8, addend: 0x0, symName: __ZNSt3__16vectorINS_11basic_regexIcNS_12regex_traitsIcEEEENS_9allocatorIS4_EEE22__construct_one_at_endB7v160006IJDnEEEvDpOT_, symObjAddr: 0x46D0, symBinAddr: 0x100006D50, symSize: 0x90 }
  - { offsetInCU: 0x26649, offset: 0x26649, size: 0x8, addend: 0x0, symName: __ZNSt3__16vectorINS_11basic_regexIcNS_12regex_traitsIcEEEENS_9allocatorIS4_EEE24__emplace_back_slow_pathIJDnEEEvDpOT_, symObjAddr: 0x4760, symBinAddr: 0x100006DE0, symSize: 0xD0 }
  - { offsetInCU: 0x266A9, offset: 0x266A9, size: 0x8, addend: 0x0, symName: __ZNSt3__16vectorINS_11basic_regexIcNS_12regex_traitsIcEEEENS_9allocatorIS4_EEE4backB7v160006Ev, symObjAddr: 0x4830, symBinAddr: 0x100006EB0, symSize: 0x20 }
  - { offsetInCU: 0x266CF, offset: 0x266CF, size: 0x8, addend: 0x0, symName: __ZNSt3__117__compressed_pairIPNS_11basic_regexIcNS_12regex_traitsIcEEEENS_9allocatorIS4_EEE5firstB7v160006Ev, symObjAddr: 0x4850, symBinAddr: 0x100006ED0, symSize: 0x20 }
  - { offsetInCU: 0x266F5, offset: 0x266F5, size: 0x8, addend: 0x0, symName: __ZNSt3__122__compressed_pair_elemIPNS_11basic_regexIcNS_12regex_traitsIcEEEELi0ELb0EE5__getB7v160006Ev, symObjAddr: 0x4870, symBinAddr: 0x100006EF0, symSize: 0x10 }
  - { offsetInCU: 0x26734, offset: 0x26734, size: 0x8, addend: 0x0, symName: __ZNSt3__16vectorINS_11basic_regexIcNS_12regex_traitsIcEEEENS_9allocatorIS4_EEE21_ConstructTransactionC1B7v160006ERS7_m, symObjAddr: 0x4880, symBinAddr: 0x100006F00, symSize: 0x30 }
  - { offsetInCU: 0x2677C, offset: 0x2677C, size: 0x8, addend: 0x0, symName: __ZNSt3__116allocator_traitsINS_9allocatorINS_11basic_regexIcNS_12regex_traitsIcEEEEEEE9constructB7v160006IS5_JDnEvvEEvRS6_PT_DpOT0_, symObjAddr: 0x48B0, symBinAddr: 0x100006F30, symSize: 0x30 }
  - { offsetInCU: 0x267D0, offset: 0x267D0, size: 0x8, addend: 0x0, symName: __ZNSt3__16vectorINS_11basic_regexIcNS_12regex_traitsIcEEEENS_9allocatorIS4_EEE7__allocB7v160006Ev, symObjAddr: 0x48E0, symBinAddr: 0x100006F60, symSize: 0x20 }
  - { offsetInCU: 0x267F6, offset: 0x267F6, size: 0x8, addend: 0x0, symName: __ZNSt3__16vectorINS_11basic_regexIcNS_12regex_traitsIcEEEENS_9allocatorIS4_EEE21_ConstructTransactionD1B7v160006Ev, symObjAddr: 0x4910, symBinAddr: 0x100006F90, symSize: 0x20 }
  - { offsetInCU: 0x26820, offset: 0x26820, size: 0x8, addend: 0x0, symName: __ZNSt3__16vectorINS_11basic_regexIcNS_12regex_traitsIcEEEENS_9allocatorIS4_EEE21_ConstructTransactionC2B7v160006ERS7_m, symObjAddr: 0x4930, symBinAddr: 0x100006FB0, symSize: 0x40 }
  - { offsetInCU: 0x26868, offset: 0x26868, size: 0x8, addend: 0x0, symName: __ZNSt3__117__compressed_pairIPNS_11basic_regexIcNS_12regex_traitsIcEEEENS_9allocatorIS4_EEE6secondB7v160006Ev, symObjAddr: 0x49B0, symBinAddr: 0x100007030, symSize: 0x20 }
  - { offsetInCU: 0x2688E, offset: 0x2688E, size: 0x8, addend: 0x0, symName: __ZNSt3__122__compressed_pair_elemINS_9allocatorINS_11basic_regexIcNS_12regex_traitsIcEEEEEELi1ELb1EE5__getB7v160006Ev, symObjAddr: 0x49D0, symBinAddr: 0x100007050, symSize: 0x10 }
  - { offsetInCU: 0x268B4, offset: 0x268B4, size: 0x8, addend: 0x0, symName: __ZNSt3__16vectorINS_11basic_regexIcNS_12regex_traitsIcEEEENS_9allocatorIS4_EEE21_ConstructTransactionD2B7v160006Ev, symObjAddr: 0x49E0, symBinAddr: 0x100007060, symSize: 0x20 }
  - { offsetInCU: 0x268DE, offset: 0x268DE, size: 0x8, addend: 0x0, symName: __ZNKSt3__16vectorINS_11basic_regexIcNS_12regex_traitsIcEEEENS_9allocatorIS4_EEE11__recommendB7v160006Em, symObjAddr: 0x4A00, symBinAddr: 0x100007080, symSize: 0xA0 }
  - { offsetInCU: 0x26933, offset: 0x26933, size: 0x8, addend: 0x0, symName: __ZNKSt3__16vectorINS_11basic_regexIcNS_12regex_traitsIcEEEENS_9allocatorIS4_EEE4sizeB7v160006Ev, symObjAddr: 0x4AA0, symBinAddr: 0x100007120, symSize: 0x20 }
  - { offsetInCU: 0x26959, offset: 0x26959, size: 0x8, addend: 0x0, symName: __ZNSt3__114__split_bufferINS_11basic_regexIcNS_12regex_traitsIcEEEERNS_9allocatorIS4_EEEC1EmmS7_, symObjAddr: 0x4AC0, symBinAddr: 0x100007140, symSize: 0x40 }
  - { offsetInCU: 0x269AF, offset: 0x269AF, size: 0x8, addend: 0x0, symName: __ZNSt3__114__split_bufferINS_11basic_regexIcNS_12regex_traitsIcEEEERNS_9allocatorIS4_EEED1Ev, symObjAddr: 0x4C30, symBinAddr: 0x1000072B0, symSize: 0x20 }
  - { offsetInCU: 0x269DB, offset: 0x269DB, size: 0x8, addend: 0x0, symName: __ZNKSt3__16vectorINS_11basic_regexIcNS_12regex_traitsIcEEEENS_9allocatorIS4_EEE8max_sizeEv, symObjAddr: 0x4C50, symBinAddr: 0x1000072D0, symSize: 0x60 }
  - { offsetInCU: 0x26A03, offset: 0x26A03, size: 0x8, addend: 0x0, symName: __ZNKSt3__16vectorINS_11basic_regexIcNS_12regex_traitsIcEEEENS_9allocatorIS4_EEE20__throw_length_errorB7v160006Ev, symObjAddr: 0x4CB0, symBinAddr: 0x100007330, symSize: 0x20 }
  - { offsetInCU: 0x26A29, offset: 0x26A29, size: 0x8, addend: 0x0, symName: __ZNKSt3__16vectorINS_11basic_regexIcNS_12regex_traitsIcEEEENS_9allocatorIS4_EEE8capacityB7v160006Ev, symObjAddr: 0x4CD0, symBinAddr: 0x100007350, symSize: 0x30 }
  - { offsetInCU: 0x26A59, offset: 0x26A59, size: 0x8, addend: 0x0, symName: __ZNSt3__116allocator_traitsINS_9allocatorINS_11basic_regexIcNS_12regex_traitsIcEEEEEEE8max_sizeB7v160006IS6_vvEEmRKS6_, symObjAddr: 0x4D00, symBinAddr: 0x100007380, symSize: 0x20 }
  - { offsetInCU: 0x26A84, offset: 0x26A84, size: 0x8, addend: 0x0, symName: __ZNKSt3__16vectorINS_11basic_regexIcNS_12regex_traitsIcEEEENS_9allocatorIS4_EEE7__allocB7v160006Ev, symObjAddr: 0x4D20, symBinAddr: 0x1000073A0, symSize: 0x20 }
  - { offsetInCU: 0x26AAA, offset: 0x26AAA, size: 0x8, addend: 0x0, symName: __ZNKSt3__117__compressed_pairIPNS_11basic_regexIcNS_12regex_traitsIcEEEENS_9allocatorIS4_EEE6secondB7v160006Ev, symObjAddr: 0x4D40, symBinAddr: 0x1000073C0, symSize: 0x20 }
  - { offsetInCU: 0x26AD0, offset: 0x26AD0, size: 0x8, addend: 0x0, symName: __ZNKSt3__122__compressed_pair_elemINS_9allocatorINS_11basic_regexIcNS_12regex_traitsIcEEEEEELi1ELb1EE5__getB7v160006Ev, symObjAddr: 0x4D60, symBinAddr: 0x1000073E0, symSize: 0x10 }
  - { offsetInCU: 0x26AF6, offset: 0x26AF6, size: 0x8, addend: 0x0, symName: __ZNKSt3__16vectorINS_11basic_regexIcNS_12regex_traitsIcEEEENS_9allocatorIS4_EEE9__end_capB7v160006Ev, symObjAddr: 0x4D70, symBinAddr: 0x1000073F0, symSize: 0x20 }
  - { offsetInCU: 0x26B1C, offset: 0x26B1C, size: 0x8, addend: 0x0, symName: __ZNKSt3__117__compressed_pairIPNS_11basic_regexIcNS_12regex_traitsIcEEEENS_9allocatorIS4_EEE5firstB7v160006Ev, symObjAddr: 0x4D90, symBinAddr: 0x100007410, symSize: 0x20 }
  - { offsetInCU: 0x26B42, offset: 0x26B42, size: 0x8, addend: 0x0, symName: __ZNKSt3__122__compressed_pair_elemIPNS_11basic_regexIcNS_12regex_traitsIcEEEELi0ELb0EE5__getB7v160006Ev, symObjAddr: 0x4DB0, symBinAddr: 0x100007430, symSize: 0x10 }
  - { offsetInCU: 0x26B68, offset: 0x26B68, size: 0x8, addend: 0x0, symName: __ZNSt3__114__split_bufferINS_11basic_regexIcNS_12regex_traitsIcEEEERNS_9allocatorIS4_EEEC2EmmS7_, symObjAddr: 0x4DC0, symBinAddr: 0x100007440, symSize: 0xD0 }
  - { offsetInCU: 0x26BDB, offset: 0x26BDB, size: 0x8, addend: 0x0, symName: __ZNSt3__117__compressed_pairIPNS_11basic_regexIcNS_12regex_traitsIcEEEERNS_9allocatorIS4_EEEC1B7v160006IDnS8_EEOT_OT0_, symObjAddr: 0x4E90, symBinAddr: 0x100007510, symSize: 0x30 }
  - { offsetInCU: 0x26C33, offset: 0x26C33, size: 0x8, addend: 0x0, symName: __ZNSt3__114__split_bufferINS_11basic_regexIcNS_12regex_traitsIcEEEERNS_9allocatorIS4_EEE7__allocB7v160006Ev, symObjAddr: 0x4F00, symBinAddr: 0x100007580, symSize: 0x20 }
  - { offsetInCU: 0x26C59, offset: 0x26C59, size: 0x8, addend: 0x0, symName: __ZNSt3__114__split_bufferINS_11basic_regexIcNS_12regex_traitsIcEEEERNS_9allocatorIS4_EEE9__end_capB7v160006Ev, symObjAddr: 0x4F20, symBinAddr: 0x1000075A0, symSize: 0x20 }
  - { offsetInCU: 0x26C7F, offset: 0x26C7F, size: 0x8, addend: 0x0, symName: __ZNSt3__117__compressed_pairIPNS_11basic_regexIcNS_12regex_traitsIcEEEERNS_9allocatorIS4_EEEC2B7v160006IDnS8_EEOT_OT0_, symObjAddr: 0x4F40, symBinAddr: 0x1000075C0, symSize: 0x40 }
  - { offsetInCU: 0x26CD7, offset: 0x26CD7, size: 0x8, addend: 0x0, symName: __ZNSt3__122__compressed_pair_elemIRNS_9allocatorINS_11basic_regexIcNS_12regex_traitsIcEEEEEELi1ELb0EEC2B7v160006IS7_vEEOT_, symObjAddr: 0x4F80, symBinAddr: 0x100007600, symSize: 0x20 }
  - { offsetInCU: 0x26D19, offset: 0x26D19, size: 0x8, addend: 0x0, symName: __ZNSt3__19allocatorINS_11basic_regexIcNS_12regex_traitsIcEEEEE8allocateB7v160006Em, symObjAddr: 0x4FA0, symBinAddr: 0x100007620, symSize: 0x50 }
  - { offsetInCU: 0x26D4D, offset: 0x26D4D, size: 0x8, addend: 0x0, symName: __ZNSt3__117__compressed_pairIPNS_11basic_regexIcNS_12regex_traitsIcEEEERNS_9allocatorIS4_EEE6secondB7v160006Ev, symObjAddr: 0x4FF0, symBinAddr: 0x100007670, symSize: 0x20 }
  - { offsetInCU: 0x26D73, offset: 0x26D73, size: 0x8, addend: 0x0, symName: __ZNSt3__122__compressed_pair_elemIRNS_9allocatorINS_11basic_regexIcNS_12regex_traitsIcEEEEEELi1ELb0EE5__getB7v160006Ev, symObjAddr: 0x5010, symBinAddr: 0x100007690, symSize: 0x20 }
  - { offsetInCU: 0x26D99, offset: 0x26D99, size: 0x8, addend: 0x0, symName: __ZNSt3__117__compressed_pairIPNS_11basic_regexIcNS_12regex_traitsIcEEEERNS_9allocatorIS4_EEE5firstB7v160006Ev, symObjAddr: 0x5030, symBinAddr: 0x1000076B0, symSize: 0x20 }
  - { offsetInCU: 0x26DBF, offset: 0x26DBF, size: 0x8, addend: 0x0, symName: __ZNKSt3__16vectorINS_11basic_regexIcNS_12regex_traitsIcEEEENS_9allocatorIS4_EEE17__annotate_deleteB7v160006Ev, symObjAddr: 0x5050, symBinAddr: 0x1000076D0, symSize: 0xB0 }
  - { offsetInCU: 0x26DE5, offset: 0x26DE5, size: 0x8, addend: 0x0, symName: __ZNSt3__116reverse_iteratorIPNS_11basic_regexIcNS_12regex_traitsIcEEEEEC1B7v160006ES5_, symObjAddr: 0x5280, symBinAddr: 0x100007900, symSize: 0x30 }
  - { offsetInCU: 0x26E1D, offset: 0x26E1D, size: 0x8, addend: 0x0, symName: __ZNKSt3__116reverse_iteratorIPNS_11basic_regexIcNS_12regex_traitsIcEEEEE4baseB7v160006Ev, symObjAddr: 0x52B0, symBinAddr: 0x100007930, symSize: 0x20 }
  - { offsetInCU: 0x26E43, offset: 0x26E43, size: 0x8, addend: 0x0, symName: __ZNKSt3__16vectorINS_11basic_regexIcNS_12regex_traitsIcEEEENS_9allocatorIS4_EEE14__annotate_newB7v160006Em, symObjAddr: 0x5310, symBinAddr: 0x100007990, symSize: 0xB0 }
  - { offsetInCU: 0x26E78, offset: 0x26E78, size: 0x8, addend: 0x0, symName: __ZNKSt3__16vectorINS_11basic_regexIcNS_12regex_traitsIcEEEENS_9allocatorIS4_EEE31__annotate_contiguous_containerB7v160006EPKvS9_S9_S9_, symObjAddr: 0x53D0, symBinAddr: 0x100007A50, symSize: 0x20 }
  - { offsetInCU: 0x26ECA, offset: 0x26ECA, size: 0x8, addend: 0x0, symName: __ZNKSt3__16vectorINS_11basic_regexIcNS_12regex_traitsIcEEEENS_9allocatorIS4_EEE4dataB7v160006Ev, symObjAddr: 0x53F0, symBinAddr: 0x100007A70, symSize: 0x20 }
  - { offsetInCU: 0x26EF0, offset: 0x26EF0, size: 0x8, addend: 0x0, symName: __ZNSt3__129_AllocatorDestroyRangeReverseINS_9allocatorINS_11basic_regexIcNS_12regex_traitsIcEEEEEENS_16reverse_iteratorIPS5_EEEC1B7v160006ERS6_RS9_SC_, symObjAddr: 0x5470, symBinAddr: 0x100007AF0, symSize: 0x40 }
  - { offsetInCU: 0x26F4C, offset: 0x26F4C, size: 0x8, addend: 0x0, symName: __ZNSt3__116allocator_traitsINS_9allocatorINS_11basic_regexIcNS_12regex_traitsIcEEEEEEE9constructB7v160006IS5_JS5_EvvEEvRS6_PT_DpOT0_, symObjAddr: 0x54F0, symBinAddr: 0x100007B70, symSize: 0x30 }
  - { offsetInCU: 0x26FA0, offset: 0x26FA0, size: 0x8, addend: 0x0, symName: __ZNKSt3__116reverse_iteratorIPNS_11basic_regexIcNS_12regex_traitsIcEEEEEdeB7v160006Ev, symObjAddr: 0x5540, symBinAddr: 0x100007BC0, symSize: 0x30 }
  - { offsetInCU: 0x26FD4, offset: 0x26FD4, size: 0x8, addend: 0x0, symName: __ZNSt3__116reverse_iteratorIPNS_11basic_regexIcNS_12regex_traitsIcEEEEEppB7v160006Ev, symObjAddr: 0x5570, symBinAddr: 0x100007BF0, symSize: 0x20 }
  - { offsetInCU: 0x26FFA, offset: 0x26FFA, size: 0x8, addend: 0x0, symName: __ZNSt3__128__exception_guard_exceptionsINS_29_AllocatorDestroyRangeReverseINS_9allocatorINS_11basic_regexIcNS_12regex_traitsIcEEEEEENS_16reverse_iteratorIPS6_EEEEE10__completeB7v160006Ev, symObjAddr: 0x5590, symBinAddr: 0x100007C10, symSize: 0x20 }
  - { offsetInCU: 0x27020, offset: 0x27020, size: 0x8, addend: 0x0, symName: __ZNSt3__128__exception_guard_exceptionsINS_29_AllocatorDestroyRangeReverseINS_9allocatorINS_11basic_regexIcNS_12regex_traitsIcEEEEEENS_16reverse_iteratorIPS6_EEEEED1B7v160006Ev, symObjAddr: 0x55B0, symBinAddr: 0x100007C30, symSize: 0x20 }
  - { offsetInCU: 0x2704A, offset: 0x2704A, size: 0x8, addend: 0x0, symName: __ZNSt3__128__exception_guard_exceptionsINS_29_AllocatorDestroyRangeReverseINS_9allocatorINS_11basic_regexIcNS_12regex_traitsIcEEEEEENS_16reverse_iteratorIPS6_EEEEEC1B7v160006ESB_, symObjAddr: 0x55D0, symBinAddr: 0x100007C50, symSize: 0x40 }
  - { offsetInCU: 0x27082, offset: 0x27082, size: 0x8, addend: 0x0, symName: __ZNSt3__128__exception_guard_exceptionsINS_29_AllocatorDestroyRangeReverseINS_9allocatorINS_11basic_regexIcNS_12regex_traitsIcEEEEEENS_16reverse_iteratorIPS6_EEEEEC2B7v160006ESB_, symObjAddr: 0x5610, symBinAddr: 0x100007C90, symSize: 0x30 }
  - { offsetInCU: 0x270BA, offset: 0x270BA, size: 0x8, addend: 0x0, symName: __ZNSt3__129_AllocatorDestroyRangeReverseINS_9allocatorINS_11basic_regexIcNS_12regex_traitsIcEEEEEENS_16reverse_iteratorIPS5_EEEC2B7v160006ERS6_RS9_SC_, symObjAddr: 0x5640, symBinAddr: 0x100007CC0, symSize: 0x40 }
  - { offsetInCU: 0x27111, offset: 0x27111, size: 0x8, addend: 0x0, symName: __ZNSt3__111basic_regexIcNS_12regex_traitsIcEEEC1EOS3_, symObjAddr: 0x56C0, symBinAddr: 0x100007D40, symSize: 0x30 }
  - { offsetInCU: 0x27147, offset: 0x27147, size: 0x8, addend: 0x0, symName: __ZNSt3__111basic_regexIcNS_12regex_traitsIcEEEC2EOS3_, symObjAddr: 0x56F0, symBinAddr: 0x100007D70, symSize: 0x60 }
  - { offsetInCU: 0x27182, offset: 0x27182, size: 0x8, addend: 0x0, symName: __ZNSt3__112regex_traitsIcEC1EOS1_, symObjAddr: 0x5750, symBinAddr: 0x100007DD0, symSize: 0x30 }
  - { offsetInCU: 0x271B8, offset: 0x271B8, size: 0x8, addend: 0x0, symName: __ZNSt3__110shared_ptrINS_13__empty_stateIcEEEC1B7v160006EOS3_, symObjAddr: 0x5780, symBinAddr: 0x100007E00, symSize: 0x30 }
  - { offsetInCU: 0x271F1, offset: 0x271F1, size: 0x8, addend: 0x0, symName: __ZNSt3__112regex_traitsIcEC2EOS1_, symObjAddr: 0x57B0, symBinAddr: 0x100007E30, symSize: 0x40 }
  - { offsetInCU: 0x27227, offset: 0x27227, size: 0x8, addend: 0x0, symName: __ZNSt3__110shared_ptrINS_13__empty_stateIcEEEC2B7v160006EOS3_, symObjAddr: 0x57F0, symBinAddr: 0x100007E70, symSize: 0x40 }
  - { offsetInCU: 0x27265, offset: 0x27265, size: 0x8, addend: 0x0, symName: __ZNSt3__119__to_address_helperINS_16reverse_iteratorIPNS_11basic_regexIcNS_12regex_traitsIcEEEEEEvE6__callB7v160006ERKS7_, symObjAddr: 0x5830, symBinAddr: 0x100007EB0, symSize: 0x40 }
  - { offsetInCU: 0x27288, offset: 0x27288, size: 0x8, addend: 0x0, symName: __ZNKSt3__116reverse_iteratorIPNS_11basic_regexIcNS_12regex_traitsIcEEEEEptB7v160006Ev, symObjAddr: 0x5870, symBinAddr: 0x100007EF0, symSize: 0x30 }
  - { offsetInCU: 0x272AE, offset: 0x272AE, size: 0x8, addend: 0x0, symName: __ZNSt3__128__exception_guard_exceptionsINS_29_AllocatorDestroyRangeReverseINS_9allocatorINS_11basic_regexIcNS_12regex_traitsIcEEEEEENS_16reverse_iteratorIPS6_EEEEED2B7v160006Ev, symObjAddr: 0x5960, symBinAddr: 0x100007FE0, symSize: 0x40 }
  - { offsetInCU: 0x272D8, offset: 0x272D8, size: 0x8, addend: 0x0, symName: __ZNKSt3__129_AllocatorDestroyRangeReverseINS_9allocatorINS_11basic_regexIcNS_12regex_traitsIcEEEEEENS_16reverse_iteratorIPS5_EEEclB7v160006Ev, symObjAddr: 0x59A0, symBinAddr: 0x100008020, symSize: 0xF0 }
  - { offsetInCU: 0x272FF, offset: 0x272FF, size: 0x8, addend: 0x0, symName: __ZNSt3__116reverse_iteratorINS0_IPNS_11basic_regexIcNS_12regex_traitsIcEEEEEEEC1B7v160006ES6_, symObjAddr: 0x5B00, symBinAddr: 0x100008180, symSize: 0x30 }
  - { offsetInCU: 0x27337, offset: 0x27337, size: 0x8, addend: 0x0, symName: __ZNSt3__116allocator_traitsINS_9allocatorINS_11basic_regexIcNS_12regex_traitsIcEEEEEEE7destroyB7v160006IS5_vvEEvRS6_PT_, symObjAddr: 0x5B80, symBinAddr: 0x100008200, symSize: 0x20 }
  - { offsetInCU: 0x27371, offset: 0x27371, size: 0x8, addend: 0x0, symName: __ZNSt3__116reverse_iteratorINS0_IPNS_11basic_regexIcNS_12regex_traitsIcEEEEEEEppB7v160006Ev, symObjAddr: 0x5BC0, symBinAddr: 0x100008240, symSize: 0x30 }
  - { offsetInCU: 0x27397, offset: 0x27397, size: 0x8, addend: 0x0, symName: __ZNKSt3__116reverse_iteratorINS0_IPNS_11basic_regexIcNS_12regex_traitsIcEEEEEEE4baseB7v160006Ev, symObjAddr: 0x5BF0, symBinAddr: 0x100008270, symSize: 0x20 }
  - { offsetInCU: 0x273C2, offset: 0x273C2, size: 0x8, addend: 0x0, symName: __ZNSt3__119__to_address_helperINS_16reverse_iteratorINS1_IPNS_11basic_regexIcNS_12regex_traitsIcEEEEEEEEvE6__callB7v160006ERKS8_, symObjAddr: 0x5C50, symBinAddr: 0x1000082D0, symSize: 0x40 }
  - { offsetInCU: 0x273E5, offset: 0x273E5, size: 0x8, addend: 0x0, symName: __ZNKSt3__116reverse_iteratorINS0_IPNS_11basic_regexIcNS_12regex_traitsIcEEEEEEEptB7v160006Ev, symObjAddr: 0x5C90, symBinAddr: 0x100008310, symSize: 0x50 }
  - { offsetInCU: 0x2740B, offset: 0x2740B, size: 0x8, addend: 0x0, symName: __ZNSt3__116reverse_iteratorIPNS_11basic_regexIcNS_12regex_traitsIcEEEEEpLB7v160006El, symObjAddr: 0x5DC0, symBinAddr: 0x100008440, symSize: 0x30 }
  - { offsetInCU: 0x2743F, offset: 0x2743F, size: 0x8, addend: 0x0, symName: __ZNSt3__116reverse_iteratorIPNS_11basic_regexIcNS_12regex_traitsIcEEEEEmmB7v160006Ev, symObjAddr: 0x5DF0, symBinAddr: 0x100008470, symSize: 0x20 }
  - { offsetInCU: 0x27465, offset: 0x27465, size: 0x8, addend: 0x0, symName: __ZNSt3__116reverse_iteratorINS0_IPNS_11basic_regexIcNS_12regex_traitsIcEEEEEEEC2B7v160006ES6_, symObjAddr: 0x5E10, symBinAddr: 0x100008490, symSize: 0x40 }
  - { offsetInCU: 0x2749D, offset: 0x2749D, size: 0x8, addend: 0x0, symName: __ZNSt3__116reverse_iteratorIPNS_11basic_regexIcNS_12regex_traitsIcEEEEEC2B7v160006ES5_, symObjAddr: 0x5E50, symBinAddr: 0x1000084D0, symSize: 0x30 }
  - { offsetInCU: 0x274D5, offset: 0x274D5, size: 0x8, addend: 0x0, symName: __ZNSt3__114__split_bufferINS_11basic_regexIcNS_12regex_traitsIcEEEERNS_9allocatorIS4_EEED2Ev, symObjAddr: 0x5E80, symBinAddr: 0x100008500, symSize: 0x70 }
  - { offsetInCU: 0x27501, offset: 0x27501, size: 0x8, addend: 0x0, symName: __ZNSt3__114__split_bufferINS_11basic_regexIcNS_12regex_traitsIcEEEERNS_9allocatorIS4_EEE5clearB7v160006Ev, symObjAddr: 0x5EF0, symBinAddr: 0x100008570, symSize: 0x20 }
  - { offsetInCU: 0x27527, offset: 0x27527, size: 0x8, addend: 0x0, symName: __ZNSt3__116allocator_traitsINS_9allocatorINS_11basic_regexIcNS_12regex_traitsIcEEEEEEE10deallocateB7v160006ERS6_PS5_m, symObjAddr: 0x5F10, symBinAddr: 0x100008590, symSize: 0x30 }
  - { offsetInCU: 0x27569, offset: 0x27569, size: 0x8, addend: 0x0, symName: __ZNKSt3__114__split_bufferINS_11basic_regexIcNS_12regex_traitsIcEEEERNS_9allocatorIS4_EEE8capacityB7v160006Ev, symObjAddr: 0x5F40, symBinAddr: 0x1000085C0, symSize: 0x30 }
  - { offsetInCU: 0x2758F, offset: 0x2758F, size: 0x8, addend: 0x0, symName: __ZNSt3__114__split_bufferINS_11basic_regexIcNS_12regex_traitsIcEEEERNS_9allocatorIS4_EEE17__destruct_at_endB7v160006EPS4_, symObjAddr: 0x5F70, symBinAddr: 0x1000085F0, symSize: 0x30 }
  - { offsetInCU: 0x275C3, offset: 0x275C3, size: 0x8, addend: 0x0, symName: __ZNSt3__114__split_bufferINS_11basic_regexIcNS_12regex_traitsIcEEEERNS_9allocatorIS4_EEE17__destruct_at_endB7v160006EPS4_NS_17integral_constantIbLb0EEE, symObjAddr: 0x5FA0, symBinAddr: 0x100008620, symSize: 0x80 }
  - { offsetInCU: 0x27603, offset: 0x27603, size: 0x8, addend: 0x0, symName: __ZNSt3__19allocatorINS_11basic_regexIcNS_12regex_traitsIcEEEEE10deallocateB7v160006EPS4_m, symObjAddr: 0x6020, symBinAddr: 0x1000086A0, symSize: 0x40 }
  - { offsetInCU: 0x27645, offset: 0x27645, size: 0x8, addend: 0x0, symName: __ZNKSt3__114__split_bufferINS_11basic_regexIcNS_12regex_traitsIcEEEERNS_9allocatorIS4_EEE9__end_capB7v160006Ev, symObjAddr: 0x6060, symBinAddr: 0x1000086E0, symSize: 0x20 }
  - { offsetInCU: 0x2766B, offset: 0x2766B, size: 0x8, addend: 0x0, symName: __ZNKSt3__117__compressed_pairIPNS_11basic_regexIcNS_12regex_traitsIcEEEERNS_9allocatorIS4_EEE5firstB7v160006Ev, symObjAddr: 0x6080, symBinAddr: 0x100008700, symSize: 0x20 }
  - { offsetInCU: 0x27691, offset: 0x27691, size: 0x8, addend: 0x0, symName: __ZNSt3__111basic_regexIcNS_12regex_traitsIcEEED2Ev, symObjAddr: 0x60A0, symBinAddr: 0x100008720, symSize: 0x30 }
  - { offsetInCU: 0x276BE, offset: 0x276BE, size: 0x8, addend: 0x0, symName: __ZNSt3__110shared_ptrINS_13__empty_stateIcEEED1B7v160006Ev, symObjAddr: 0x60D0, symBinAddr: 0x100008750, symSize: 0x20 }
  - { offsetInCU: 0x276E8, offset: 0x276E8, size: 0x8, addend: 0x0, symName: __ZNSt3__112regex_traitsIcED1Ev, symObjAddr: 0x60F0, symBinAddr: 0x100008770, symSize: 0x20 }
  - { offsetInCU: 0x27715, offset: 0x27715, size: 0x8, addend: 0x0, symName: __ZNSt3__110shared_ptrINS_13__empty_stateIcEEED2B7v160006Ev, symObjAddr: 0x6110, symBinAddr: 0x100008790, symSize: 0x40 }
  - { offsetInCU: 0x2773F, offset: 0x2773F, size: 0x8, addend: 0x0, symName: __ZNSt3__119__shared_weak_count16__release_sharedB7v160006Ev, symObjAddr: 0x6150, symBinAddr: 0x1000087D0, symSize: 0x40 }
  - { offsetInCU: 0x27765, offset: 0x27765, size: 0x8, addend: 0x0, symName: __ZNSt3__114__shared_count16__release_sharedB7v160006Ev, symObjAddr: 0x6190, symBinAddr: 0x100008810, symSize: 0x50 }
  - { offsetInCU: 0x2778B, offset: 0x2778B, size: 0x8, addend: 0x0, symName: __ZNSt3__112regex_traitsIcED2Ev, symObjAddr: 0x6210, symBinAddr: 0x100008890, symSize: 0x20 }
  - { offsetInCU: 0x277B8, offset: 0x277B8, size: 0x8, addend: 0x0, symName: __ZNSt3__16vectorINS_11basic_regexIcNS_12regex_traitsIcEEEENS_9allocatorIS4_EEED2B7v160006Ev, symObjAddr: 0x6230, symBinAddr: 0x1000088B0, symSize: 0x40 }
  - { offsetInCU: 0x277E2, offset: 0x277E2, size: 0x8, addend: 0x0, symName: __ZNSt3__16vectorINS_11basic_regexIcNS_12regex_traitsIcEEEENS_9allocatorIS4_EEE16__destroy_vectorC1ERS7_, symObjAddr: 0x6270, symBinAddr: 0x1000088F0, symSize: 0x30 }
  - { offsetInCU: 0x2781B, offset: 0x2781B, size: 0x8, addend: 0x0, symName: __ZNSt3__16vectorINS_11basic_regexIcNS_12regex_traitsIcEEEENS_9allocatorIS4_EEE16__destroy_vectorclB7v160006Ev, symObjAddr: 0x62A0, symBinAddr: 0x100008920, symSize: 0x90 }
  - { offsetInCU: 0x27841, offset: 0x27841, size: 0x8, addend: 0x0, symName: __ZNSt3__16vectorINS_11basic_regexIcNS_12regex_traitsIcEEEENS_9allocatorIS4_EEE16__destroy_vectorC2ERS7_, symObjAddr: 0x6330, symBinAddr: 0x1000089B0, symSize: 0x20 }
  - { offsetInCU: 0x2787A, offset: 0x2787A, size: 0x8, addend: 0x0, symName: __ZNSt3__16vectorINS_11basic_regexIcNS_12regex_traitsIcEEEENS_9allocatorIS4_EEE7__clearB7v160006Ev, symObjAddr: 0x6360, symBinAddr: 0x1000089E0, symSize: 0x20 }
  - { offsetInCU: 0x278A0, offset: 0x278A0, size: 0x8, addend: 0x0, symName: __ZNSt3__16vectorINS_11basic_regexIcNS_12regex_traitsIcEEEENS_9allocatorIS4_EEE22__base_destruct_at_endB7v160006EPS4_, symObjAddr: 0x6380, symBinAddr: 0x100008A00, symSize: 0x80 }
  - { offsetInCU: 0x278E4, offset: 0x278E4, size: 0x8, addend: 0x0, symName: __ZNSt3__16vectorINS_10shared_ptrI6WidgetEENS_9allocatorIS3_EEED2B7v160006Ev, symObjAddr: 0x6400, symBinAddr: 0x100008A80, symSize: 0x40 }
  - { offsetInCU: 0x2790E, offset: 0x2790E, size: 0x8, addend: 0x0, symName: __ZNSt3__16vectorINS_10shared_ptrI6WidgetEENS_9allocatorIS3_EEE16__destroy_vectorC1ERS6_, symObjAddr: 0x6440, symBinAddr: 0x100008AC0, symSize: 0x30 }
  - { offsetInCU: 0x27947, offset: 0x27947, size: 0x8, addend: 0x0, symName: __ZNSt3__16vectorINS_10shared_ptrI6WidgetEENS_9allocatorIS3_EEE16__destroy_vectorclB7v160006Ev, symObjAddr: 0x6470, symBinAddr: 0x100008AF0, symSize: 0x90 }
  - { offsetInCU: 0x2796D, offset: 0x2796D, size: 0x8, addend: 0x0, symName: __ZNSt3__16vectorINS_10shared_ptrI6WidgetEENS_9allocatorIS3_EEE16__destroy_vectorC2ERS6_, symObjAddr: 0x6500, symBinAddr: 0x100008B80, symSize: 0x20 }
  - { offsetInCU: 0x279A6, offset: 0x279A6, size: 0x8, addend: 0x0, symName: __ZNSt3__16vectorINS_10shared_ptrI6WidgetEENS_9allocatorIS3_EEE7__clearB7v160006Ev, symObjAddr: 0x6530, symBinAddr: 0x100008BB0, symSize: 0x20 }
  - { offsetInCU: 0x279CC, offset: 0x279CC, size: 0x8, addend: 0x0, symName: __ZNSt3__16vectorINS_10shared_ptrI6WidgetEENS_9allocatorIS3_EEE22__base_destruct_at_endB7v160006EPS3_, symObjAddr: 0x6550, symBinAddr: 0x100008BD0, symSize: 0x80 }
  - { offsetInCU: 0x27A10, offset: 0x27A10, size: 0x8, addend: 0x0, symName: __ZNSt3__16vectorINS_12basic_stringIcNS_11char_traitsIcEENS_9allocatorIcEEEENS4_IS6_EEED2B7v160006Ev, symObjAddr: 0x65D0, symBinAddr: 0x100008C50, symSize: 0x40 }
  - { offsetInCU: 0x27A3A, offset: 0x27A3A, size: 0x8, addend: 0x0, symName: __ZNSt3__16vectorINS_12basic_stringIcNS_11char_traitsIcEENS_9allocatorIcEEEENS4_IS6_EEE16__destroy_vectorC1ERS8_, symObjAddr: 0x6610, symBinAddr: 0x100008C90, symSize: 0x30 }
  - { offsetInCU: 0x27A73, offset: 0x27A73, size: 0x8, addend: 0x0, symName: __ZNSt3__16vectorINS_12basic_stringIcNS_11char_traitsIcEENS_9allocatorIcEEEENS4_IS6_EEE16__destroy_vectorclB7v160006Ev, symObjAddr: 0x6640, symBinAddr: 0x100008CC0, symSize: 0x90 }
  - { offsetInCU: 0x27A99, offset: 0x27A99, size: 0x8, addend: 0x0, symName: __ZNSt3__16vectorINS_12basic_stringIcNS_11char_traitsIcEENS_9allocatorIcEEEENS4_IS6_EEE16__destroy_vectorC2ERS8_, symObjAddr: 0x66D0, symBinAddr: 0x100008D50, symSize: 0x20 }
  - { offsetInCU: 0x27AD2, offset: 0x27AD2, size: 0x8, addend: 0x0, symName: __ZNSt3__16vectorINS_12basic_stringIcNS_11char_traitsIcEENS_9allocatorIcEEEENS4_IS6_EEE7__clearB7v160006Ev, symObjAddr: 0x6700, symBinAddr: 0x100008D80, symSize: 0x20 }
  - { offsetInCU: 0x27AF8, offset: 0x27AF8, size: 0x8, addend: 0x0, symName: __ZNSt3__16vectorINS_12basic_stringIcNS_11char_traitsIcEENS_9allocatorIcEEEENS4_IS6_EEE22__base_destruct_at_endB7v160006EPS6_, symObjAddr: 0x6720, symBinAddr: 0x100008DA0, symSize: 0x80 }
  - { offsetInCU: 0x27B3C, offset: 0x27B3C, size: 0x8, addend: 0x0, symName: __ZNSt3__110shared_ptrI6WidgetED2B7v160006Ev, symObjAddr: 0x67A0, symBinAddr: 0x100008E20, symSize: 0x40 }
  - { offsetInCU: 0x27B66, offset: 0x27B66, size: 0x8, addend: 0x0, symName: __ZNSt3__110shared_ptrI6WidgetEC2B7v160006IS1_PFvPS1_EvEEPT_T0_, symObjAddr: 0x67E0, symBinAddr: 0x100008E60, symSize: 0x110 }
  - { offsetInCU: 0x27BCB, offset: 0x27BCB, size: 0x8, addend: 0x0, symName: __ZNSt3__19allocatorI6WidgetEC1B7v160006Ev, symObjAddr: 0x68F0, symBinAddr: 0x100008F70, symSize: 0x20 }
  - { offsetInCU: 0x27CB8, offset: 0x27CB8, size: 0x8, addend: 0x0, symName: __ZNSt3__120__shared_ptr_pointerIP6WidgetPFvS2_ENS_9allocatorIS1_EEEC1B7v160006ES2_S4_S6_, symObjAddr: 0x6910, symBinAddr: 0x100008F90, symSize: 0x30 }
  - { offsetInCU: 0x27D0C, offset: 0x27D0C, size: 0x8, addend: 0x0, symName: __ZNSt3__110shared_ptrI6WidgetE18__enable_weak_thisB7v160006Ez, symObjAddr: 0x6940, symBinAddr: 0x100008FC0, symSize: 0x10 }
  - { offsetInCU: 0x27D33, offset: 0x27D33, size: 0x8, addend: 0x0, symName: __ZNSt3__19allocatorI6WidgetEC2B7v160006Ev, symObjAddr: 0x6950, symBinAddr: 0x100008FD0, symSize: 0x20 }
  - { offsetInCU: 0x27D5D, offset: 0x27D5D, size: 0x8, addend: 0x0, symName: __ZNSt3__116__non_trivial_ifILb1ENS_9allocatorI6WidgetEEEC2B7v160006Ev, symObjAddr: 0x6970, symBinAddr: 0x100008FF0, symSize: 0x10 }
  - { offsetInCU: 0x27D87, offset: 0x27D87, size: 0x8, addend: 0x0, symName: __ZNSt3__120__shared_ptr_pointerIP6WidgetPFvS2_ENS_9allocatorIS1_EEEC2B7v160006ES2_S4_S6_, symObjAddr: 0x6980, symBinAddr: 0x100009000, symSize: 0x90 }
  - { offsetInCU: 0x27DDB, offset: 0x27DDB, size: 0x8, addend: 0x0, symName: __ZNSt3__119__shared_weak_countC2B7v160006El, symObjAddr: 0x6A10, symBinAddr: 0x100009090, symSize: 0x50 }
  - { offsetInCU: 0x27E18, offset: 0x27E18, size: 0x8, addend: 0x0, symName: __ZNSt3__117__compressed_pairIP6WidgetPFvS2_EEC1B7v160006IRS2_S4_EEOT_OT0_, symObjAddr: 0x6A60, symBinAddr: 0x1000090E0, symSize: 0x30 }
  - { offsetInCU: 0x27E7A, offset: 0x27E7A, size: 0x8, addend: 0x0, symName: __ZNSt3__117__compressed_pairINS0_IP6WidgetPFvS2_EEENS_9allocatorIS1_EEEC1B7v160006IS5_S7_EEOT_OT0_, symObjAddr: 0x6A90, symBinAddr: 0x100009110, symSize: 0x30 }
  - { offsetInCU: 0x27ED2, offset: 0x27ED2, size: 0x8, addend: 0x0, symName: __ZNSt3__120__shared_ptr_pointerIP6WidgetPFvS2_ENS_9allocatorIS1_EEED1Ev, symObjAddr: 0x6AC0, symBinAddr: 0x100009140, symSize: 0x20 }
  - { offsetInCU: 0x27EFE, offset: 0x27EFE, size: 0x8, addend: 0x0, symName: __ZNSt3__120__shared_ptr_pointerIP6WidgetPFvS2_ENS_9allocatorIS1_EEED0Ev, symObjAddr: 0x6AE0, symBinAddr: 0x100009160, symSize: 0x30 }
  - { offsetInCU: 0x27F2A, offset: 0x27F2A, size: 0x8, addend: 0x0, symName: __ZNSt3__120__shared_ptr_pointerIP6WidgetPFvS2_ENS_9allocatorIS1_EEE16__on_zero_sharedEv, symObjAddr: 0x6B10, symBinAddr: 0x100009190, symSize: 0x80 }
  - { offsetInCU: 0x27F51, offset: 0x27F51, size: 0x8, addend: 0x0, symName: __ZNKSt3__120__shared_ptr_pointerIP6WidgetPFvS2_ENS_9allocatorIS1_EEE13__get_deleterERKSt9type_info, symObjAddr: 0x6B90, symBinAddr: 0x100009210, symSize: 0x70 }
  - { offsetInCU: 0x27F86, offset: 0x27F86, size: 0x8, addend: 0x0, symName: __ZNSt3__120__shared_ptr_pointerIP6WidgetPFvS2_ENS_9allocatorIS1_EEE21__on_zero_shared_weakEv, symObjAddr: 0x6C00, symBinAddr: 0x100009280, symSize: 0x60 }
  - { offsetInCU: 0x27FC7, offset: 0x27FC7, size: 0x8, addend: 0x0, symName: __ZNSt3__114__shared_countC2B7v160006El, symObjAddr: 0x6C60, symBinAddr: 0x1000092E0, symSize: 0x30 }
  - { offsetInCU: 0x27FFF, offset: 0x27FFF, size: 0x8, addend: 0x0, symName: __ZNSt3__117__compressed_pairIP6WidgetPFvS2_EEC2B7v160006IRS2_S4_EEOT_OT0_, symObjAddr: 0x6C90, symBinAddr: 0x100009310, symSize: 0x40 }
  - { offsetInCU: 0x28057, offset: 0x28057, size: 0x8, addend: 0x0, symName: __ZNSt3__122__compressed_pair_elemIP6WidgetLi0ELb0EEC2B7v160006IRS2_vEEOT_, symObjAddr: 0x6CD0, symBinAddr: 0x100009350, symSize: 0x20 }
  - { offsetInCU: 0x28099, offset: 0x28099, size: 0x8, addend: 0x0, symName: __ZNSt3__122__compressed_pair_elemIPFvP6WidgetELi1ELb0EEC2B7v160006IS4_vEEOT_, symObjAddr: 0x6CF0, symBinAddr: 0x100009370, symSize: 0x20 }
  - { offsetInCU: 0x280DB, offset: 0x280DB, size: 0x8, addend: 0x0, symName: __ZNSt3__117__compressed_pairINS0_IP6WidgetPFvS2_EEENS_9allocatorIS1_EEEC2B7v160006IS5_S7_EEOT_OT0_, symObjAddr: 0x6D10, symBinAddr: 0x100009390, symSize: 0x40 }
  - { offsetInCU: 0x28133, offset: 0x28133, size: 0x8, addend: 0x0, symName: __ZNSt3__122__compressed_pair_elemINS_17__compressed_pairIP6WidgetPFvS3_EEELi0ELb0EEC2B7v160006IS6_vEEOT_, symObjAddr: 0x6D50, symBinAddr: 0x1000093D0, symSize: 0x30 }
  - { offsetInCU: 0x28175, offset: 0x28175, size: 0x8, addend: 0x0, symName: __ZNSt3__122__compressed_pair_elemINS_9allocatorI6WidgetEELi1ELb1EEC2B7v160006IS3_vEEOT_, symObjAddr: 0x6D80, symBinAddr: 0x100009400, symSize: 0x10 }
  - { offsetInCU: 0x281B7, offset: 0x281B7, size: 0x8, addend: 0x0, symName: __ZNSt3__120__shared_ptr_pointerIP6WidgetPFvS2_ENS_9allocatorIS1_EEED2Ev, symObjAddr: 0x6D90, symBinAddr: 0x100009410, symSize: 0x20 }
  - { offsetInCU: 0x281E3, offset: 0x281E3, size: 0x8, addend: 0x0, symName: __ZNSt3__117__compressed_pairINS0_IP6WidgetPFvS2_EEENS_9allocatorIS1_EEE5firstB7v160006Ev, symObjAddr: 0x6DB0, symBinAddr: 0x100009430, symSize: 0x20 }
  - { offsetInCU: 0x28209, offset: 0x28209, size: 0x8, addend: 0x0, symName: __ZNSt3__117__compressed_pairIP6WidgetPFvS2_EE6secondB7v160006Ev, symObjAddr: 0x6DD0, symBinAddr: 0x100009450, symSize: 0x20 }
  - { offsetInCU: 0x2822F, offset: 0x2822F, size: 0x8, addend: 0x0, symName: __ZNSt3__117__compressed_pairIP6WidgetPFvS2_EE5firstB7v160006Ev, symObjAddr: 0x6DF0, symBinAddr: 0x100009470, symSize: 0x20 }
  - { offsetInCU: 0x28255, offset: 0x28255, size: 0x8, addend: 0x0, symName: __ZNSt3__122__compressed_pair_elemINS_17__compressed_pairIP6WidgetPFvS3_EEELi0ELb0EE5__getB7v160006Ev, symObjAddr: 0x6E10, symBinAddr: 0x100009490, symSize: 0x10 }
  - { offsetInCU: 0x2827B, offset: 0x2827B, size: 0x8, addend: 0x0, symName: __ZNSt3__122__compressed_pair_elemIPFvP6WidgetELi1ELb0EE5__getB7v160006Ev, symObjAddr: 0x6E20, symBinAddr: 0x1000094A0, symSize: 0x10 }
  - { offsetInCU: 0x282A1, offset: 0x282A1, size: 0x8, addend: 0x0, symName: __ZNSt3__122__compressed_pair_elemIP6WidgetLi0ELb0EE5__getB7v160006Ev, symObjAddr: 0x6E30, symBinAddr: 0x1000094B0, symSize: 0x10 }
  - { offsetInCU: 0x282E5, offset: 0x282E5, size: 0x8, addend: 0x0, symName: __ZNKSt9type_infoeqB7v160006ERKS_, symObjAddr: 0x6E40, symBinAddr: 0x1000094C0, symSize: 0x40 }
  - { offsetInCU: 0x28341, offset: 0x28341, size: 0x8, addend: 0x0, symName: __ZNKSt3__117__compressed_pairINS0_IP6WidgetPFvS2_EEENS_9allocatorIS1_EEE5firstB7v160006Ev, symObjAddr: 0x6E80, symBinAddr: 0x100009500, symSize: 0x20 }
  - { offsetInCU: 0x28367, offset: 0x28367, size: 0x8, addend: 0x0, symName: __ZNKSt3__117__compressed_pairIP6WidgetPFvS2_EE6secondB7v160006Ev, symObjAddr: 0x6EA0, symBinAddr: 0x100009520, symSize: 0x20 }
  - { offsetInCU: 0x2838D, offset: 0x2838D, size: 0x8, addend: 0x0, symName: __ZNKSt3__122__compressed_pair_elemINS_17__compressed_pairIP6WidgetPFvS3_EEELi0ELb0EE5__getB7v160006Ev, symObjAddr: 0x6EC0, symBinAddr: 0x100009540, symSize: 0x10 }
  - { offsetInCU: 0x283B3, offset: 0x283B3, size: 0x8, addend: 0x0, symName: __ZNKSt3__122__compressed_pair_elemIPFvP6WidgetELi1ELb0EE5__getB7v160006Ev, symObjAddr: 0x6ED0, symBinAddr: 0x100009550, symSize: 0x10 }
  - { offsetInCU: 0x283D9, offset: 0x283D9, size: 0x8, addend: 0x0, symName: __ZNSt3__117__compressed_pairINS0_IP6WidgetPFvS2_EEENS_9allocatorIS1_EEE6secondB7v160006Ev, symObjAddr: 0x6EE0, symBinAddr: 0x100009560, symSize: 0x20 }
  - { offsetInCU: 0x2840E, offset: 0x2840E, size: 0x8, addend: 0x0, symName: __ZNSt3__19allocatorINS_20__shared_ptr_pointerIP6WidgetPFvS3_ENS0_IS2_EEEEEC1B7v160006IS2_EERKNS0_IT_EE, symObjAddr: 0x6F00, symBinAddr: 0x100009580, symSize: 0x30 }
  - { offsetInCU: 0x2844B, offset: 0x2844B, size: 0x8, addend: 0x0, symName: __ZNSt3__19allocatorINS_20__shared_ptr_pointerIP6WidgetPFvS3_ENS0_IS2_EEEEE10deallocateB7v160006EPS7_m, symObjAddr: 0x6F30, symBinAddr: 0x1000095B0, symSize: 0x50 }
  - { offsetInCU: 0x28492, offset: 0x28492, size: 0x8, addend: 0x0, symName: __ZNSt3__114pointer_traitsIPNS_20__shared_ptr_pointerIP6WidgetPFvS3_ENS_9allocatorIS2_EEEEE10pointer_toB7v160006ERS8_, symObjAddr: 0x6F80, symBinAddr: 0x100009600, symSize: 0x10 }
  - { offsetInCU: 0x284B5, offset: 0x284B5, size: 0x8, addend: 0x0, symName: __ZNSt3__122__compressed_pair_elemINS_9allocatorI6WidgetEELi1ELb1EE5__getB7v160006Ev, symObjAddr: 0x6F90, symBinAddr: 0x100009610, symSize: 0x10 }
  - { offsetInCU: 0x284DB, offset: 0x284DB, size: 0x8, addend: 0x0, symName: __ZNSt3__19allocatorINS_20__shared_ptr_pointerIP6WidgetPFvS3_ENS0_IS2_EEEEEC2B7v160006IS2_EERKNS0_IT_EE, symObjAddr: 0x6FA0, symBinAddr: 0x100009620, symSize: 0x20 }
  - { offsetInCU: 0x28518, offset: 0x28518, size: 0x8, addend: 0x0, symName: __ZNSt3__116__non_trivial_ifILb1ENS_9allocatorINS_20__shared_ptr_pointerIP6WidgetPFvS4_ENS1_IS3_EEEEEEEC2B7v160006Ev, symObjAddr: 0x6FC0, symBinAddr: 0x100009640, symSize: 0x10 }
  - { offsetInCU: 0x28542, offset: 0x28542, size: 0x8, addend: 0x0, symName: __ZNSt3__111basic_regexIcNS_12regex_traitsIcEEEC2B7v160006EPKcNS_15regex_constants18syntax_option_typeE, symObjAddr: 0x6FD0, symBinAddr: 0x100009650, symSize: 0xD0 }
  - { offsetInCU: 0x2858A, offset: 0x2858A, size: 0x8, addend: 0x0, symName: __ZNSt3__112regex_traitsIcEC1Ev, symObjAddr: 0x70A0, symBinAddr: 0x100009720, symSize: 0x20 }
  - { offsetInCU: 0x285B6, offset: 0x285B6, size: 0x8, addend: 0x0, symName: __ZNSt3__110shared_ptrINS_13__empty_stateIcEEEC1B7v160006Ev, symObjAddr: 0x70C0, symBinAddr: 0x100009740, symSize: 0x20 }
  - { offsetInCU: 0x285E0, offset: 0x285E0, size: 0x8, addend: 0x0, symName: __ZNSt3__111basic_regexIcNS_12regex_traitsIcEEE6__initIPKcEEvT_S7_, symObjAddr: 0x70E0, symBinAddr: 0x100009760, symSize: 0x70 }
  - { offsetInCU: 0x2863E, offset: 0x2863E, size: 0x8, addend: 0x0, symName: __ZNSt3__112regex_traitsIcE6lengthB7v160006EPKc, symObjAddr: 0x7150, symBinAddr: 0x1000097D0, symSize: 0x20 }
  - { offsetInCU: 0x28662, offset: 0x28662, size: 0x8, addend: 0x0, symName: __ZNSt3__112regex_traitsIcEC2Ev, symObjAddr: 0x7170, symBinAddr: 0x1000097F0, symSize: 0x50 }
  - { offsetInCU: 0x2868E, offset: 0x2868E, size: 0x8, addend: 0x0, symName: __ZNSt3__112regex_traitsIcE6__initEv, symObjAddr: 0x71C0, symBinAddr: 0x100009840, symSize: 0x40 }
  - { offsetInCU: 0x286B6, offset: 0x286B6, size: 0x8, addend: 0x0, symName: __ZNSt3__110shared_ptrINS_13__empty_stateIcEEEC2B7v160006Ev, symObjAddr: 0x7260, symBinAddr: 0x1000098E0, symSize: 0x20 }
  - { offsetInCU: 0x286E0, offset: 0x286E0, size: 0x8, addend: 0x0, symName: __ZNSt3__111basic_regexIcNS_12regex_traitsIcEEE7__parseIPKcEET_S7_S7_, symObjAddr: 0x72D0, symBinAddr: 0x100009950, symSize: 0x220 }
  - { offsetInCU: 0x28759, offset: 0x28759, size: 0x8, addend: 0x0, symName: __ZNSt3__111__end_stateIcEC1B7v160006Ev, symObjAddr: 0x7570, symBinAddr: 0x100009BF0, symSize: 0x20 }
  - { offsetInCU: 0x2880F, offset: 0x2880F, size: 0x8, addend: 0x0, symName: __ZNSt3__110unique_ptrINS_6__nodeIcEENS_14default_deleteIS2_EEEC1B7v160006ILb1EvEEPS2_, symObjAddr: 0x7590, symBinAddr: 0x100009C10, symSize: 0x30 }
  - { offsetInCU: 0x28857, offset: 0x28857, size: 0x8, addend: 0x0, symName: __ZNSt3__110shared_ptrINS_13__empty_stateIcEEE5resetB7v160006IS2_vEEvPT_, symObjAddr: 0x75C0, symBinAddr: 0x100009C40, symSize: 0x50 }
  - { offsetInCU: 0x28896, offset: 0x28896, size: 0x8, addend: 0x0, symName: __ZNKSt3__110unique_ptrINS_6__nodeIcEENS_14default_deleteIS2_EEE3getB7v160006Ev, symObjAddr: 0x7610, symBinAddr: 0x100009C90, symSize: 0x20 }
  - { offsetInCU: 0x288BC, offset: 0x288BC, size: 0x8, addend: 0x0, symName: __ZNSt3__113__empty_stateIcEC1B7v160006EPNS_6__nodeIcEE, symObjAddr: 0x7630, symBinAddr: 0x100009CB0, symSize: 0x30 }
  - { offsetInCU: 0x288F5, offset: 0x288F5, size: 0x8, addend: 0x0, symName: __ZNSt3__110unique_ptrINS_6__nodeIcEENS_14default_deleteIS2_EEE7releaseB7v160006Ev, symObjAddr: 0x7660, symBinAddr: 0x100009CE0, symSize: 0x40 }
  - { offsetInCU: 0x2892A, offset: 0x2892A, size: 0x8, addend: 0x0, symName: __ZNKSt3__110shared_ptrINS_13__empty_stateIcEEE3getB7v160006Ev, symObjAddr: 0x76A0, symBinAddr: 0x100009D20, symSize: 0x20 }
  - { offsetInCU: 0x28950, offset: 0x28950, size: 0x8, addend: 0x0, symName: __ZNSt3__110unique_ptrINS_6__nodeIcEENS_14default_deleteIS2_EEED1B7v160006Ev, symObjAddr: 0x76C0, symBinAddr: 0x100009D40, symSize: 0x20 }
  - { offsetInCU: 0x2897A, offset: 0x2897A, size: 0x8, addend: 0x0, symName: __ZNSt3__111basic_regexIcNS_12regex_traitsIcEEE16__parse_ecma_expIPKcEET_S7_S7_, symObjAddr: 0x76E0, symBinAddr: 0x100009D60, symSize: 0xF0 }
  - { offsetInCU: 0x28A04, offset: 0x28A04, size: 0x8, addend: 0x0, symName: __ZNSt3__111basic_regexIcNS_12regex_traitsIcEEE21__parse_basic_reg_expIPKcEET_S7_S7_, symObjAddr: 0x77D0, symBinAddr: 0x100009E50, symSize: 0x100 }
  - { offsetInCU: 0x28A70, offset: 0x28A70, size: 0x8, addend: 0x0, symName: __ZNSt3__111basic_regexIcNS_12regex_traitsIcEEE24__parse_extended_reg_expIPKcEET_S7_S7_, symObjAddr: 0x78D0, symBinAddr: 0x100009F50, symSize: 0xF0 }
  - { offsetInCU: 0x28AFA, offset: 0x28AFA, size: 0x8, addend: 0x0, symName: __ZNSt3__111basic_regexIcNS_12regex_traitsIcEEE12__parse_grepIPKcEET_S7_S7_, symObjAddr: 0x79C0, symBinAddr: 0x10000A040, symSize: 0x140 }
  - { offsetInCU: 0x28B84, offset: 0x28B84, size: 0x8, addend: 0x0, symName: __ZNSt3__111basic_regexIcNS_12regex_traitsIcEEE13__parse_egrepIPKcEET_S7_S7_, symObjAddr: 0x7B00, symBinAddr: 0x10000A180, symSize: 0x140 }
  - { offsetInCU: 0x28C0E, offset: 0x28C0E, size: 0x8, addend: 0x0, symName: __ZNSt3__111__end_stateIcEC2B7v160006Ev, symObjAddr: 0x7CA0, symBinAddr: 0x10000A320, symSize: 0x40 }
  - { offsetInCU: 0x28C38, offset: 0x28C38, size: 0x8, addend: 0x0, symName: __ZNSt3__16__nodeIcEC2B7v160006Ev, symObjAddr: 0x7CE0, symBinAddr: 0x10000A360, symSize: 0x20 }
  - { offsetInCU: 0x28C62, offset: 0x28C62, size: 0x8, addend: 0x0, symName: __ZNSt3__111__end_stateIcED1Ev, symObjAddr: 0x7D00, symBinAddr: 0x10000A380, symSize: 0x20 }
  - { offsetInCU: 0x28C8F, offset: 0x28C8F, size: 0x8, addend: 0x0, symName: __ZNSt3__111__end_stateIcED0Ev, symObjAddr: 0x7D20, symBinAddr: 0x10000A3A0, symSize: 0x30 }
  - { offsetInCU: 0x28CBC, offset: 0x28CBC, size: 0x8, addend: 0x0, symName: __ZNKSt3__111__end_stateIcE6__execERNS_7__stateIcEE, symObjAddr: 0x7D50, symBinAddr: 0x10000A3D0, symSize: 0x20 }
  - { offsetInCU: 0x28CF3, offset: 0x28CF3, size: 0x8, addend: 0x0, symName: __ZNKSt3__16__nodeIcE12__exec_splitEbRNS_7__stateIcEE, symObjAddr: 0x7D70, symBinAddr: 0x10000A3F0, symSize: 0x20 }
  - { offsetInCU: 0x28D2F, offset: 0x28D2F, size: 0x8, addend: 0x0, symName: __ZNSt3__16__nodeIcED1Ev, symObjAddr: 0x7D90, symBinAddr: 0x10000A410, symSize: 0x20 }
  - { offsetInCU: 0x28D59, offset: 0x28D59, size: 0x8, addend: 0x0, symName: __ZNSt3__16__nodeIcED0Ev, symObjAddr: 0x7DB0, symBinAddr: 0x10000A430, symSize: 0x30 }
  - { offsetInCU: 0x28D83, offset: 0x28D83, size: 0x8, addend: 0x0, symName: __ZNKSt3__16__nodeIcE6__execERNS_7__stateIcEE, symObjAddr: 0x7DE0, symBinAddr: 0x10000A460, symSize: 0x10 }
  - { offsetInCU: 0x28DB4, offset: 0x28DB4, size: 0x8, addend: 0x0, symName: __ZNSt3__16__nodeIcED2Ev, symObjAddr: 0x7DF0, symBinAddr: 0x10000A470, symSize: 0x10 }
  - { offsetInCU: 0x28DDE, offset: 0x28DDE, size: 0x8, addend: 0x0, symName: __ZNSt3__111__end_stateIcED2Ev, symObjAddr: 0x7E00, symBinAddr: 0x10000A480, symSize: 0x20 }
  - { offsetInCU: 0x28E0B, offset: 0x28E0B, size: 0x8, addend: 0x0, symName: __ZNSt3__110unique_ptrINS_6__nodeIcEENS_14default_deleteIS2_EEEC2B7v160006ILb1EvEEPS2_, symObjAddr: 0x7E20, symBinAddr: 0x10000A4A0, symSize: 0x40 }
  - { offsetInCU: 0x28E53, offset: 0x28E53, size: 0x8, addend: 0x0, symName: __ZNSt3__117__compressed_pairIPNS_6__nodeIcEENS_14default_deleteIS2_EEEC1B7v160006IRS3_NS_16__value_init_tagEEEOT_OT0_, symObjAddr: 0x7E60, symBinAddr: 0x10000A4E0, symSize: 0x30 }
  - { offsetInCU: 0x28EAB, offset: 0x28EAB, size: 0x8, addend: 0x0, symName: __ZNSt3__117__compressed_pairIPNS_6__nodeIcEENS_14default_deleteIS2_EEEC2B7v160006IRS3_NS_16__value_init_tagEEEOT_OT0_, symObjAddr: 0x7E90, symBinAddr: 0x10000A510, symSize: 0x40 }
  - { offsetInCU: 0x28F03, offset: 0x28F03, size: 0x8, addend: 0x0, symName: __ZNSt3__122__compressed_pair_elemIPNS_6__nodeIcEELi0ELb0EEC2B7v160006IRS3_vEEOT_, symObjAddr: 0x7ED0, symBinAddr: 0x10000A550, symSize: 0x20 }
  - { offsetInCU: 0x28F45, offset: 0x28F45, size: 0x8, addend: 0x0, symName: __ZNSt3__122__compressed_pair_elemINS_14default_deleteINS_6__nodeIcEEEELi1ELb1EEC2B7v160006ENS_16__value_init_tagE, symObjAddr: 0x7EF0, symBinAddr: 0x10000A570, symSize: 0x10 }
  - { offsetInCU: 0x28F79, offset: 0x28F79, size: 0x8, addend: 0x0, symName: __ZNSt3__110shared_ptrINS_13__empty_stateIcEEEC1IS2_vEEPT_, symObjAddr: 0x7F00, symBinAddr: 0x10000A580, symSize: 0x30 }
  - { offsetInCU: 0x28FBC, offset: 0x28FBC, size: 0x8, addend: 0x0, symName: __ZNSt3__110shared_ptrINS_13__empty_stateIcEEE4swapB7v160006ERS3_, symObjAddr: 0x7F30, symBinAddr: 0x10000A5B0, symSize: 0x40 }
  - { offsetInCU: 0x28FF1, offset: 0x28FF1, size: 0x8, addend: 0x0, symName: __ZNSt3__110shared_ptrINS_13__empty_stateIcEEEC2IS2_vEEPT_, symObjAddr: 0x7F70, symBinAddr: 0x10000A5F0, symSize: 0xE0 }
  - { offsetInCU: 0x290DB, offset: 0x290DB, size: 0x8, addend: 0x0, symName: __ZNSt3__110unique_ptrINS_13__empty_stateIcEENS_14default_deleteIS2_EEEC1B7v160006ILb1EvEEPS2_, symObjAddr: 0x8050, symBinAddr: 0x10000A6D0, symSize: 0x30 }
  - { offsetInCU: 0x29128, offset: 0x29128, size: 0x8, addend: 0x0, symName: __ZNSt3__19allocatorINS_13__empty_stateIcEEEC1B7v160006Ev, symObjAddr: 0x8080, symBinAddr: 0x10000A700, symSize: 0x20 }
  - { offsetInCU: 0x291F2, offset: 0x291F2, size: 0x8, addend: 0x0, symName: __ZNSt3__120__shared_ptr_pointerIPNS_13__empty_stateIcEENS_10shared_ptrIS2_E27__shared_ptr_default_deleteIS2_S2_EENS_9allocatorIS2_EEEC1B7v160006ES3_S7_S9_, symObjAddr: 0x80A0, symBinAddr: 0x10000A720, symSize: 0x30 }
  - { offsetInCU: 0x29246, offset: 0x29246, size: 0x8, addend: 0x0, symName: __ZNSt3__110unique_ptrINS_13__empty_stateIcEENS_14default_deleteIS2_EEE7releaseB7v160006Ev, symObjAddr: 0x80D0, symBinAddr: 0x10000A750, symSize: 0x40 }
  - { offsetInCU: 0x2927B, offset: 0x2927B, size: 0x8, addend: 0x0, symName: __ZNSt3__110shared_ptrINS_13__empty_stateIcEEE18__enable_weak_thisB7v160006Ez, symObjAddr: 0x8110, symBinAddr: 0x10000A790, symSize: 0x10 }
  - { offsetInCU: 0x292A2, offset: 0x292A2, size: 0x8, addend: 0x0, symName: __ZNSt3__110unique_ptrINS_13__empty_stateIcEENS_14default_deleteIS2_EEED1B7v160006Ev, symObjAddr: 0x8120, symBinAddr: 0x10000A7A0, symSize: 0x20 }
  - { offsetInCU: 0x292CC, offset: 0x292CC, size: 0x8, addend: 0x0, symName: __ZNSt3__110unique_ptrINS_13__empty_stateIcEENS_14default_deleteIS2_EEEC2B7v160006ILb1EvEEPS2_, symObjAddr: 0x8140, symBinAddr: 0x10000A7C0, symSize: 0x40 }
  - { offsetInCU: 0x2930F, offset: 0x2930F, size: 0x8, addend: 0x0, symName: __ZNSt3__117__compressed_pairIPNS_13__empty_stateIcEENS_14default_deleteIS2_EEEC1B7v160006IRS3_NS_16__value_init_tagEEEOT_OT0_, symObjAddr: 0x8180, symBinAddr: 0x10000A800, symSize: 0x30 }
  - { offsetInCU: 0x29367, offset: 0x29367, size: 0x8, addend: 0x0, symName: __ZNSt3__117__compressed_pairIPNS_13__empty_stateIcEENS_14default_deleteIS2_EEEC2B7v160006IRS3_NS_16__value_init_tagEEEOT_OT0_, symObjAddr: 0x81B0, symBinAddr: 0x10000A830, symSize: 0x40 }
  - { offsetInCU: 0x293BF, offset: 0x293BF, size: 0x8, addend: 0x0, symName: __ZNSt3__122__compressed_pair_elemIPNS_13__empty_stateIcEELi0ELb0EEC2B7v160006IRS3_vEEOT_, symObjAddr: 0x81F0, symBinAddr: 0x10000A870, symSize: 0x20 }
  - { offsetInCU: 0x29401, offset: 0x29401, size: 0x8, addend: 0x0, symName: __ZNSt3__122__compressed_pair_elemINS_14default_deleteINS_13__empty_stateIcEEEELi1ELb1EEC2B7v160006ENS_16__value_init_tagE, symObjAddr: 0x8210, symBinAddr: 0x10000A890, symSize: 0x10 }
  - { offsetInCU: 0x29435, offset: 0x29435, size: 0x8, addend: 0x0, symName: __ZNSt3__19allocatorINS_13__empty_stateIcEEEC2B7v160006Ev, symObjAddr: 0x8220, symBinAddr: 0x10000A8A0, symSize: 0x20 }
  - { offsetInCU: 0x2945F, offset: 0x2945F, size: 0x8, addend: 0x0, symName: __ZNSt3__116__non_trivial_ifILb1ENS_9allocatorINS_13__empty_stateIcEEEEEC2B7v160006Ev, symObjAddr: 0x8240, symBinAddr: 0x10000A8C0, symSize: 0x10 }
  - { offsetInCU: 0x29489, offset: 0x29489, size: 0x8, addend: 0x0, symName: __ZNSt3__120__shared_ptr_pointerIPNS_13__empty_stateIcEENS_10shared_ptrIS2_E27__shared_ptr_default_deleteIS2_S2_EENS_9allocatorIS2_EEEC2B7v160006ES3_S7_S9_, symObjAddr: 0x8250, symBinAddr: 0x10000A8D0, symSize: 0x90 }
  - { offsetInCU: 0x294E2, offset: 0x294E2, size: 0x8, addend: 0x0, symName: __ZNSt3__117__compressed_pairIPNS_13__empty_stateIcEENS_10shared_ptrIS2_E27__shared_ptr_default_deleteIS2_S2_EEEC1B7v160006IRS3_S7_EEOT_OT0_, symObjAddr: 0x82E0, symBinAddr: 0x10000A960, symSize: 0x30 }
  - { offsetInCU: 0x29544, offset: 0x29544, size: 0x8, addend: 0x0, symName: __ZNSt3__117__compressed_pairINS0_IPNS_13__empty_stateIcEENS_10shared_ptrIS2_E27__shared_ptr_default_deleteIS2_S2_EEEENS_9allocatorIS2_EEEC1B7v160006IS8_SA_EEOT_OT0_, symObjAddr: 0x8310, symBinAddr: 0x10000A990, symSize: 0x30 }
  - { offsetInCU: 0x2959C, offset: 0x2959C, size: 0x8, addend: 0x0, symName: __ZNSt3__120__shared_ptr_pointerIPNS_13__empty_stateIcEENS_10shared_ptrIS2_E27__shared_ptr_default_deleteIS2_S2_EENS_9allocatorIS2_EEED1Ev, symObjAddr: 0x8340, symBinAddr: 0x10000A9C0, symSize: 0x20 }
  - { offsetInCU: 0x295C8, offset: 0x295C8, size: 0x8, addend: 0x0, symName: __ZNSt3__120__shared_ptr_pointerIPNS_13__empty_stateIcEENS_10shared_ptrIS2_E27__shared_ptr_default_deleteIS2_S2_EENS_9allocatorIS2_EEED0Ev, symObjAddr: 0x8360, symBinAddr: 0x10000A9E0, symSize: 0x30 }
  - { offsetInCU: 0x295F4, offset: 0x295F4, size: 0x8, addend: 0x0, symName: __ZNSt3__120__shared_ptr_pointerIPNS_13__empty_stateIcEENS_10shared_ptrIS2_E27__shared_ptr_default_deleteIS2_S2_EENS_9allocatorIS2_EEE16__on_zero_sharedEv, symObjAddr: 0x8390, symBinAddr: 0x10000AA10, symSize: 0x70 }
  - { offsetInCU: 0x2961B, offset: 0x2961B, size: 0x8, addend: 0x0, symName: __ZNKSt3__120__shared_ptr_pointerIPNS_13__empty_stateIcEENS_10shared_ptrIS2_E27__shared_ptr_default_deleteIS2_S2_EENS_9allocatorIS2_EEE13__get_deleterERKSt9type_info, symObjAddr: 0x8400, symBinAddr: 0x10000AA80, symSize: 0x70 }
  - { offsetInCU: 0x29650, offset: 0x29650, size: 0x8, addend: 0x0, symName: __ZNSt3__120__shared_ptr_pointerIPNS_13__empty_stateIcEENS_10shared_ptrIS2_E27__shared_ptr_default_deleteIS2_S2_EENS_9allocatorIS2_EEE21__on_zero_shared_weakEv, symObjAddr: 0x8470, symBinAddr: 0x10000AAF0, symSize: 0x60 }
  - { offsetInCU: 0x29691, offset: 0x29691, size: 0x8, addend: 0x0, symName: __ZNSt3__117__compressed_pairIPNS_13__empty_stateIcEENS_10shared_ptrIS2_E27__shared_ptr_default_deleteIS2_S2_EEEC2B7v160006IRS3_S7_EEOT_OT0_, symObjAddr: 0x84D0, symBinAddr: 0x10000AB50, symSize: 0x40 }
  - { offsetInCU: 0x296E9, offset: 0x296E9, size: 0x8, addend: 0x0, symName: __ZNSt3__122__compressed_pair_elemINS_10shared_ptrINS_13__empty_stateIcEEE27__shared_ptr_default_deleteIS3_S3_EELi1ELb1EEC2B7v160006IS6_vEEOT_, symObjAddr: 0x8510, symBinAddr: 0x10000AB90, symSize: 0x10 }
  - { offsetInCU: 0x2972B, offset: 0x2972B, size: 0x8, addend: 0x0, symName: __ZNSt3__117__compressed_pairINS0_IPNS_13__empty_stateIcEENS_10shared_ptrIS2_E27__shared_ptr_default_deleteIS2_S2_EEEENS_9allocatorIS2_EEEC2B7v160006IS8_SA_EEOT_OT0_, symObjAddr: 0x8520, symBinAddr: 0x10000ABA0, symSize: 0x40 }
  - { offsetInCU: 0x29783, offset: 0x29783, size: 0x8, addend: 0x0, symName: __ZNSt3__122__compressed_pair_elemINS_17__compressed_pairIPNS_13__empty_stateIcEENS_10shared_ptrIS3_E27__shared_ptr_default_deleteIS3_S3_EEEELi0ELb0EEC2B7v160006IS9_vEEOT_, symObjAddr: 0x8560, symBinAddr: 0x10000ABE0, symSize: 0x20 }
  - { offsetInCU: 0x297C5, offset: 0x297C5, size: 0x8, addend: 0x0, symName: __ZNSt3__122__compressed_pair_elemINS_9allocatorINS_13__empty_stateIcEEEELi1ELb1EEC2B7v160006IS4_vEEOT_, symObjAddr: 0x8580, symBinAddr: 0x10000AC00, symSize: 0x10 }
  - { offsetInCU: 0x29807, offset: 0x29807, size: 0x8, addend: 0x0, symName: __ZNSt3__120__shared_ptr_pointerIPNS_13__empty_stateIcEENS_10shared_ptrIS2_E27__shared_ptr_default_deleteIS2_S2_EENS_9allocatorIS2_EEED2Ev, symObjAddr: 0x8590, symBinAddr: 0x10000AC10, symSize: 0x20 }
  - { offsetInCU: 0x29833, offset: 0x29833, size: 0x8, addend: 0x0, symName: __ZNSt3__117__compressed_pairINS0_IPNS_13__empty_stateIcEENS_10shared_ptrIS2_E27__shared_ptr_default_deleteIS2_S2_EEEENS_9allocatorIS2_EEE5firstB7v160006Ev, symObjAddr: 0x85B0, symBinAddr: 0x10000AC30, symSize: 0x20 }
  - { offsetInCU: 0x29859, offset: 0x29859, size: 0x8, addend: 0x0, symName: __ZNSt3__117__compressed_pairIPNS_13__empty_stateIcEENS_10shared_ptrIS2_E27__shared_ptr_default_deleteIS2_S2_EEE6secondB7v160006Ev, symObjAddr: 0x85D0, symBinAddr: 0x10000AC50, symSize: 0x20 }
  - { offsetInCU: 0x2987F, offset: 0x2987F, size: 0x8, addend: 0x0, symName: __ZNKSt3__114default_deleteINS_13__empty_stateIcEEEclB7v160006EPS2_, symObjAddr: 0x85F0, symBinAddr: 0x10000AC70, symSize: 0x40 }
  - { offsetInCU: 0x298B3, offset: 0x298B3, size: 0x8, addend: 0x0, symName: __ZNSt3__117__compressed_pairIPNS_13__empty_stateIcEENS_10shared_ptrIS2_E27__shared_ptr_default_deleteIS2_S2_EEE5firstB7v160006Ev, symObjAddr: 0x8630, symBinAddr: 0x10000ACB0, symSize: 0x20 }
  - { offsetInCU: 0x298D9, offset: 0x298D9, size: 0x8, addend: 0x0, symName: __ZNSt3__122__compressed_pair_elemINS_17__compressed_pairIPNS_13__empty_stateIcEENS_10shared_ptrIS3_E27__shared_ptr_default_deleteIS3_S3_EEEELi0ELb0EE5__getB7v160006Ev, symObjAddr: 0x8650, symBinAddr: 0x10000ACD0, symSize: 0x10 }
  - { offsetInCU: 0x298FF, offset: 0x298FF, size: 0x8, addend: 0x0, symName: __ZNSt3__122__compressed_pair_elemINS_10shared_ptrINS_13__empty_stateIcEEE27__shared_ptr_default_deleteIS3_S3_EELi1ELb1EE5__getB7v160006Ev, symObjAddr: 0x8660, symBinAddr: 0x10000ACE0, symSize: 0x10 }
  - { offsetInCU: 0x29925, offset: 0x29925, size: 0x8, addend: 0x0, symName: __ZNSt3__122__compressed_pair_elemIPNS_13__empty_stateIcEELi0ELb0EE5__getB7v160006Ev, symObjAddr: 0x8670, symBinAddr: 0x10000ACF0, symSize: 0x10 }
  - { offsetInCU: 0x2994B, offset: 0x2994B, size: 0x8, addend: 0x0, symName: __ZNKSt3__117__compressed_pairINS0_IPNS_13__empty_stateIcEENS_10shared_ptrIS2_E27__shared_ptr_default_deleteIS2_S2_EEEENS_9allocatorIS2_EEE5firstB7v160006Ev, symObjAddr: 0x8680, symBinAddr: 0x10000AD00, symSize: 0x20 }
  - { offsetInCU: 0x29971, offset: 0x29971, size: 0x8, addend: 0x0, symName: __ZNKSt3__117__compressed_pairIPNS_13__empty_stateIcEENS_10shared_ptrIS2_E27__shared_ptr_default_deleteIS2_S2_EEE6secondB7v160006Ev, symObjAddr: 0x86A0, symBinAddr: 0x10000AD20, symSize: 0x20 }
  - { offsetInCU: 0x29997, offset: 0x29997, size: 0x8, addend: 0x0, symName: __ZNKSt3__122__compressed_pair_elemINS_17__compressed_pairIPNS_13__empty_stateIcEENS_10shared_ptrIS3_E27__shared_ptr_default_deleteIS3_S3_EEEELi0ELb0EE5__getB7v160006Ev, symObjAddr: 0x86C0, symBinAddr: 0x10000AD40, symSize: 0x10 }
  - { offsetInCU: 0x299BD, offset: 0x299BD, size: 0x8, addend: 0x0, symName: __ZNKSt3__122__compressed_pair_elemINS_10shared_ptrINS_13__empty_stateIcEEE27__shared_ptr_default_deleteIS3_S3_EELi1ELb1EE5__getB7v160006Ev, symObjAddr: 0x86D0, symBinAddr: 0x10000AD50, symSize: 0x10 }
  - { offsetInCU: 0x299E3, offset: 0x299E3, size: 0x8, addend: 0x0, symName: __ZNSt3__117__compressed_pairINS0_IPNS_13__empty_stateIcEENS_10shared_ptrIS2_E27__shared_ptr_default_deleteIS2_S2_EEEENS_9allocatorIS2_EEE6secondB7v160006Ev, symObjAddr: 0x86E0, symBinAddr: 0x10000AD60, symSize: 0x20 }
  - { offsetInCU: 0x29A18, offset: 0x29A18, size: 0x8, addend: 0x0, symName: __ZNSt3__19allocatorINS_20__shared_ptr_pointerIPNS_13__empty_stateIcEENS_10shared_ptrIS3_E27__shared_ptr_default_deleteIS3_S3_EENS0_IS3_EEEEEC1B7v160006IS3_EERKNS0_IT_EE, symObjAddr: 0x8700, symBinAddr: 0x10000AD80, symSize: 0x30 }
  - { offsetInCU: 0x29A55, offset: 0x29A55, size: 0x8, addend: 0x0, symName: __ZNSt3__19allocatorINS_20__shared_ptr_pointerIPNS_13__empty_stateIcEENS_10shared_ptrIS3_E27__shared_ptr_default_deleteIS3_S3_EENS0_IS3_EEEEE10deallocateB7v160006EPSA_m, symObjAddr: 0x8730, symBinAddr: 0x10000ADB0, symSize: 0x40 }
  - { offsetInCU: 0x29A9C, offset: 0x29A9C, size: 0x8, addend: 0x0, symName: __ZNSt3__114pointer_traitsIPNS_20__shared_ptr_pointerIPNS_13__empty_stateIcEENS_10shared_ptrIS3_E27__shared_ptr_default_deleteIS3_S3_EENS_9allocatorIS3_EEEEE10pointer_toB7v160006ERSB_, symObjAddr: 0x8770, symBinAddr: 0x10000ADF0, symSize: 0x10 }
  - { offsetInCU: 0x29ABF, offset: 0x29ABF, size: 0x8, addend: 0x0, symName: __ZNSt3__122__compressed_pair_elemINS_9allocatorINS_13__empty_stateIcEEEELi1ELb1EE5__getB7v160006Ev, symObjAddr: 0x8780, symBinAddr: 0x10000AE00, symSize: 0x10 }
  - { offsetInCU: 0x29AE5, offset: 0x29AE5, size: 0x8, addend: 0x0, symName: __ZNSt3__19allocatorINS_20__shared_ptr_pointerIPNS_13__empty_stateIcEENS_10shared_ptrIS3_E27__shared_ptr_default_deleteIS3_S3_EENS0_IS3_EEEEEC2B7v160006IS3_EERKNS0_IT_EE, symObjAddr: 0x8790, symBinAddr: 0x10000AE10, symSize: 0x20 }
  - { offsetInCU: 0x29B22, offset: 0x29B22, size: 0x8, addend: 0x0, symName: __ZNSt3__116__non_trivial_ifILb1ENS_9allocatorINS_20__shared_ptr_pointerIPNS_13__empty_stateIcEENS_10shared_ptrIS4_E27__shared_ptr_default_deleteIS4_S4_EENS1_IS4_EEEEEEEC2B7v160006Ev, symObjAddr: 0x87B0, symBinAddr: 0x10000AE30, symSize: 0x10 }
  - { offsetInCU: 0x29B4C, offset: 0x29B4C, size: 0x8, addend: 0x0, symName: __ZNSt3__117__compressed_pairIPNS_13__empty_stateIcEENS_14default_deleteIS2_EEE5firstB7v160006Ev, symObjAddr: 0x87C0, symBinAddr: 0x10000AE40, symSize: 0x20 }
  - { offsetInCU: 0x29B72, offset: 0x29B72, size: 0x8, addend: 0x0, symName: __ZNSt3__110unique_ptrINS_13__empty_stateIcEENS_14default_deleteIS2_EEED2B7v160006Ev, symObjAddr: 0x87E0, symBinAddr: 0x10000AE60, symSize: 0x20 }
  - { offsetInCU: 0x29B9C, offset: 0x29B9C, size: 0x8, addend: 0x0, symName: __ZNSt3__110unique_ptrINS_13__empty_stateIcEENS_14default_deleteIS2_EEE5resetB7v160006EPS2_, symObjAddr: 0x8800, symBinAddr: 0x10000AE80, symSize: 0x70 }
  - { offsetInCU: 0x29BE0, offset: 0x29BE0, size: 0x8, addend: 0x0, symName: __ZNSt3__117__compressed_pairIPNS_13__empty_stateIcEENS_14default_deleteIS2_EEE6secondB7v160006Ev, symObjAddr: 0x8870, symBinAddr: 0x10000AEF0, symSize: 0x20 }
  - { offsetInCU: 0x29C06, offset: 0x29C06, size: 0x8, addend: 0x0, symName: __ZNSt3__122__compressed_pair_elemINS_14default_deleteINS_13__empty_stateIcEEEELi1ELb1EE5__getB7v160006Ev, symObjAddr: 0x8890, symBinAddr: 0x10000AF10, symSize: 0x10 }
  - { offsetInCU: 0x29C2C, offset: 0x29C2C, size: 0x8, addend: 0x0, symName: __ZNKSt3__117__compressed_pairIPNS_6__nodeIcEENS_14default_deleteIS2_EEE5firstB7v160006Ev, symObjAddr: 0x8920, symBinAddr: 0x10000AFA0, symSize: 0x20 }
  - { offsetInCU: 0x29C52, offset: 0x29C52, size: 0x8, addend: 0x0, symName: __ZNKSt3__122__compressed_pair_elemIPNS_6__nodeIcEELi0ELb0EE5__getB7v160006Ev, symObjAddr: 0x8940, symBinAddr: 0x10000AFC0, symSize: 0x10 }
  - { offsetInCU: 0x29C78, offset: 0x29C78, size: 0x8, addend: 0x0, symName: __ZNSt3__113__empty_stateIcEC2B7v160006EPNS_6__nodeIcEE, symObjAddr: 0x8950, symBinAddr: 0x10000AFD0, symSize: 0x40 }
  - { offsetInCU: 0x29CB1, offset: 0x29CB1, size: 0x8, addend: 0x0, symName: __ZNSt3__116__owns_one_stateIcEC2B7v160006EPNS_6__nodeIcEE, symObjAddr: 0x8990, symBinAddr: 0x10000B010, symSize: 0x40 }
  - { offsetInCU: 0x29CEA, offset: 0x29CEA, size: 0x8, addend: 0x0, symName: __ZNSt3__113__empty_stateIcED1Ev, symObjAddr: 0x89D0, symBinAddr: 0x10000B050, symSize: 0x20 }
  - { offsetInCU: 0x29D17, offset: 0x29D17, size: 0x8, addend: 0x0, symName: __ZNSt3__113__empty_stateIcED0Ev, symObjAddr: 0x89F0, symBinAddr: 0x10000B070, symSize: 0x30 }
  - { offsetInCU: 0x29D44, offset: 0x29D44, size: 0x8, addend: 0x0, symName: __ZNKSt3__113__empty_stateIcE6__execERNS_7__stateIcEE, symObjAddr: 0x8A20, symBinAddr: 0x10000B0A0, symSize: 0x40 }
  - { offsetInCU: 0x29D7B, offset: 0x29D7B, size: 0x8, addend: 0x0, symName: __ZNSt3__115__has_one_stateIcEC2B7v160006EPNS_6__nodeIcEE, symObjAddr: 0x8A60, symBinAddr: 0x10000B0E0, symSize: 0x40 }
  - { offsetInCU: 0x29DB4, offset: 0x29DB4, size: 0x8, addend: 0x0, symName: __ZNSt3__116__owns_one_stateIcED1Ev, symObjAddr: 0x8AA0, symBinAddr: 0x10000B120, symSize: 0x20 }
  - { offsetInCU: 0x29DE0, offset: 0x29DE0, size: 0x8, addend: 0x0, symName: __ZNSt3__116__owns_one_stateIcED0Ev, symObjAddr: 0x8AC0, symBinAddr: 0x10000B140, symSize: 0x30 }
  - { offsetInCU: 0x29E0C, offset: 0x29E0C, size: 0x8, addend: 0x0, symName: __ZNSt3__115__has_one_stateIcED1Ev, symObjAddr: 0x8AF0, symBinAddr: 0x10000B170, symSize: 0x20 }
  - { offsetInCU: 0x29E39, offset: 0x29E39, size: 0x8, addend: 0x0, symName: __ZNSt3__115__has_one_stateIcED0Ev, symObjAddr: 0x8B10, symBinAddr: 0x10000B190, symSize: 0x30 }
  - { offsetInCU: 0x29E66, offset: 0x29E66, size: 0x8, addend: 0x0, symName: __ZNSt3__115__has_one_stateIcED2Ev, symObjAddr: 0x8B40, symBinAddr: 0x10000B1C0, symSize: 0x20 }
  - { offsetInCU: 0x29E93, offset: 0x29E93, size: 0x8, addend: 0x0, symName: __ZNSt3__116__owns_one_stateIcED2Ev, symObjAddr: 0x8B60, symBinAddr: 0x10000B1E0, symSize: 0x70 }
  - { offsetInCU: 0x29EBF, offset: 0x29EBF, size: 0x8, addend: 0x0, symName: __ZNSt3__115__has_one_stateIcE5firstB7v160006Ev, symObjAddr: 0x8BD0, symBinAddr: 0x10000B250, symSize: 0x20 }
  - { offsetInCU: 0x29EE5, offset: 0x29EE5, size: 0x8, addend: 0x0, symName: __ZNSt3__113__empty_stateIcED2Ev, symObjAddr: 0x8BF0, symBinAddr: 0x10000B270, symSize: 0x20 }
  - { offsetInCU: 0x29F12, offset: 0x29F12, size: 0x8, addend: 0x0, symName: __ZNKSt3__115__has_one_stateIcE5firstB7v160006Ev, symObjAddr: 0x8C10, symBinAddr: 0x10000B290, symSize: 0x20 }
  - { offsetInCU: 0x29F38, offset: 0x29F38, size: 0x8, addend: 0x0, symName: __ZNSt3__117__compressed_pairIPNS_6__nodeIcEENS_14default_deleteIS2_EEE5firstB7v160006Ev, symObjAddr: 0x8C30, symBinAddr: 0x10000B2B0, symSize: 0x20 }
  - { offsetInCU: 0x29F5E, offset: 0x29F5E, size: 0x8, addend: 0x0, symName: __ZNSt3__122__compressed_pair_elemIPNS_6__nodeIcEELi0ELb0EE5__getB7v160006Ev, symObjAddr: 0x8C50, symBinAddr: 0x10000B2D0, symSize: 0x10 }
  - { offsetInCU: 0x29F84, offset: 0x29F84, size: 0x8, addend: 0x0, symName: __ZNSt3__110unique_ptrINS_6__nodeIcEENS_14default_deleteIS2_EEED2B7v160006Ev, symObjAddr: 0x8C60, symBinAddr: 0x10000B2E0, symSize: 0x20 }
  - { offsetInCU: 0x29FAE, offset: 0x29FAE, size: 0x8, addend: 0x0, symName: __ZNSt3__110unique_ptrINS_6__nodeIcEENS_14default_deleteIS2_EEE5resetB7v160006EPS2_, symObjAddr: 0x8C80, symBinAddr: 0x10000B300, symSize: 0x70 }
  - { offsetInCU: 0x29FF2, offset: 0x29FF2, size: 0x8, addend: 0x0, symName: __ZNSt3__117__compressed_pairIPNS_6__nodeIcEENS_14default_deleteIS2_EEE6secondB7v160006Ev, symObjAddr: 0x8CF0, symBinAddr: 0x10000B370, symSize: 0x20 }
  - { offsetInCU: 0x2A018, offset: 0x2A018, size: 0x8, addend: 0x0, symName: __ZNKSt3__114default_deleteINS_6__nodeIcEEEclB7v160006EPS2_, symObjAddr: 0x8D10, symBinAddr: 0x10000B390, symSize: 0x40 }
  - { offsetInCU: 0x2A04C, offset: 0x2A04C, size: 0x8, addend: 0x0, symName: __ZNSt3__122__compressed_pair_elemINS_14default_deleteINS_6__nodeIcEEEELi1ELb1EE5__getB7v160006Ev, symObjAddr: 0x8D50, symBinAddr: 0x10000B3D0, symSize: 0x10 }
  - { offsetInCU: 0x2A072, offset: 0x2A072, size: 0x8, addend: 0x0, symName: __ZNSt3__111basic_regexIcNS_12regex_traitsIcEEE19__parse_alternativeIPKcEET_S7_S7_, symObjAddr: 0x8D60, symBinAddr: 0x10000B3E0, symSize: 0x60 }
  - { offsetInCU: 0x2A0DE, offset: 0x2A0DE, size: 0x8, addend: 0x0, symName: __ZNSt3__111basic_regexIcNS_12regex_traitsIcEEE12__push_emptyEv, symObjAddr: 0x8DC0, symBinAddr: 0x10000B440, symSize: 0xA0 }
  - { offsetInCU: 0x2A106, offset: 0x2A106, size: 0x8, addend: 0x0, symName: __ZNSt3__111basic_regexIcNS_12regex_traitsIcEEE18__push_alternationEPNS_16__owns_one_stateIcEES6_, symObjAddr: 0x8E60, symBinAddr: 0x10000B4E0, symSize: 0x190 }
  - { offsetInCU: 0x2A14C, offset: 0x2A14C, size: 0x8, addend: 0x0, symName: __ZNSt3__111basic_regexIcNS_12regex_traitsIcEEE12__parse_termIPKcEET_S7_S7_, symObjAddr: 0x8FF0, symBinAddr: 0x10000B670, symSize: 0xB0 }
  - { offsetInCU: 0x2A1D6, offset: 0x2A1D6, size: 0x8, addend: 0x0, symName: __ZNSt3__111basic_regexIcNS_12regex_traitsIcEEE17__parse_assertionIPKcEET_S7_S7_, symObjAddr: 0x90A0, symBinAddr: 0x10000B720, symSize: 0x3D0 }
  - { offsetInCU: 0x2A2A6, offset: 0x2A2A6, size: 0x8, addend: 0x0, symName: __ZNSt3__111basic_regexIcNS_12regex_traitsIcEEE12__parse_atomIPKcEET_S7_S7_, symObjAddr: 0x9470, symBinAddr: 0x10000BAF0, symSize: 0x270 }
  - { offsetInCU: 0x2A32F, offset: 0x2A32F, size: 0x8, addend: 0x0, symName: __ZNSt3__111basic_regexIcNS_12regex_traitsIcEEE23__parse_ERE_dupl_symbolIPKcEET_S7_S7_PNS_16__owns_one_stateIcEEjj, symObjAddr: 0x96E0, symBinAddr: 0x10000BD60, symSize: 0x510 }
  - { offsetInCU: 0x2A411, offset: 0x2A411, size: 0x8, addend: 0x0, symName: __ZNSt3__111basic_regexIcNS_12regex_traitsIcEEE15__push_l_anchorEv, symObjAddr: 0x9BF0, symBinAddr: 0x10000C270, symSize: 0xC0 }
  - { offsetInCU: 0x2A439, offset: 0x2A439, size: 0x8, addend: 0x0, symName: __ZNSt3__111basic_regexIcNS_12regex_traitsIcEEE15__push_r_anchorEv, symObjAddr: 0x9CB0, symBinAddr: 0x10000C330, symSize: 0xC0 }
  - { offsetInCU: 0x2A461, offset: 0x2A461, size: 0x8, addend: 0x0, symName: __ZNSt3__111basic_regexIcNS_12regex_traitsIcEEE20__push_word_boundaryEb, symObjAddr: 0x9DC0, symBinAddr: 0x10000C440, symSize: 0xC0 }
  - { offsetInCU: 0x2A498, offset: 0x2A498, size: 0x8, addend: 0x0, symName: __ZNSt3__111basic_regexIcNS_12regex_traitsIcEEEC1B7v160006Ev, symObjAddr: 0x9E80, symBinAddr: 0x10000C500, symSize: 0x20 }
  - { offsetInCU: 0x2A4C2, offset: 0x2A4C2, size: 0x8, addend: 0x0, symName: __ZNSt3__111basic_regexIcNS_12regex_traitsIcEEE16__push_lookaheadERKS3_bj, symObjAddr: 0x9EA0, symBinAddr: 0x10000C520, symSize: 0xD0 }
  - { offsetInCU: 0x2A517, offset: 0x2A517, size: 0x8, addend: 0x0, symName: __ZNKSt3__111basic_regexIcNS_12regex_traitsIcEEE15__use_multilineB7v160006Ev, symObjAddr: 0x9FD0, symBinAddr: 0x10000C650, symSize: 0x60 }
  - { offsetInCU: 0x2A551, offset: 0x2A551, size: 0x8, addend: 0x0, symName: __ZNSt3__120__l_anchor_multilineIcEC1B7v160006EbPNS_6__nodeIcEE, symObjAddr: 0xA030, symBinAddr: 0x10000C6B0, symSize: 0x40 }
  - { offsetInCU: 0x2A599, offset: 0x2A599, size: 0x8, addend: 0x0, symName: __ZNSt3__120__l_anchor_multilineIcEC2B7v160006EbPNS_6__nodeIcEE, symObjAddr: 0xA090, symBinAddr: 0x10000C710, symSize: 0x50 }
  - { offsetInCU: 0x2A5E1, offset: 0x2A5E1, size: 0x8, addend: 0x0, symName: __ZNSt3__120__l_anchor_multilineIcED1Ev, symObjAddr: 0xA0E0, symBinAddr: 0x10000C760, symSize: 0x20 }
  - { offsetInCU: 0x2A60E, offset: 0x2A60E, size: 0x8, addend: 0x0, symName: __ZNSt3__120__l_anchor_multilineIcED0Ev, symObjAddr: 0xA100, symBinAddr: 0x10000C780, symSize: 0x30 }
  - { offsetInCU: 0x2A63B, offset: 0x2A63B, size: 0x8, addend: 0x0, symName: __ZNKSt3__120__l_anchor_multilineIcE6__execERNS_7__stateIcEE, symObjAddr: 0xA130, symBinAddr: 0x10000C7B0, symSize: 0x100 }
  - { offsetInCU: 0x2A672, offset: 0x2A672, size: 0x8, addend: 0x0, symName: __ZNSt3__120__l_anchor_multilineIcED2Ev, symObjAddr: 0xA230, symBinAddr: 0x10000C8B0, symSize: 0x20 }
  - { offsetInCU: 0x2A6B3, offset: 0x2A6B3, size: 0x8, addend: 0x0, symName: __ZNSt3__120__r_anchor_multilineIcEC1B7v160006EbPNS_6__nodeIcEE, symObjAddr: 0xA370, symBinAddr: 0x10000C9F0, symSize: 0x40 }
  - { offsetInCU: 0x2A6FB, offset: 0x2A6FB, size: 0x8, addend: 0x0, symName: __ZNSt3__120__r_anchor_multilineIcEC2B7v160006EbPNS_6__nodeIcEE, symObjAddr: 0xA3B0, symBinAddr: 0x10000CA30, symSize: 0x50 }
  - { offsetInCU: 0x2A743, offset: 0x2A743, size: 0x8, addend: 0x0, symName: __ZNSt3__120__r_anchor_multilineIcED1Ev, symObjAddr: 0xA400, symBinAddr: 0x10000CA80, symSize: 0x20 }
  - { offsetInCU: 0x2A770, offset: 0x2A770, size: 0x8, addend: 0x0, symName: __ZNSt3__120__r_anchor_multilineIcED0Ev, symObjAddr: 0xA420, symBinAddr: 0x10000CAA0, symSize: 0x30 }
  - { offsetInCU: 0x2A79D, offset: 0x2A79D, size: 0x8, addend: 0x0, symName: __ZNKSt3__120__r_anchor_multilineIcE6__execERNS_7__stateIcEE, symObjAddr: 0xA450, symBinAddr: 0x10000CAD0, symSize: 0xE0 }
  - { offsetInCU: 0x2A7D4, offset: 0x2A7D4, size: 0x8, addend: 0x0, symName: __ZNSt3__120__r_anchor_multilineIcED2Ev, symObjAddr: 0xA530, symBinAddr: 0x10000CBB0, symSize: 0x20 }
  - { offsetInCU: 0x2A815, offset: 0x2A815, size: 0x8, addend: 0x0, symName: __ZNSt3__115__word_boundaryIcNS_12regex_traitsIcEEEC1B7v160006ERKS2_bPNS_6__nodeIcEE, symObjAddr: 0xA550, symBinAddr: 0x10000CBD0, symSize: 0x40 }
  - { offsetInCU: 0x2A86C, offset: 0x2A86C, size: 0x8, addend: 0x0, symName: __ZNSt3__115__word_boundaryIcNS_12regex_traitsIcEEEC2B7v160006ERKS2_bPNS_6__nodeIcEE, symObjAddr: 0xA590, symBinAddr: 0x10000CC10, symSize: 0x60 }
  - { offsetInCU: 0x2A8C3, offset: 0x2A8C3, size: 0x8, addend: 0x0, symName: __ZNSt3__112regex_traitsIcEC1ERKS1_, symObjAddr: 0xA5F0, symBinAddr: 0x10000CC70, symSize: 0x30 }
  - { offsetInCU: 0x2A8F9, offset: 0x2A8F9, size: 0x8, addend: 0x0, symName: __ZNSt3__115__word_boundaryIcNS_12regex_traitsIcEEED1Ev, symObjAddr: 0xA620, symBinAddr: 0x10000CCA0, symSize: 0x20 }
  - { offsetInCU: 0x2A926, offset: 0x2A926, size: 0x8, addend: 0x0, symName: __ZNSt3__115__word_boundaryIcNS_12regex_traitsIcEEED0Ev, symObjAddr: 0xA640, symBinAddr: 0x10000CCC0, symSize: 0x30 }
  - { offsetInCU: 0x2A953, offset: 0x2A953, size: 0x8, addend: 0x0, symName: __ZNKSt3__115__word_boundaryIcNS_12regex_traitsIcEEE6__execERNS_7__stateIcEE, symObjAddr: 0xA670, symBinAddr: 0x10000CCF0, symSize: 0x240 }
  - { offsetInCU: 0x2AA1D, offset: 0x2AA1D, size: 0x8, addend: 0x0, symName: __ZNSt3__112regex_traitsIcEC2ERKS1_, symObjAddr: 0xA8B0, symBinAddr: 0x10000CF30, symSize: 0x40 }
  - { offsetInCU: 0x2AA53, offset: 0x2AA53, size: 0x8, addend: 0x0, symName: __ZNSt3__115__word_boundaryIcNS_12regex_traitsIcEEED2Ev, symObjAddr: 0xA8F0, symBinAddr: 0x10000CF70, symSize: 0x40 }
  - { offsetInCU: 0x2AA80, offset: 0x2AA80, size: 0x8, addend: 0x0, symName: __ZNKSt3__112regex_traitsIcE7isctypeEcj, symObjAddr: 0xA930, symBinAddr: 0x10000CFB0, symSize: 0x80 }
  - { offsetInCU: 0x2AAC6, offset: 0x2AAC6, size: 0x8, addend: 0x0, symName: __ZNKSt3__15ctypeIcE2isB7v160006Ejc, symObjAddr: 0xA9B0, symBinAddr: 0x10000D030, symSize: 0x70 }
  - { offsetInCU: 0x2AB09, offset: 0x2AB09, size: 0x8, addend: 0x0, symName: __Z7isasciii, symObjAddr: 0xAA20, symBinAddr: 0x10000D0A0, symSize: 0x20 }
  - { offsetInCU: 0x2AB36, offset: 0x2AB36, size: 0x8, addend: 0x0, symName: __ZNSt3__111basic_regexIcNS_12regex_traitsIcEEEC2B7v160006Ev, symObjAddr: 0xAA40, symBinAddr: 0x10000D0C0, symSize: 0x60 }
  - { offsetInCU: 0x2AB7E, offset: 0x2AB7E, size: 0x8, addend: 0x0, symName: __ZNSt3__111__lookaheadIcNS_12regex_traitsIcEEEC1B7v160006ERKNS_11basic_regexIcS2_EEbPNS_6__nodeIcEEj, symObjAddr: 0xAAA0, symBinAddr: 0x10000D120, symSize: 0x50 }
  - { offsetInCU: 0x2ABE4, offset: 0x2ABE4, size: 0x8, addend: 0x0, symName: __ZNSt3__111__lookaheadIcNS_12regex_traitsIcEEEC2B7v160006ERKNS_11basic_regexIcS2_EEbPNS_6__nodeIcEEj, symObjAddr: 0xAAF0, symBinAddr: 0x10000D170, symSize: 0x70 }
  - { offsetInCU: 0x2AC4A, offset: 0x2AC4A, size: 0x8, addend: 0x0, symName: __ZNSt3__111basic_regexIcNS_12regex_traitsIcEEEC1ERKS3_, symObjAddr: 0xAB60, symBinAddr: 0x10000D1E0, symSize: 0x30 }
  - { offsetInCU: 0x2AC80, offset: 0x2AC80, size: 0x8, addend: 0x0, symName: __ZNSt3__111__lookaheadIcNS_12regex_traitsIcEEED1Ev, symObjAddr: 0xAB90, symBinAddr: 0x10000D210, symSize: 0x20 }
  - { offsetInCU: 0x2ACAD, offset: 0x2ACAD, size: 0x8, addend: 0x0, symName: __ZNSt3__111__lookaheadIcNS_12regex_traitsIcEEED0Ev, symObjAddr: 0xABB0, symBinAddr: 0x10000D230, symSize: 0x30 }
  - { offsetInCU: 0x2ACDA, offset: 0x2ACDA, size: 0x8, addend: 0x0, symName: __ZNKSt3__111__lookaheadIcNS_12regex_traitsIcEEE6__execERNS_7__stateIcEE, symObjAddr: 0xABE0, symBinAddr: 0x10000D260, symSize: 0x290 }
  - { offsetInCU: 0x2AD4F, offset: 0x2AD4F, size: 0x8, addend: 0x0, symName: __ZNSt3__111basic_regexIcNS_12regex_traitsIcEEEC2ERKS3_, symObjAddr: 0xAE70, symBinAddr: 0x10000D4F0, symSize: 0x60 }
  - { offsetInCU: 0x2AD85, offset: 0x2AD85, size: 0x8, addend: 0x0, symName: __ZNSt3__110shared_ptrINS_13__empty_stateIcEEEC1B7v160006ERKS3_, symObjAddr: 0xAED0, symBinAddr: 0x10000D550, symSize: 0x30 }
  - { offsetInCU: 0x2ADBE, offset: 0x2ADBE, size: 0x8, addend: 0x0, symName: __ZNSt3__110shared_ptrINS_13__empty_stateIcEEEC2B7v160006ERKS3_, symObjAddr: 0xAF00, symBinAddr: 0x10000D580, symSize: 0x50 }
  - { offsetInCU: 0x2ADF7, offset: 0x2ADF7, size: 0x8, addend: 0x0, symName: __ZNSt3__119__shared_weak_count12__add_sharedB7v160006Ev, symObjAddr: 0xAF50, symBinAddr: 0x10000D5D0, symSize: 0x20 }
  - { offsetInCU: 0x2AE1D, offset: 0x2AE1D, size: 0x8, addend: 0x0, symName: __ZNSt3__114__shared_count12__add_sharedB7v160006Ev, symObjAddr: 0xAF70, symBinAddr: 0x10000D5F0, symSize: 0x20 }
  - { offsetInCU: 0x2AE43, offset: 0x2AE43, size: 0x8, addend: 0x0, symName: __ZNSt3__111__lookaheadIcNS_12regex_traitsIcEEED2Ev, symObjAddr: 0xAFC0, symBinAddr: 0x10000D640, symSize: 0x40 }
  - { offsetInCU: 0x2AEA2, offset: 0x2AEA2, size: 0x8, addend: 0x0, symName: __ZNSt3__113match_resultsIPKcNS_9allocatorINS_9sub_matchIS2_EEEEEC1Ev, symObjAddr: 0xB000, symBinAddr: 0x10000D680, symSize: 0x30 }
  - { offsetInCU: 0x2AECC, offset: 0x2AECC, size: 0x8, addend: 0x0, symName: __ZNSt3__113match_resultsIPKcNS_9allocatorINS_9sub_matchIS2_EEEEE6__initEjS2_S2_b, symObjAddr: 0xB030, symBinAddr: 0x10000D6B0, symSize: 0xA0 }
  - { offsetInCU: 0x2AF30, offset: 0x2AF30, size: 0x8, addend: 0x0, symName: __ZNKSt3__111basic_regexIcNS_12regex_traitsIcEEE10mark_countB7v160006Ev, symObjAddr: 0xB0D0, symBinAddr: 0x10000D750, symSize: 0x20 }
  - { offsetInCU: 0x2AF5B, offset: 0x2AF5B, size: 0x8, addend: 0x0, symName: __ZNKSt3__111basic_regexIcNS_12regex_traitsIcEEE21__match_at_start_ecmaINS_9allocatorINS_9sub_matchIPKcEEEEEEbS8_S8_RNS_13match_resultsIS8_T_EENS_15regex_constants15match_flag_typeEb, symObjAddr: 0xB0F0, symBinAddr: 0x10000D770, symSize: 0x5E0 }
  - { offsetInCU: 0x2B081, offset: 0x2B081, size: 0x8, addend: 0x0, symName: __ZNKSt3__113match_resultsIPKcNS_9allocatorINS_9sub_matchIS2_EEEEE4sizeB7v160006Ev, symObjAddr: 0xB710, symBinAddr: 0x10000DD90, symSize: 0x20 }
  - { offsetInCU: 0x2B0A7, offset: 0x2B0A7, size: 0x8, addend: 0x0, symName: __ZNSt3__16vectorINS_9sub_matchIPKcEENS_9allocatorIS4_EEEixB7v160006Em, symObjAddr: 0xB730, symBinAddr: 0x10000DDB0, symSize: 0x20 }
  - { offsetInCU: 0x2B0DE, offset: 0x2B0DE, size: 0x8, addend: 0x0, symName: __ZNSt3__19sub_matchIPKcEaSERKS3_, symObjAddr: 0xB750, symBinAddr: 0x10000DDD0, symSize: 0x40 }
  - { offsetInCU: 0x2B115, offset: 0x2B115, size: 0x8, addend: 0x0, symName: __ZNSt3__113match_resultsIPKcNS_9allocatorINS_9sub_matchIS2_EEEEED1Ev, symObjAddr: 0xB790, symBinAddr: 0x10000DE10, symSize: 0x20 }
  - { offsetInCU: 0x2B142, offset: 0x2B142, size: 0x8, addend: 0x0, symName: __ZNSt3__19allocatorINS_9sub_matchIPKcEEEC1B7v160006Ev, symObjAddr: 0xB7B0, symBinAddr: 0x10000DE30, symSize: 0x20 }
  - { offsetInCU: 0x2B16C, offset: 0x2B16C, size: 0x8, addend: 0x0, symName: __ZNSt3__113match_resultsIPKcNS_9allocatorINS_9sub_matchIS2_EEEEEC1ERKS6_, symObjAddr: 0xB7D0, symBinAddr: 0x10000DE50, symSize: 0x30 }
  - { offsetInCU: 0x2B1A7, offset: 0x2B1A7, size: 0x8, addend: 0x0, symName: __ZNSt3__19allocatorINS_9sub_matchIPKcEEEC2B7v160006Ev, symObjAddr: 0xB800, symBinAddr: 0x10000DE80, symSize: 0x20 }
  - { offsetInCU: 0x2B1D1, offset: 0x2B1D1, size: 0x8, addend: 0x0, symName: __ZNSt3__116__non_trivial_ifILb1ENS_9allocatorINS_9sub_matchIPKcEEEEEC2B7v160006Ev, symObjAddr: 0xB820, symBinAddr: 0x10000DEA0, symSize: 0x10 }
  - { offsetInCU: 0x2B1FB, offset: 0x2B1FB, size: 0x8, addend: 0x0, symName: __ZNSt3__113match_resultsIPKcNS_9allocatorINS_9sub_matchIS2_EEEEEC2ERKS6_, symObjAddr: 0xB830, symBinAddr: 0x10000DEB0, symSize: 0xA0 }
  - { offsetInCU: 0x2B236, offset: 0x2B236, size: 0x8, addend: 0x0, symName: __ZNSt3__16vectorINS_9sub_matchIPKcEENS_9allocatorIS4_EEEC1B7v160006ERKS6_, symObjAddr: 0xB8D0, symBinAddr: 0x10000DF50, symSize: 0x30 }
  - { offsetInCU: 0x2B26F, offset: 0x2B26F, size: 0x8, addend: 0x0, symName: __ZNSt3__19sub_matchIPKcEC1B7v160006Ev, symObjAddr: 0xB900, symBinAddr: 0x10000DF80, symSize: 0x20 }
  - { offsetInCU: 0x2B299, offset: 0x2B299, size: 0x8, addend: 0x0, symName: __ZNSt3__16vectorINS_9sub_matchIPKcEENS_9allocatorIS4_EEED1B7v160006Ev, symObjAddr: 0xB920, symBinAddr: 0x10000DFA0, symSize: 0x20 }
  - { offsetInCU: 0x2B2C3, offset: 0x2B2C3, size: 0x8, addend: 0x0, symName: __ZNSt3__16vectorINS_9sub_matchIPKcEENS_9allocatorIS4_EEEC2B7v160006ERKS6_, symObjAddr: 0xB940, symBinAddr: 0x10000DFC0, symSize: 0x70 }
  - { offsetInCU: 0x2B2FC, offset: 0x2B2FC, size: 0x8, addend: 0x0, symName: __ZNSt3__117__compressed_pairIPNS_9sub_matchIPKcEENS_9allocatorIS4_EEEC1B7v160006IDnRKS7_EEOT_OT0_, symObjAddr: 0xB9B0, symBinAddr: 0x10000E030, symSize: 0x30 }
  - { offsetInCU: 0x2B354, offset: 0x2B354, size: 0x8, addend: 0x0, symName: __ZNSt3__117__compressed_pairIPNS_9sub_matchIPKcEENS_9allocatorIS4_EEEC2B7v160006IDnRKS7_EEOT_OT0_, symObjAddr: 0xB9F0, symBinAddr: 0x10000E070, symSize: 0x40 }
  - { offsetInCU: 0x2B3AC, offset: 0x2B3AC, size: 0x8, addend: 0x0, symName: __ZNSt3__122__compressed_pair_elemIPNS_9sub_matchIPKcEELi0ELb0EEC2B7v160006IDnvEEOT_, symObjAddr: 0xBA30, symBinAddr: 0x10000E0B0, symSize: 0x20 }
  - { offsetInCU: 0x2B3EE, offset: 0x2B3EE, size: 0x8, addend: 0x0, symName: __ZNSt3__122__compressed_pair_elemINS_9allocatorINS_9sub_matchIPKcEEEELi1ELb1EEC2B7v160006IRKS6_vEEOT_, symObjAddr: 0xBA50, symBinAddr: 0x10000E0D0, symSize: 0x10 }
  - { offsetInCU: 0x2B430, offset: 0x2B430, size: 0x8, addend: 0x0, symName: __ZNSt3__19sub_matchIPKcEC2B7v160006Ev, symObjAddr: 0xBA60, symBinAddr: 0x10000E0E0, symSize: 0x30 }
  - { offsetInCU: 0x2B45A, offset: 0x2B45A, size: 0x8, addend: 0x0, symName: __ZNSt3__14pairIPKcS2_EC2B7v160006ILb1ELPv0EEEv, symObjAddr: 0xBA90, symBinAddr: 0x10000E110, symSize: 0x20 }
  - { offsetInCU: 0x2B494, offset: 0x2B494, size: 0x8, addend: 0x0, symName: __ZNSt3__16vectorINS_9sub_matchIPKcEENS_9allocatorIS4_EEED2B7v160006Ev, symObjAddr: 0xBAB0, symBinAddr: 0x10000E130, symSize: 0x40 }
  - { offsetInCU: 0x2B4BE, offset: 0x2B4BE, size: 0x8, addend: 0x0, symName: __ZNSt3__16vectorINS_9sub_matchIPKcEENS_9allocatorIS4_EEE16__destroy_vectorC1ERS7_, symObjAddr: 0xBAF0, symBinAddr: 0x10000E170, symSize: 0x30 }
  - { offsetInCU: 0x2B4F7, offset: 0x2B4F7, size: 0x8, addend: 0x0, symName: __ZNSt3__16vectorINS_9sub_matchIPKcEENS_9allocatorIS4_EEE16__destroy_vectorclB7v160006Ev, symObjAddr: 0xBB20, symBinAddr: 0x10000E1A0, symSize: 0x90 }
  - { offsetInCU: 0x2B51D, offset: 0x2B51D, size: 0x8, addend: 0x0, symName: __ZNSt3__16vectorINS_9sub_matchIPKcEENS_9allocatorIS4_EEE16__destroy_vectorC2ERS7_, symObjAddr: 0xBBB0, symBinAddr: 0x10000E230, symSize: 0x20 }
  - { offsetInCU: 0x2B556, offset: 0x2B556, size: 0x8, addend: 0x0, symName: __ZNKSt3__16vectorINS_9sub_matchIPKcEENS_9allocatorIS4_EEE17__annotate_deleteB7v160006Ev, symObjAddr: 0xBBD0, symBinAddr: 0x10000E250, symSize: 0xB0 }
  - { offsetInCU: 0x2B57C, offset: 0x2B57C, size: 0x8, addend: 0x0, symName: __ZNSt3__16vectorINS_9sub_matchIPKcEENS_9allocatorIS4_EEE7__clearB7v160006Ev, symObjAddr: 0xBC90, symBinAddr: 0x10000E310, symSize: 0x20 }
  - { offsetInCU: 0x2B5A2, offset: 0x2B5A2, size: 0x8, addend: 0x0, symName: __ZNSt3__116allocator_traitsINS_9allocatorINS_9sub_matchIPKcEEEEE10deallocateB7v160006ERS6_PS5_m, symObjAddr: 0xBCB0, symBinAddr: 0x10000E330, symSize: 0x30 }
  - { offsetInCU: 0x2B5E4, offset: 0x2B5E4, size: 0x8, addend: 0x0, symName: __ZNSt3__16vectorINS_9sub_matchIPKcEENS_9allocatorIS4_EEE7__allocB7v160006Ev, symObjAddr: 0xBCE0, symBinAddr: 0x10000E360, symSize: 0x20 }
  - { offsetInCU: 0x2B60A, offset: 0x2B60A, size: 0x8, addend: 0x0, symName: __ZNKSt3__16vectorINS_9sub_matchIPKcEENS_9allocatorIS4_EEE8capacityB7v160006Ev, symObjAddr: 0xBD00, symBinAddr: 0x10000E380, symSize: 0x40 }
  - { offsetInCU: 0x2B630, offset: 0x2B630, size: 0x8, addend: 0x0, symName: __ZNKSt3__16vectorINS_9sub_matchIPKcEENS_9allocatorIS4_EEE31__annotate_contiguous_containerB7v160006EPKvS9_S9_S9_, symObjAddr: 0xBD40, symBinAddr: 0x10000E3C0, symSize: 0x20 }
  - { offsetInCU: 0x2B682, offset: 0x2B682, size: 0x8, addend: 0x0, symName: __ZNKSt3__16vectorINS_9sub_matchIPKcEENS_9allocatorIS4_EEE4dataB7v160006Ev, symObjAddr: 0xBD60, symBinAddr: 0x10000E3E0, symSize: 0x20 }
  - { offsetInCU: 0x2B6A8, offset: 0x2B6A8, size: 0x8, addend: 0x0, symName: __ZNKSt3__16vectorINS_9sub_matchIPKcEENS_9allocatorIS4_EEE4sizeB7v160006Ev, symObjAddr: 0xBD80, symBinAddr: 0x10000E400, symSize: 0x30 }
  - { offsetInCU: 0x2B6CE, offset: 0x2B6CE, size: 0x8, addend: 0x0, symName: __ZNSt3__16vectorINS_9sub_matchIPKcEENS_9allocatorIS4_EEE22__base_destruct_at_endB7v160006EPS4_, symObjAddr: 0xBDC0, symBinAddr: 0x10000E440, symSize: 0x80 }
  - { offsetInCU: 0x2B712, offset: 0x2B712, size: 0x8, addend: 0x0, symName: __ZNSt3__116allocator_traitsINS_9allocatorINS_9sub_matchIPKcEEEEE7destroyB7v160006IS5_vvEEvRS6_PT_, symObjAddr: 0xBE40, symBinAddr: 0x10000E4C0, symSize: 0x20 }
  - { offsetInCU: 0x2B74C, offset: 0x2B74C, size: 0x8, addend: 0x0, symName: __ZNSt3__19allocatorINS_9sub_matchIPKcEEE10deallocateB7v160006EPS4_m, symObjAddr: 0xBE90, symBinAddr: 0x10000E510, symSize: 0x50 }
  - { offsetInCU: 0x2B78E, offset: 0x2B78E, size: 0x8, addend: 0x0, symName: __ZNSt3__117__compressed_pairIPNS_9sub_matchIPKcEENS_9allocatorIS4_EEE6secondB7v160006Ev, symObjAddr: 0xBEE0, symBinAddr: 0x10000E560, symSize: 0x20 }
  - { offsetInCU: 0x2B7B4, offset: 0x2B7B4, size: 0x8, addend: 0x0, symName: __ZNSt3__122__compressed_pair_elemINS_9allocatorINS_9sub_matchIPKcEEEELi1ELb1EE5__getB7v160006Ev, symObjAddr: 0xBF00, symBinAddr: 0x10000E580, symSize: 0x10 }
  - { offsetInCU: 0x2B7DA, offset: 0x2B7DA, size: 0x8, addend: 0x0, symName: __ZNKSt3__16vectorINS_9sub_matchIPKcEENS_9allocatorIS4_EEE9__end_capB7v160006Ev, symObjAddr: 0xBF10, symBinAddr: 0x10000E590, symSize: 0x20 }
  - { offsetInCU: 0x2B800, offset: 0x2B800, size: 0x8, addend: 0x0, symName: __ZNKSt3__117__compressed_pairIPNS_9sub_matchIPKcEENS_9allocatorIS4_EEE5firstB7v160006Ev, symObjAddr: 0xBF30, symBinAddr: 0x10000E5B0, symSize: 0x20 }
  - { offsetInCU: 0x2B826, offset: 0x2B826, size: 0x8, addend: 0x0, symName: __ZNKSt3__122__compressed_pair_elemIPNS_9sub_matchIPKcEELi0ELb0EE5__getB7v160006Ev, symObjAddr: 0xBF50, symBinAddr: 0x10000E5D0, symSize: 0x10 }
  - { offsetInCU: 0x2B84C, offset: 0x2B84C, size: 0x8, addend: 0x0, symName: __ZNSt3__16vectorINS_9sub_matchIPKcEENS_9allocatorIS4_EEE6assignEmRKS4_, symObjAddr: 0xBF60, symBinAddr: 0x10000E5E0, symSize: 0x100 }
  - { offsetInCU: 0x2B8AF, offset: 0x2B8AF, size: 0x8, addend: 0x0, symName: __ZNSt3__16vectorINS_9sub_matchIPKcEENS_9allocatorIS4_EEE18__construct_at_endEmRKS4_, symObjAddr: 0xC0A0, symBinAddr: 0x10000E720, symSize: 0xC0 }
  - { offsetInCU: 0x2B930, offset: 0x2B930, size: 0x8, addend: 0x0, symName: __ZNSt3__16vectorINS_9sub_matchIPKcEENS_9allocatorIS4_EEE17__destruct_at_endB7v160006EPS4_, symObjAddr: 0xC160, symBinAddr: 0x10000E7E0, symSize: 0x60 }
  - { offsetInCU: 0x2B974, offset: 0x2B974, size: 0x8, addend: 0x0, symName: __ZNSt3__16vectorINS_9sub_matchIPKcEENS_9allocatorIS4_EEE13__vdeallocateEv, symObjAddr: 0xC1C0, symBinAddr: 0x10000E840, symSize: 0x80 }
  - { offsetInCU: 0x2B99C, offset: 0x2B99C, size: 0x8, addend: 0x0, symName: __ZNSt3__16vectorINS_9sub_matchIPKcEENS_9allocatorIS4_EEE11__vallocateB7v160006Em, symObjAddr: 0xC240, symBinAddr: 0x10000E8C0, symSize: 0xA0 }
  - { offsetInCU: 0x2B9E0, offset: 0x2B9E0, size: 0x8, addend: 0x0, symName: __ZNKSt3__16vectorINS_9sub_matchIPKcEENS_9allocatorIS4_EEE11__recommendB7v160006Em, symObjAddr: 0xC2E0, symBinAddr: 0x10000E960, symSize: 0xA0 }
  - { offsetInCU: 0x2BA4E, offset: 0x2BA4E, size: 0x8, addend: 0x0, symName: __ZNSt3__16vectorINS_9sub_matchIPKcEENS_9allocatorIS4_EEE21_ConstructTransactionC1B7v160006ERS7_m, symObjAddr: 0xC400, symBinAddr: 0x10000EA80, symSize: 0x30 }
  - { offsetInCU: 0x2BA96, offset: 0x2BA96, size: 0x8, addend: 0x0, symName: __ZNSt3__116allocator_traitsINS_9allocatorINS_9sub_matchIPKcEEEEE9constructB7v160006IS5_JRKS5_EvvEEvRS6_PT_DpOT0_, symObjAddr: 0xC430, symBinAddr: 0x10000EAB0, symSize: 0x30 }
  - { offsetInCU: 0x2BAEA, offset: 0x2BAEA, size: 0x8, addend: 0x0, symName: __ZNSt3__16vectorINS_9sub_matchIPKcEENS_9allocatorIS4_EEE21_ConstructTransactionD1B7v160006Ev, symObjAddr: 0xC460, symBinAddr: 0x10000EAE0, symSize: 0x20 }
  - { offsetInCU: 0x2BB14, offset: 0x2BB14, size: 0x8, addend: 0x0, symName: __ZNSt3__16vectorINS_9sub_matchIPKcEENS_9allocatorIS4_EEE21_ConstructTransactionC2B7v160006ERS7_m, symObjAddr: 0xC480, symBinAddr: 0x10000EB00, symSize: 0x40 }
  - { offsetInCU: 0x2BB5C, offset: 0x2BB5C, size: 0x8, addend: 0x0, symName: __ZNSt3__16vectorINS_9sub_matchIPKcEENS_9allocatorIS4_EEE21_ConstructTransactionD2B7v160006Ev, symObjAddr: 0xC500, symBinAddr: 0x10000EB80, symSize: 0x20 }
  - { offsetInCU: 0x2BB86, offset: 0x2BB86, size: 0x8, addend: 0x0, symName: __ZNSt3__16vectorINS_9sub_matchIPKcEENS_9allocatorIS4_EEE27__invalidate_iterators_pastB7v160006EPS4_, symObjAddr: 0xC520, symBinAddr: 0x10000EBA0, symSize: 0x10 }
  - { offsetInCU: 0x2BBBD, offset: 0x2BBBD, size: 0x8, addend: 0x0, symName: __ZNKSt3__16vectorINS_9sub_matchIPKcEENS_9allocatorIS4_EEE17__annotate_shrinkB7v160006Em, symObjAddr: 0xC530, symBinAddr: 0x10000EBB0, symSize: 0xA0 }
  - { offsetInCU: 0x2BBF2, offset: 0x2BBF2, size: 0x8, addend: 0x0, symName: __ZNSt3__16vectorINS_9sub_matchIPKcEENS_9allocatorIS4_EEE5clearB7v160006Ev, symObjAddr: 0xC5D0, symBinAddr: 0x10000EC50, symSize: 0x50 }
  - { offsetInCU: 0x2BC27, offset: 0x2BC27, size: 0x8, addend: 0x0, symName: __ZNSt3__16vectorINS_9sub_matchIPKcEENS_9allocatorIS4_EEE9__end_capB7v160006Ev, symObjAddr: 0xC620, symBinAddr: 0x10000ECA0, symSize: 0x20 }
  - { offsetInCU: 0x2BC4D, offset: 0x2BC4D, size: 0x8, addend: 0x0, symName: __ZNSt3__117__compressed_pairIPNS_9sub_matchIPKcEENS_9allocatorIS4_EEE5firstB7v160006Ev, symObjAddr: 0xC640, symBinAddr: 0x10000ECC0, symSize: 0x20 }
  - { offsetInCU: 0x2BC73, offset: 0x2BC73, size: 0x8, addend: 0x0, symName: __ZNSt3__122__compressed_pair_elemIPNS_9sub_matchIPKcEELi0ELb0EE5__getB7v160006Ev, symObjAddr: 0xC660, symBinAddr: 0x10000ECE0, symSize: 0x10 }
  - { offsetInCU: 0x2BC99, offset: 0x2BC99, size: 0x8, addend: 0x0, symName: __ZNKSt3__16vectorINS_9sub_matchIPKcEENS_9allocatorIS4_EEE8max_sizeEv, symObjAddr: 0xC670, symBinAddr: 0x10000ECF0, symSize: 0x60 }
  - { offsetInCU: 0x2BCC1, offset: 0x2BCC1, size: 0x8, addend: 0x0, symName: __ZNKSt3__16vectorINS_9sub_matchIPKcEENS_9allocatorIS4_EEE20__throw_length_errorB7v160006Ev, symObjAddr: 0xC6D0, symBinAddr: 0x10000ED50, symSize: 0x20 }
  - { offsetInCU: 0x2BCE7, offset: 0x2BCE7, size: 0x8, addend: 0x0, symName: __ZNKSt3__16vectorINS_9sub_matchIPKcEENS_9allocatorIS4_EEE14__annotate_newB7v160006Em, symObjAddr: 0xC730, symBinAddr: 0x10000EDB0, symSize: 0xA0 }
  - { offsetInCU: 0x2BD26, offset: 0x2BD26, size: 0x8, addend: 0x0, symName: __ZNSt3__116allocator_traitsINS_9allocatorINS_9sub_matchIPKcEEEEE8max_sizeB7v160006IS6_vvEEmRKS6_, symObjAddr: 0xC7D0, symBinAddr: 0x10000EE50, symSize: 0x30 }
  - { offsetInCU: 0x2BD51, offset: 0x2BD51, size: 0x8, addend: 0x0, symName: __ZNKSt3__16vectorINS_9sub_matchIPKcEENS_9allocatorIS4_EEE7__allocB7v160006Ev, symObjAddr: 0xC800, symBinAddr: 0x10000EE80, symSize: 0x20 }
  - { offsetInCU: 0x2BD77, offset: 0x2BD77, size: 0x8, addend: 0x0, symName: __ZNKSt3__117__compressed_pairIPNS_9sub_matchIPKcEENS_9allocatorIS4_EEE6secondB7v160006Ev, symObjAddr: 0xC820, symBinAddr: 0x10000EEA0, symSize: 0x20 }
  - { offsetInCU: 0x2BD9D, offset: 0x2BD9D, size: 0x8, addend: 0x0, symName: __ZNKSt3__122__compressed_pair_elemINS_9allocatorINS_9sub_matchIPKcEEEELi1ELb1EE5__getB7v160006Ev, symObjAddr: 0xC840, symBinAddr: 0x10000EEC0, symSize: 0x10 }
  - { offsetInCU: 0x2BDC3, offset: 0x2BDC3, size: 0x8, addend: 0x0, symName: __ZNSt3__19allocatorINS_9sub_matchIPKcEEE8allocateB7v160006Em, symObjAddr: 0xC850, symBinAddr: 0x10000EED0, symSize: 0x50 }
  - { offsetInCU: 0x2BDF7, offset: 0x2BDF7, size: 0x8, addend: 0x0, symName: __ZNSt3__16vectorINS_7__stateIcEENS_9allocatorIS2_EEEC1B7v160006Ev, symObjAddr: 0xC8A0, symBinAddr: 0x10000EF20, symSize: 0x20 }
  - { offsetInCU: 0x2BE21, offset: 0x2BE21, size: 0x8, addend: 0x0, symName: __ZNSt3__16vectorINS_7__stateIcEENS_9allocatorIS2_EEE9push_backB7v160006EOS2_, symObjAddr: 0xC8C0, symBinAddr: 0x10000EF40, symSize: 0x60 }
  - { offsetInCU: 0x2BE58, offset: 0x2BE58, size: 0x8, addend: 0x0, symName: __ZNSt3__17__stateIcEC1B7v160006Ev, symObjAddr: 0xC920, symBinAddr: 0x10000EFA0, symSize: 0x20 }
  - { offsetInCU: 0x2BE82, offset: 0x2BE82, size: 0x8, addend: 0x0, symName: __ZNSt3__17__stateIcED1Ev, symObjAddr: 0xC940, symBinAddr: 0x10000EFC0, symSize: 0x20 }
  - { offsetInCU: 0x2BEAF, offset: 0x2BEAF, size: 0x8, addend: 0x0, symName: __ZNSt3__16vectorINS_7__stateIcEENS_9allocatorIS2_EEE4backB7v160006Ev, symObjAddr: 0xC960, symBinAddr: 0x10000EFE0, symSize: 0x20 }
  - { offsetInCU: 0x2BED5, offset: 0x2BED5, size: 0x8, addend: 0x0, symName: __ZNSt3__16vectorINS_9sub_matchIPKcEENS_9allocatorIS4_EEE6resizeEmRKS4_, symObjAddr: 0xC980, symBinAddr: 0x10000F000, symSize: 0x80 }
  - { offsetInCU: 0x2BF2A, offset: 0x2BF2A, size: 0x8, addend: 0x0, symName: __ZNSt3__16vectorINS_4pairImPKcEENS_9allocatorIS4_EEE6resizeEm, symObjAddr: 0xCA00, symBinAddr: 0x10000F080, symSize: 0x80 }
  - { offsetInCU: 0x2BF70, offset: 0x2BF70, size: 0x8, addend: 0x0, symName: __ZNKSt3__111basic_regexIcNS_12regex_traitsIcEEE12__loop_countB7v160006Ev, symObjAddr: 0xCA80, symBinAddr: 0x10000F100, symSize: 0x20 }
  - { offsetInCU: 0x2BF96, offset: 0x2BF96, size: 0x8, addend: 0x0, symName: __ZNSt3__16vectorINS_7__stateIcEENS_9allocatorIS2_EEE8pop_backEv, symObjAddr: 0xCB00, symBinAddr: 0x10000F180, symSize: 0x30 }
  - { offsetInCU: 0x2BFC3, offset: 0x2BFC3, size: 0x8, addend: 0x0, symName: __ZNSt3__17__stateIcEC1ERKS1_, symObjAddr: 0xCB30, symBinAddr: 0x10000F1B0, symSize: 0x30 }
  - { offsetInCU: 0x2BFF9, offset: 0x2BFF9, size: 0x8, addend: 0x0, symName: __ZNKSt3__16vectorINS_7__stateIcEENS_9allocatorIS2_EEE5emptyB7v160006Ev, symObjAddr: 0xCBC0, symBinAddr: 0x10000F240, symSize: 0x20 }
  - { offsetInCU: 0x2C01F, offset: 0x2C01F, size: 0x8, addend: 0x0, symName: __ZNSt3__16vectorINS_7__stateIcEENS_9allocatorIS2_EEED1B7v160006Ev, symObjAddr: 0xCBE0, symBinAddr: 0x10000F260, symSize: 0x20 }
  - { offsetInCU: 0x2C049, offset: 0x2C049, size: 0x8, addend: 0x0, symName: __ZNSt3__16vectorINS_7__stateIcEENS_9allocatorIS2_EEEC2B7v160006Ev, symObjAddr: 0xCC00, symBinAddr: 0x10000F280, symSize: 0x60 }
  - { offsetInCU: 0x2C073, offset: 0x2C073, size: 0x8, addend: 0x0, symName: __ZNSt3__117__compressed_pairIPNS_7__stateIcEENS_9allocatorIS2_EEEC1B7v160006IDnNS_18__default_init_tagEEEOT_OT0_, symObjAddr: 0xCC60, symBinAddr: 0x10000F2E0, symSize: 0x30 }
  - { offsetInCU: 0x2C0CB, offset: 0x2C0CB, size: 0x8, addend: 0x0, symName: __ZNSt3__117__compressed_pairIPNS_7__stateIcEENS_9allocatorIS2_EEEC2B7v160006IDnNS_18__default_init_tagEEEOT_OT0_, symObjAddr: 0xCCA0, symBinAddr: 0x10000F320, symSize: 0x40 }
  - { offsetInCU: 0x2C123, offset: 0x2C123, size: 0x8, addend: 0x0, symName: __ZNSt3__122__compressed_pair_elemIPNS_7__stateIcEELi0ELb0EEC2B7v160006IDnvEEOT_, symObjAddr: 0xCCE0, symBinAddr: 0x10000F360, symSize: 0x20 }
  - { offsetInCU: 0x2C165, offset: 0x2C165, size: 0x8, addend: 0x0, symName: __ZNSt3__122__compressed_pair_elemINS_9allocatorINS_7__stateIcEEEELi1ELb1EEC2B7v160006ENS_18__default_init_tagE, symObjAddr: 0xCD00, symBinAddr: 0x10000F380, symSize: 0x20 }
  - { offsetInCU: 0x2C199, offset: 0x2C199, size: 0x8, addend: 0x0, symName: __ZNSt3__19allocatorINS_7__stateIcEEEC2B7v160006Ev, symObjAddr: 0xCD20, symBinAddr: 0x10000F3A0, symSize: 0x20 }
  - { offsetInCU: 0x2C1C3, offset: 0x2C1C3, size: 0x8, addend: 0x0, symName: __ZNSt3__116__non_trivial_ifILb1ENS_9allocatorINS_7__stateIcEEEEEC2B7v160006Ev, symObjAddr: 0xCD40, symBinAddr: 0x10000F3C0, symSize: 0x10 }
  - { offsetInCU: 0x2C1ED, offset: 0x2C1ED, size: 0x8, addend: 0x0, symName: __ZNSt3__16vectorINS_7__stateIcEENS_9allocatorIS2_EEE9__end_capB7v160006Ev, symObjAddr: 0xCD50, symBinAddr: 0x10000F3D0, symSize: 0x20 }
  - { offsetInCU: 0x2C218, offset: 0x2C218, size: 0x8, addend: 0x0, symName: __ZNSt3__16vectorINS_7__stateIcEENS_9allocatorIS2_EEE22__construct_one_at_endB7v160006IJS2_EEEvDpOT_, symObjAddr: 0xCD70, symBinAddr: 0x10000F3F0, symSize: 0x90 }
  - { offsetInCU: 0x2C267, offset: 0x2C267, size: 0x8, addend: 0x0, symName: __ZNSt3__16vectorINS_7__stateIcEENS_9allocatorIS2_EEE21__push_back_slow_pathIS2_EEvOT_, symObjAddr: 0xCE00, symBinAddr: 0x10000F480, symSize: 0xD0 }
  - { offsetInCU: 0x2C2C5, offset: 0x2C2C5, size: 0x8, addend: 0x0, symName: __ZNSt3__117__compressed_pairIPNS_7__stateIcEENS_9allocatorIS2_EEE5firstB7v160006Ev, symObjAddr: 0xCED0, symBinAddr: 0x10000F550, symSize: 0x20 }
  - { offsetInCU: 0x2C2EB, offset: 0x2C2EB, size: 0x8, addend: 0x0, symName: __ZNSt3__122__compressed_pair_elemIPNS_7__stateIcEELi0ELb0EE5__getB7v160006Ev, symObjAddr: 0xCEF0, symBinAddr: 0x10000F570, symSize: 0x10 }
  - { offsetInCU: 0x2C32A, offset: 0x2C32A, size: 0x8, addend: 0x0, symName: __ZNSt3__16vectorINS_7__stateIcEENS_9allocatorIS2_EEE21_ConstructTransactionC1B7v160006ERS5_m, symObjAddr: 0xCF00, symBinAddr: 0x10000F580, symSize: 0x30 }
  - { offsetInCU: 0x2C372, offset: 0x2C372, size: 0x8, addend: 0x0, symName: __ZNSt3__116allocator_traitsINS_9allocatorINS_7__stateIcEEEEE9constructB7v160006IS3_JS3_EvvEEvRS4_PT_DpOT0_, symObjAddr: 0xCF30, symBinAddr: 0x10000F5B0, symSize: 0x30 }
  - { offsetInCU: 0x2C3C6, offset: 0x2C3C6, size: 0x8, addend: 0x0, symName: __ZNSt3__16vectorINS_7__stateIcEENS_9allocatorIS2_EEE7__allocB7v160006Ev, symObjAddr: 0xCF60, symBinAddr: 0x10000F5E0, symSize: 0x20 }
  - { offsetInCU: 0x2C3EC, offset: 0x2C3EC, size: 0x8, addend: 0x0, symName: __ZNSt3__16vectorINS_7__stateIcEENS_9allocatorIS2_EEE21_ConstructTransactionD1B7v160006Ev, symObjAddr: 0xCF90, symBinAddr: 0x10000F610, symSize: 0x20 }
  - { offsetInCU: 0x2C416, offset: 0x2C416, size: 0x8, addend: 0x0, symName: __ZNSt3__16vectorINS_7__stateIcEENS_9allocatorIS2_EEE21_ConstructTransactionC2B7v160006ERS5_m, symObjAddr: 0xCFB0, symBinAddr: 0x10000F630, symSize: 0x40 }
  - { offsetInCU: 0x2C45E, offset: 0x2C45E, size: 0x8, addend: 0x0, symName: __ZNSt3__17__stateIcEC1EOS1_, symObjAddr: 0xD030, symBinAddr: 0x10000F6B0, symSize: 0x30 }
  - { offsetInCU: 0x2C494, offset: 0x2C494, size: 0x8, addend: 0x0, symName: __ZNSt3__17__stateIcEC2EOS1_, symObjAddr: 0xD060, symBinAddr: 0x10000F6E0, symSize: 0x90 }
  - { offsetInCU: 0x2C4CA, offset: 0x2C4CA, size: 0x8, addend: 0x0, symName: __ZNSt3__16vectorINS_9sub_matchIPKcEENS_9allocatorIS4_EEEC1B7v160006EOS7_, symObjAddr: 0xD0F0, symBinAddr: 0x10000F770, symSize: 0x30 }
  - { offsetInCU: 0x2C505, offset: 0x2C505, size: 0x8, addend: 0x0, symName: __ZNSt3__16vectorINS_4pairImPKcEENS_9allocatorIS4_EEEC1B7v160006EOS7_, symObjAddr: 0xD120, symBinAddr: 0x10000F7A0, symSize: 0x30 }
  - { offsetInCU: 0x2C540, offset: 0x2C540, size: 0x8, addend: 0x0, symName: __ZNSt3__16vectorINS_9sub_matchIPKcEENS_9allocatorIS4_EEEC2B7v160006EOS7_, symObjAddr: 0xD150, symBinAddr: 0x10000F7D0, symSize: 0xE0 }
  - { offsetInCU: 0x2C580, offset: 0x2C580, size: 0x8, addend: 0x0, symName: __ZNSt3__117__compressed_pairIPNS_9sub_matchIPKcEENS_9allocatorIS4_EEEC1B7v160006IDnS7_EEOT_OT0_, symObjAddr: 0xD230, symBinAddr: 0x10000F8B0, symSize: 0x30 }
  - { offsetInCU: 0x2C5D8, offset: 0x2C5D8, size: 0x8, addend: 0x0, symName: __ZNSt3__117__compressed_pairIPNS_9sub_matchIPKcEENS_9allocatorIS4_EEEC2B7v160006IDnS7_EEOT_OT0_, symObjAddr: 0xD270, symBinAddr: 0x10000F8F0, symSize: 0x40 }
  - { offsetInCU: 0x2C630, offset: 0x2C630, size: 0x8, addend: 0x0, symName: __ZNSt3__122__compressed_pair_elemINS_9allocatorINS_9sub_matchIPKcEEEELi1ELb1EEC2B7v160006IS6_vEEOT_, symObjAddr: 0xD2B0, symBinAddr: 0x10000F930, symSize: 0x10 }
  - { offsetInCU: 0x2C672, offset: 0x2C672, size: 0x8, addend: 0x0, symName: __ZNSt3__16vectorINS_4pairImPKcEENS_9allocatorIS4_EEEC2B7v160006EOS7_, symObjAddr: 0xD2C0, symBinAddr: 0x10000F940, symSize: 0xF0 }
  - { offsetInCU: 0x2C6AD, offset: 0x2C6AD, size: 0x8, addend: 0x0, symName: __ZNSt3__16vectorINS_4pairImPKcEENS_9allocatorIS4_EEE7__allocB7v160006Ev, symObjAddr: 0xD3B0, symBinAddr: 0x10000FA30, symSize: 0x20 }
  - { offsetInCU: 0x2C6D8, offset: 0x2C6D8, size: 0x8, addend: 0x0, symName: __ZNSt3__117__compressed_pairIPNS_4pairImPKcEENS_9allocatorIS4_EEEC1B7v160006IDnS7_EEOT_OT0_, symObjAddr: 0xD3D0, symBinAddr: 0x10000FA50, symSize: 0x30 }
  - { offsetInCU: 0x2C730, offset: 0x2C730, size: 0x8, addend: 0x0, symName: __ZNSt3__16vectorINS_4pairImPKcEENS_9allocatorIS4_EEE9__end_capB7v160006Ev, symObjAddr: 0xD420, symBinAddr: 0x10000FAA0, symSize: 0x20 }
  - { offsetInCU: 0x2C756, offset: 0x2C756, size: 0x8, addend: 0x0, symName: __ZNSt3__117__compressed_pairIPNS_4pairImPKcEENS_9allocatorIS4_EEE6secondB7v160006Ev, symObjAddr: 0xD440, symBinAddr: 0x10000FAC0, symSize: 0x20 }
  - { offsetInCU: 0x2C77C, offset: 0x2C77C, size: 0x8, addend: 0x0, symName: __ZNSt3__122__compressed_pair_elemINS_9allocatorINS_4pairImPKcEEEELi1ELb1EE5__getB7v160006Ev, symObjAddr: 0xD460, symBinAddr: 0x10000FAE0, symSize: 0x10 }
  - { offsetInCU: 0x2C7A2, offset: 0x2C7A2, size: 0x8, addend: 0x0, symName: __ZNSt3__117__compressed_pairIPNS_4pairImPKcEENS_9allocatorIS4_EEEC2B7v160006IDnS7_EEOT_OT0_, symObjAddr: 0xD470, symBinAddr: 0x10000FAF0, symSize: 0x40 }
  - { offsetInCU: 0x2C7FA, offset: 0x2C7FA, size: 0x8, addend: 0x0, symName: __ZNSt3__122__compressed_pair_elemIPNS_4pairImPKcEELi0ELb0EEC2B7v160006IDnvEEOT_, symObjAddr: 0xD4B0, symBinAddr: 0x10000FB30, symSize: 0x20 }
  - { offsetInCU: 0x2C83C, offset: 0x2C83C, size: 0x8, addend: 0x0, symName: __ZNSt3__122__compressed_pair_elemINS_9allocatorINS_4pairImPKcEEEELi1ELb1EEC2B7v160006IS6_vEEOT_, symObjAddr: 0xD4D0, symBinAddr: 0x10000FB50, symSize: 0x10 }
  - { offsetInCU: 0x2C87E, offset: 0x2C87E, size: 0x8, addend: 0x0, symName: __ZNSt3__117__compressed_pairIPNS_4pairImPKcEENS_9allocatorIS4_EEE5firstB7v160006Ev, symObjAddr: 0xD4E0, symBinAddr: 0x10000FB60, symSize: 0x20 }
  - { offsetInCU: 0x2C8A4, offset: 0x2C8A4, size: 0x8, addend: 0x0, symName: __ZNSt3__122__compressed_pair_elemIPNS_4pairImPKcEELi0ELb0EE5__getB7v160006Ev, symObjAddr: 0xD500, symBinAddr: 0x10000FB80, symSize: 0x10 }
  - { offsetInCU: 0x2C8CA, offset: 0x2C8CA, size: 0x8, addend: 0x0, symName: __ZNSt3__117__compressed_pairIPNS_7__stateIcEENS_9allocatorIS2_EEE6secondB7v160006Ev, symObjAddr: 0xD510, symBinAddr: 0x10000FB90, symSize: 0x20 }
  - { offsetInCU: 0x2C8F0, offset: 0x2C8F0, size: 0x8, addend: 0x0, symName: __ZNSt3__122__compressed_pair_elemINS_9allocatorINS_7__stateIcEEEELi1ELb1EE5__getB7v160006Ev, symObjAddr: 0xD530, symBinAddr: 0x10000FBB0, symSize: 0x10 }
  - { offsetInCU: 0x2C916, offset: 0x2C916, size: 0x8, addend: 0x0, symName: __ZNSt3__16vectorINS_7__stateIcEENS_9allocatorIS2_EEE21_ConstructTransactionD2B7v160006Ev, symObjAddr: 0xD540, symBinAddr: 0x10000FBC0, symSize: 0x20 }
  - { offsetInCU: 0x2C940, offset: 0x2C940, size: 0x8, addend: 0x0, symName: __ZNKSt3__16vectorINS_7__stateIcEENS_9allocatorIS2_EEE11__recommendB7v160006Em, symObjAddr: 0xD560, symBinAddr: 0x10000FBE0, symSize: 0xA0 }
  - { offsetInCU: 0x2C995, offset: 0x2C995, size: 0x8, addend: 0x0, symName: __ZNKSt3__16vectorINS_7__stateIcEENS_9allocatorIS2_EEE4sizeB7v160006Ev, symObjAddr: 0xD600, symBinAddr: 0x10000FC80, symSize: 0x30 }
  - { offsetInCU: 0x2C9BB, offset: 0x2C9BB, size: 0x8, addend: 0x0, symName: __ZNSt3__114__split_bufferINS_7__stateIcEERNS_9allocatorIS2_EEEC1EmmS5_, symObjAddr: 0xD630, symBinAddr: 0x10000FCB0, symSize: 0x40 }
  - { offsetInCU: 0x2CA11, offset: 0x2CA11, size: 0x8, addend: 0x0, symName: __ZNSt3__114__split_bufferINS_7__stateIcEERNS_9allocatorIS2_EEED1Ev, symObjAddr: 0xD7A0, symBinAddr: 0x10000FE20, symSize: 0x20 }
  - { offsetInCU: 0x2CA3D, offset: 0x2CA3D, size: 0x8, addend: 0x0, symName: __ZNKSt3__16vectorINS_7__stateIcEENS_9allocatorIS2_EEE8max_sizeEv, symObjAddr: 0xD7C0, symBinAddr: 0x10000FE40, symSize: 0x60 }
  - { offsetInCU: 0x2CA65, offset: 0x2CA65, size: 0x8, addend: 0x0, symName: __ZNKSt3__16vectorINS_7__stateIcEENS_9allocatorIS2_EEE20__throw_length_errorB7v160006Ev, symObjAddr: 0xD820, symBinAddr: 0x10000FEA0, symSize: 0x20 }
  - { offsetInCU: 0x2CA8B, offset: 0x2CA8B, size: 0x8, addend: 0x0, symName: __ZNKSt3__16vectorINS_7__stateIcEENS_9allocatorIS2_EEE8capacityB7v160006Ev, symObjAddr: 0xD840, symBinAddr: 0x10000FEC0, symSize: 0x40 }
  - { offsetInCU: 0x2CABB, offset: 0x2CABB, size: 0x8, addend: 0x0, symName: __ZNSt3__116allocator_traitsINS_9allocatorINS_7__stateIcEEEEE8max_sizeB7v160006IS4_vvEEmRKS4_, symObjAddr: 0xD880, symBinAddr: 0x10000FF00, symSize: 0x30 }
  - { offsetInCU: 0x2CAE6, offset: 0x2CAE6, size: 0x8, addend: 0x0, symName: __ZNKSt3__16vectorINS_7__stateIcEENS_9allocatorIS2_EEE7__allocB7v160006Ev, symObjAddr: 0xD8B0, symBinAddr: 0x10000FF30, symSize: 0x20 }
  - { offsetInCU: 0x2CB0C, offset: 0x2CB0C, size: 0x8, addend: 0x0, symName: __ZNKSt3__117__compressed_pairIPNS_7__stateIcEENS_9allocatorIS2_EEE6secondB7v160006Ev, symObjAddr: 0xD8D0, symBinAddr: 0x10000FF50, symSize: 0x20 }
  - { offsetInCU: 0x2CB32, offset: 0x2CB32, size: 0x8, addend: 0x0, symName: __ZNKSt3__122__compressed_pair_elemINS_9allocatorINS_7__stateIcEEEELi1ELb1EE5__getB7v160006Ev, symObjAddr: 0xD8F0, symBinAddr: 0x10000FF70, symSize: 0x10 }
  - { offsetInCU: 0x2CB58, offset: 0x2CB58, size: 0x8, addend: 0x0, symName: __ZNKSt3__16vectorINS_7__stateIcEENS_9allocatorIS2_EEE9__end_capB7v160006Ev, symObjAddr: 0xD900, symBinAddr: 0x10000FF80, symSize: 0x20 }
  - { offsetInCU: 0x2CB7E, offset: 0x2CB7E, size: 0x8, addend: 0x0, symName: __ZNKSt3__117__compressed_pairIPNS_7__stateIcEENS_9allocatorIS2_EEE5firstB7v160006Ev, symObjAddr: 0xD920, symBinAddr: 0x10000FFA0, symSize: 0x20 }
  - { offsetInCU: 0x2CBA4, offset: 0x2CBA4, size: 0x8, addend: 0x0, symName: __ZNKSt3__122__compressed_pair_elemIPNS_7__stateIcEELi0ELb0EE5__getB7v160006Ev, symObjAddr: 0xD940, symBinAddr: 0x10000FFC0, symSize: 0x10 }
  - { offsetInCU: 0x2CBCA, offset: 0x2CBCA, size: 0x8, addend: 0x0, symName: __ZNSt3__114__split_bufferINS_7__stateIcEERNS_9allocatorIS2_EEEC2EmmS5_, symObjAddr: 0xD950, symBinAddr: 0x10000FFD0, symSize: 0xC0 }
  - { offsetInCU: 0x2CC3D, offset: 0x2CC3D, size: 0x8, addend: 0x0, symName: __ZNSt3__117__compressed_pairIPNS_7__stateIcEERNS_9allocatorIS2_EEEC1B7v160006IDnS6_EEOT_OT0_, symObjAddr: 0xDA10, symBinAddr: 0x100010090, symSize: 0x30 }
  - { offsetInCU: 0x2CC95, offset: 0x2CC95, size: 0x8, addend: 0x0, symName: __ZNSt3__114__split_bufferINS_7__stateIcEERNS_9allocatorIS2_EEE7__allocB7v160006Ev, symObjAddr: 0xDA80, symBinAddr: 0x100010100, symSize: 0x20 }
  - { offsetInCU: 0x2CCBB, offset: 0x2CCBB, size: 0x8, addend: 0x0, symName: __ZNSt3__114__split_bufferINS_7__stateIcEERNS_9allocatorIS2_EEE9__end_capB7v160006Ev, symObjAddr: 0xDAA0, symBinAddr: 0x100010120, symSize: 0x20 }
  - { offsetInCU: 0x2CCE1, offset: 0x2CCE1, size: 0x8, addend: 0x0, symName: __ZNSt3__117__compressed_pairIPNS_7__stateIcEERNS_9allocatorIS2_EEEC2B7v160006IDnS6_EEOT_OT0_, symObjAddr: 0xDAC0, symBinAddr: 0x100010140, symSize: 0x40 }
  - { offsetInCU: 0x2CD39, offset: 0x2CD39, size: 0x8, addend: 0x0, symName: __ZNSt3__122__compressed_pair_elemIRNS_9allocatorINS_7__stateIcEEEELi1ELb0EEC2B7v160006IS5_vEEOT_, symObjAddr: 0xDB00, symBinAddr: 0x100010180, symSize: 0x20 }
  - { offsetInCU: 0x2CD7B, offset: 0x2CD7B, size: 0x8, addend: 0x0, symName: __ZNSt3__19allocatorINS_7__stateIcEEE8allocateB7v160006Em, symObjAddr: 0xDB20, symBinAddr: 0x1000101A0, symSize: 0x50 }
  - { offsetInCU: 0x2CDAF, offset: 0x2CDAF, size: 0x8, addend: 0x0, symName: __ZNSt3__117__compressed_pairIPNS_7__stateIcEERNS_9allocatorIS2_EEE6secondB7v160006Ev, symObjAddr: 0xDB70, symBinAddr: 0x1000101F0, symSize: 0x20 }
  - { offsetInCU: 0x2CDD5, offset: 0x2CDD5, size: 0x8, addend: 0x0, symName: __ZNSt3__122__compressed_pair_elemIRNS_9allocatorINS_7__stateIcEEEELi1ELb0EE5__getB7v160006Ev, symObjAddr: 0xDB90, symBinAddr: 0x100010210, symSize: 0x20 }
  - { offsetInCU: 0x2CDFB, offset: 0x2CDFB, size: 0x8, addend: 0x0, symName: __ZNSt3__117__compressed_pairIPNS_7__stateIcEERNS_9allocatorIS2_EEE5firstB7v160006Ev, symObjAddr: 0xDBB0, symBinAddr: 0x100010230, symSize: 0x20 }
  - { offsetInCU: 0x2CE21, offset: 0x2CE21, size: 0x8, addend: 0x0, symName: __ZNKSt3__16vectorINS_7__stateIcEENS_9allocatorIS2_EEE17__annotate_deleteB7v160006Ev, symObjAddr: 0xDBD0, symBinAddr: 0x100010250, symSize: 0xB0 }
  - { offsetInCU: 0x2CE47, offset: 0x2CE47, size: 0x8, addend: 0x0, symName: __ZNSt3__116reverse_iteratorIPNS_7__stateIcEEEC1B7v160006ES3_, symObjAddr: 0xDE00, symBinAddr: 0x100010480, symSize: 0x30 }
  - { offsetInCU: 0x2CE7F, offset: 0x2CE7F, size: 0x8, addend: 0x0, symName: __ZNKSt3__116reverse_iteratorIPNS_7__stateIcEEE4baseB7v160006Ev, symObjAddr: 0xDE30, symBinAddr: 0x1000104B0, symSize: 0x20 }
  - { offsetInCU: 0x2CEA5, offset: 0x2CEA5, size: 0x8, addend: 0x0, symName: __ZNKSt3__16vectorINS_7__stateIcEENS_9allocatorIS2_EEE14__annotate_newB7v160006Em, symObjAddr: 0xDE90, symBinAddr: 0x100010510, symSize: 0xA0 }
  - { offsetInCU: 0x2CEDA, offset: 0x2CEDA, size: 0x8, addend: 0x0, symName: __ZNKSt3__16vectorINS_7__stateIcEENS_9allocatorIS2_EEE31__annotate_contiguous_containerB7v160006EPKvS7_S7_S7_, symObjAddr: 0xDF40, symBinAddr: 0x1000105C0, symSize: 0x20 }
  - { offsetInCU: 0x2CF2C, offset: 0x2CF2C, size: 0x8, addend: 0x0, symName: __ZNKSt3__16vectorINS_7__stateIcEENS_9allocatorIS2_EEE4dataB7v160006Ev, symObjAddr: 0xDF60, symBinAddr: 0x1000105E0, symSize: 0x20 }
  - { offsetInCU: 0x2CF52, offset: 0x2CF52, size: 0x8, addend: 0x0, symName: __ZNSt3__129_AllocatorDestroyRangeReverseINS_9allocatorINS_7__stateIcEEEENS_16reverse_iteratorIPS3_EEEC1B7v160006ERS4_RS7_SA_, symObjAddr: 0xDFE0, symBinAddr: 0x100010660, symSize: 0x40 }
  - { offsetInCU: 0x2CFA9, offset: 0x2CFA9, size: 0x8, addend: 0x0, symName: __ZNKSt3__116reverse_iteratorIPNS_7__stateIcEEEdeB7v160006Ev, symObjAddr: 0xE080, symBinAddr: 0x100010700, symSize: 0x30 }
  - { offsetInCU: 0x2CFDD, offset: 0x2CFDD, size: 0x8, addend: 0x0, symName: __ZNSt3__116reverse_iteratorIPNS_7__stateIcEEEppB7v160006Ev, symObjAddr: 0xE0B0, symBinAddr: 0x100010730, symSize: 0x20 }
  - { offsetInCU: 0x2D003, offset: 0x2D003, size: 0x8, addend: 0x0, symName: __ZNSt3__128__exception_guard_exceptionsINS_29_AllocatorDestroyRangeReverseINS_9allocatorINS_7__stateIcEEEENS_16reverse_iteratorIPS4_EEEEE10__completeB7v160006Ev, symObjAddr: 0xE0D0, symBinAddr: 0x100010750, symSize: 0x20 }
  - { offsetInCU: 0x2D029, offset: 0x2D029, size: 0x8, addend: 0x0, symName: __ZNSt3__128__exception_guard_exceptionsINS_29_AllocatorDestroyRangeReverseINS_9allocatorINS_7__stateIcEEEENS_16reverse_iteratorIPS4_EEEEED1B7v160006Ev, symObjAddr: 0xE0F0, symBinAddr: 0x100010770, symSize: 0x20 }
  - { offsetInCU: 0x2D053, offset: 0x2D053, size: 0x8, addend: 0x0, symName: __ZNSt3__128__exception_guard_exceptionsINS_29_AllocatorDestroyRangeReverseINS_9allocatorINS_7__stateIcEEEENS_16reverse_iteratorIPS4_EEEEEC1B7v160006ES9_, symObjAddr: 0xE110, symBinAddr: 0x100010790, symSize: 0x40 }
  - { offsetInCU: 0x2D08B, offset: 0x2D08B, size: 0x8, addend: 0x0, symName: __ZNSt3__128__exception_guard_exceptionsINS_29_AllocatorDestroyRangeReverseINS_9allocatorINS_7__stateIcEEEENS_16reverse_iteratorIPS4_EEEEEC2B7v160006ES9_, symObjAddr: 0xE150, symBinAddr: 0x1000107D0, symSize: 0x30 }
  - { offsetInCU: 0x2D0C3, offset: 0x2D0C3, size: 0x8, addend: 0x0, symName: __ZNSt3__129_AllocatorDestroyRangeReverseINS_9allocatorINS_7__stateIcEEEENS_16reverse_iteratorIPS3_EEEC2B7v160006ERS4_RS7_SA_, symObjAddr: 0xE180, symBinAddr: 0x100010800, symSize: 0x40 }
  - { offsetInCU: 0x2D11F, offset: 0x2D11F, size: 0x8, addend: 0x0, symName: __ZNSt3__119__to_address_helperINS_16reverse_iteratorIPNS_7__stateIcEEEEvE6__callB7v160006ERKS5_, symObjAddr: 0xE1C0, symBinAddr: 0x100010840, symSize: 0x40 }
  - { offsetInCU: 0x2D142, offset: 0x2D142, size: 0x8, addend: 0x0, symName: __ZNKSt3__116reverse_iteratorIPNS_7__stateIcEEEptB7v160006Ev, symObjAddr: 0xE200, symBinAddr: 0x100010880, symSize: 0x30 }
  - { offsetInCU: 0x2D168, offset: 0x2D168, size: 0x8, addend: 0x0, symName: __ZNSt3__128__exception_guard_exceptionsINS_29_AllocatorDestroyRangeReverseINS_9allocatorINS_7__stateIcEEEENS_16reverse_iteratorIPS4_EEEEED2B7v160006Ev, symObjAddr: 0xE2F0, symBinAddr: 0x100010970, symSize: 0x40 }
  - { offsetInCU: 0x2D192, offset: 0x2D192, size: 0x8, addend: 0x0, symName: __ZNKSt3__129_AllocatorDestroyRangeReverseINS_9allocatorINS_7__stateIcEEEENS_16reverse_iteratorIPS3_EEEclB7v160006Ev, symObjAddr: 0xE330, symBinAddr: 0x1000109B0, symSize: 0xF0 }
  - { offsetInCU: 0x2D1B9, offset: 0x2D1B9, size: 0x8, addend: 0x0, symName: __ZNSt3__116reverse_iteratorINS0_IPNS_7__stateIcEEEEEC1B7v160006ES4_, symObjAddr: 0xE490, symBinAddr: 0x100010B10, symSize: 0x30 }
  - { offsetInCU: 0x2D1F1, offset: 0x2D1F1, size: 0x8, addend: 0x0, symName: __ZNSt3__116allocator_traitsINS_9allocatorINS_7__stateIcEEEEE7destroyB7v160006IS3_vvEEvRS4_PT_, symObjAddr: 0xE510, symBinAddr: 0x100010B90, symSize: 0x20 }
  - { offsetInCU: 0x2D22B, offset: 0x2D22B, size: 0x8, addend: 0x0, symName: __ZNSt3__116reverse_iteratorINS0_IPNS_7__stateIcEEEEEppB7v160006Ev, symObjAddr: 0xE550, symBinAddr: 0x100010BD0, symSize: 0x30 }
  - { offsetInCU: 0x2D251, offset: 0x2D251, size: 0x8, addend: 0x0, symName: __ZNKSt3__116reverse_iteratorINS0_IPNS_7__stateIcEEEEE4baseB7v160006Ev, symObjAddr: 0xE580, symBinAddr: 0x100010C00, symSize: 0x20 }
  - { offsetInCU: 0x2D27C, offset: 0x2D27C, size: 0x8, addend: 0x0, symName: __ZNSt3__119__to_address_helperINS_16reverse_iteratorINS1_IPNS_7__stateIcEEEEEEvE6__callB7v160006ERKS6_, symObjAddr: 0xE5E0, symBinAddr: 0x100010C60, symSize: 0x40 }
  - { offsetInCU: 0x2D29F, offset: 0x2D29F, size: 0x8, addend: 0x0, symName: __ZNKSt3__116reverse_iteratorINS0_IPNS_7__stateIcEEEEEptB7v160006Ev, symObjAddr: 0xE620, symBinAddr: 0x100010CA0, symSize: 0x50 }
  - { offsetInCU: 0x2D2C5, offset: 0x2D2C5, size: 0x8, addend: 0x0, symName: __ZNSt3__116reverse_iteratorIPNS_7__stateIcEEEpLB7v160006El, symObjAddr: 0xE750, symBinAddr: 0x100010DD0, symSize: 0x30 }
  - { offsetInCU: 0x2D2F9, offset: 0x2D2F9, size: 0x8, addend: 0x0, symName: __ZNSt3__116reverse_iteratorIPNS_7__stateIcEEEmmB7v160006Ev, symObjAddr: 0xE780, symBinAddr: 0x100010E00, symSize: 0x20 }
  - { offsetInCU: 0x2D31F, offset: 0x2D31F, size: 0x8, addend: 0x0, symName: __ZNSt3__116reverse_iteratorINS0_IPNS_7__stateIcEEEEEC2B7v160006ES4_, symObjAddr: 0xE7A0, symBinAddr: 0x100010E20, symSize: 0x40 }
  - { offsetInCU: 0x2D357, offset: 0x2D357, size: 0x8, addend: 0x0, symName: __ZNSt3__116reverse_iteratorIPNS_7__stateIcEEEC2B7v160006ES3_, symObjAddr: 0xE7E0, symBinAddr: 0x100010E60, symSize: 0x30 }
  - { offsetInCU: 0x2D38F, offset: 0x2D38F, size: 0x8, addend: 0x0, symName: __ZNSt3__114__split_bufferINS_7__stateIcEERNS_9allocatorIS2_EEED2Ev, symObjAddr: 0xE810, symBinAddr: 0x100010E90, symSize: 0x70 }
  - { offsetInCU: 0x2D3BB, offset: 0x2D3BB, size: 0x8, addend: 0x0, symName: __ZNSt3__114__split_bufferINS_7__stateIcEERNS_9allocatorIS2_EEE5clearB7v160006Ev, symObjAddr: 0xE880, symBinAddr: 0x100010F00, symSize: 0x20 }
  - { offsetInCU: 0x2D3E1, offset: 0x2D3E1, size: 0x8, addend: 0x0, symName: __ZNSt3__116allocator_traitsINS_9allocatorINS_7__stateIcEEEEE10deallocateB7v160006ERS4_PS3_m, symObjAddr: 0xE8A0, symBinAddr: 0x100010F20, symSize: 0x30 }
  - { offsetInCU: 0x2D423, offset: 0x2D423, size: 0x8, addend: 0x0, symName: __ZNKSt3__114__split_bufferINS_7__stateIcEERNS_9allocatorIS2_EEE8capacityB7v160006Ev, symObjAddr: 0xE8D0, symBinAddr: 0x100010F50, symSize: 0x40 }
  - { offsetInCU: 0x2D449, offset: 0x2D449, size: 0x8, addend: 0x0, symName: __ZNSt3__114__split_bufferINS_7__stateIcEERNS_9allocatorIS2_EEE17__destruct_at_endB7v160006EPS2_, symObjAddr: 0xE910, symBinAddr: 0x100010F90, symSize: 0x30 }
  - { offsetInCU: 0x2D47D, offset: 0x2D47D, size: 0x8, addend: 0x0, symName: __ZNSt3__114__split_bufferINS_7__stateIcEERNS_9allocatorIS2_EEE17__destruct_at_endB7v160006EPS2_NS_17integral_constantIbLb0EEE, symObjAddr: 0xE940, symBinAddr: 0x100010FC0, symSize: 0x80 }
  - { offsetInCU: 0x2D4BD, offset: 0x2D4BD, size: 0x8, addend: 0x0, symName: __ZNSt3__19allocatorINS_7__stateIcEEE10deallocateB7v160006EPS2_m, symObjAddr: 0xE9C0, symBinAddr: 0x100011040, symSize: 0x50 }
  - { offsetInCU: 0x2D4FF, offset: 0x2D4FF, size: 0x8, addend: 0x0, symName: __ZNKSt3__114__split_bufferINS_7__stateIcEERNS_9allocatorIS2_EEE9__end_capB7v160006Ev, symObjAddr: 0xEA10, symBinAddr: 0x100011090, symSize: 0x20 }
  - { offsetInCU: 0x2D525, offset: 0x2D525, size: 0x8, addend: 0x0, symName: __ZNKSt3__117__compressed_pairIPNS_7__stateIcEERNS_9allocatorIS2_EEE5firstB7v160006Ev, symObjAddr: 0xEA30, symBinAddr: 0x1000110B0, symSize: 0x20 }
  - { offsetInCU: 0x2D54B, offset: 0x2D54B, size: 0x8, addend: 0x0, symName: __ZNSt3__17__stateIcEC2B7v160006Ev, symObjAddr: 0xEA50, symBinAddr: 0x1000110D0, symSize: 0x70 }
  - { offsetInCU: 0x2D575, offset: 0x2D575, size: 0x8, addend: 0x0, symName: __ZNSt3__16vectorINS_9sub_matchIPKcEENS_9allocatorIS4_EEEC1B7v160006Ev, symObjAddr: 0xEAC0, symBinAddr: 0x100011140, symSize: 0x20 }
  - { offsetInCU: 0x2D59F, offset: 0x2D59F, size: 0x8, addend: 0x0, symName: __ZNSt3__16vectorINS_4pairImPKcEENS_9allocatorIS4_EEEC1B7v160006Ev, symObjAddr: 0xEAE0, symBinAddr: 0x100011160, symSize: 0x20 }
  - { offsetInCU: 0x2D5C9, offset: 0x2D5C9, size: 0x8, addend: 0x0, symName: __ZNSt3__16vectorINS_9sub_matchIPKcEENS_9allocatorIS4_EEEC2B7v160006Ev, symObjAddr: 0xEB00, symBinAddr: 0x100011180, symSize: 0x60 }
  - { offsetInCU: 0x2D5F3, offset: 0x2D5F3, size: 0x8, addend: 0x0, symName: __ZNSt3__117__compressed_pairIPNS_9sub_matchIPKcEENS_9allocatorIS4_EEEC1B7v160006IDnNS_18__default_init_tagEEEOT_OT0_, symObjAddr: 0xEB60, symBinAddr: 0x1000111E0, symSize: 0x30 }
  - { offsetInCU: 0x2D64B, offset: 0x2D64B, size: 0x8, addend: 0x0, symName: __ZNSt3__117__compressed_pairIPNS_9sub_matchIPKcEENS_9allocatorIS4_EEEC2B7v160006IDnNS_18__default_init_tagEEEOT_OT0_, symObjAddr: 0xEB90, symBinAddr: 0x100011210, symSize: 0x40 }
  - { offsetInCU: 0x2D6A3, offset: 0x2D6A3, size: 0x8, addend: 0x0, symName: __ZNSt3__122__compressed_pair_elemINS_9allocatorINS_9sub_matchIPKcEEEELi1ELb1EEC2B7v160006ENS_18__default_init_tagE, symObjAddr: 0xEBD0, symBinAddr: 0x100011250, symSize: 0x20 }
  - { offsetInCU: 0x2D6D7, offset: 0x2D6D7, size: 0x8, addend: 0x0, symName: __ZNSt3__16vectorINS_4pairImPKcEENS_9allocatorIS4_EEEC2B7v160006Ev, symObjAddr: 0xEBF0, symBinAddr: 0x100011270, symSize: 0x60 }
  - { offsetInCU: 0x2D701, offset: 0x2D701, size: 0x8, addend: 0x0, symName: __ZNSt3__117__compressed_pairIPNS_4pairImPKcEENS_9allocatorIS4_EEEC1B7v160006IDnNS_18__default_init_tagEEEOT_OT0_, symObjAddr: 0xEC50, symBinAddr: 0x1000112D0, symSize: 0x30 }
  - { offsetInCU: 0x2D759, offset: 0x2D759, size: 0x8, addend: 0x0, symName: __ZNSt3__117__compressed_pairIPNS_4pairImPKcEENS_9allocatorIS4_EEEC2B7v160006IDnNS_18__default_init_tagEEEOT_OT0_, symObjAddr: 0xEC80, symBinAddr: 0x100011300, symSize: 0x40 }
  - { offsetInCU: 0x2D7B1, offset: 0x2D7B1, size: 0x8, addend: 0x0, symName: __ZNSt3__122__compressed_pair_elemINS_9allocatorINS_4pairImPKcEEEELi1ELb1EEC2B7v160006ENS_18__default_init_tagE, symObjAddr: 0xECC0, symBinAddr: 0x100011340, symSize: 0x20 }
  - { offsetInCU: 0x2D7E5, offset: 0x2D7E5, size: 0x8, addend: 0x0, symName: __ZNSt3__19allocatorINS_4pairImPKcEEEC2B7v160006Ev, symObjAddr: 0xECE0, symBinAddr: 0x100011360, symSize: 0x20 }
  - { offsetInCU: 0x2D80F, offset: 0x2D80F, size: 0x8, addend: 0x0, symName: __ZNSt3__116__non_trivial_ifILb1ENS_9allocatorINS_4pairImPKcEEEEEC2B7v160006Ev, symObjAddr: 0xED00, symBinAddr: 0x100011380, symSize: 0x10 }
  - { offsetInCU: 0x2D839, offset: 0x2D839, size: 0x8, addend: 0x0, symName: __ZNSt3__17__stateIcED2Ev, symObjAddr: 0xED10, symBinAddr: 0x100011390, symSize: 0x30 }
  - { offsetInCU: 0x2D866, offset: 0x2D866, size: 0x8, addend: 0x0, symName: __ZNSt3__16vectorINS_4pairImPKcEENS_9allocatorIS4_EEED1B7v160006Ev, symObjAddr: 0xED40, symBinAddr: 0x1000113C0, symSize: 0x20 }
  - { offsetInCU: 0x2D890, offset: 0x2D890, size: 0x8, addend: 0x0, symName: __ZNSt3__16vectorINS_4pairImPKcEENS_9allocatorIS4_EEED2B7v160006Ev, symObjAddr: 0xED60, symBinAddr: 0x1000113E0, symSize: 0x40 }
  - { offsetInCU: 0x2D8BA, offset: 0x2D8BA, size: 0x8, addend: 0x0, symName: __ZNSt3__16vectorINS_4pairImPKcEENS_9allocatorIS4_EEE16__destroy_vectorC1ERS7_, symObjAddr: 0xEDA0, symBinAddr: 0x100011420, symSize: 0x30 }
  - { offsetInCU: 0x2D8F3, offset: 0x2D8F3, size: 0x8, addend: 0x0, symName: __ZNSt3__16vectorINS_4pairImPKcEENS_9allocatorIS4_EEE16__destroy_vectorclB7v160006Ev, symObjAddr: 0xEDD0, symBinAddr: 0x100011450, symSize: 0x90 }
  - { offsetInCU: 0x2D919, offset: 0x2D919, size: 0x8, addend: 0x0, symName: __ZNSt3__16vectorINS_4pairImPKcEENS_9allocatorIS4_EEE16__destroy_vectorC2ERS7_, symObjAddr: 0xEE60, symBinAddr: 0x1000114E0, symSize: 0x20 }
  - { offsetInCU: 0x2D952, offset: 0x2D952, size: 0x8, addend: 0x0, symName: __ZNKSt3__16vectorINS_4pairImPKcEENS_9allocatorIS4_EEE17__annotate_deleteB7v160006Ev, symObjAddr: 0xEE80, symBinAddr: 0x100011500, symSize: 0xB0 }
  - { offsetInCU: 0x2D978, offset: 0x2D978, size: 0x8, addend: 0x0, symName: __ZNSt3__16vectorINS_4pairImPKcEENS_9allocatorIS4_EEE7__clearB7v160006Ev, symObjAddr: 0xEF40, symBinAddr: 0x1000115C0, symSize: 0x20 }
  - { offsetInCU: 0x2D99E, offset: 0x2D99E, size: 0x8, addend: 0x0, symName: __ZNSt3__116allocator_traitsINS_9allocatorINS_4pairImPKcEEEEE10deallocateB7v160006ERS6_PS5_m, symObjAddr: 0xEF60, symBinAddr: 0x1000115E0, symSize: 0x30 }
  - { offsetInCU: 0x2D9E0, offset: 0x2D9E0, size: 0x8, addend: 0x0, symName: __ZNKSt3__16vectorINS_4pairImPKcEENS_9allocatorIS4_EEE8capacityB7v160006Ev, symObjAddr: 0xEF90, symBinAddr: 0x100011610, symSize: 0x30 }
  - { offsetInCU: 0x2DA06, offset: 0x2DA06, size: 0x8, addend: 0x0, symName: __ZNKSt3__16vectorINS_4pairImPKcEENS_9allocatorIS4_EEE31__annotate_contiguous_containerB7v160006EPKvS9_S9_S9_, symObjAddr: 0xEFC0, symBinAddr: 0x100011640, symSize: 0x20 }
  - { offsetInCU: 0x2DA58, offset: 0x2DA58, size: 0x8, addend: 0x0, symName: __ZNKSt3__16vectorINS_4pairImPKcEENS_9allocatorIS4_EEE4dataB7v160006Ev, symObjAddr: 0xEFE0, symBinAddr: 0x100011660, symSize: 0x20 }
  - { offsetInCU: 0x2DA7E, offset: 0x2DA7E, size: 0x8, addend: 0x0, symName: __ZNKSt3__16vectorINS_4pairImPKcEENS_9allocatorIS4_EEE4sizeB7v160006Ev, symObjAddr: 0xF000, symBinAddr: 0x100011680, symSize: 0x20 }
  - { offsetInCU: 0x2DAA4, offset: 0x2DAA4, size: 0x8, addend: 0x0, symName: __ZNSt3__16vectorINS_4pairImPKcEENS_9allocatorIS4_EEE22__base_destruct_at_endB7v160006EPS4_, symObjAddr: 0xF030, symBinAddr: 0x1000116B0, symSize: 0x80 }
  - { offsetInCU: 0x2DAE8, offset: 0x2DAE8, size: 0x8, addend: 0x0, symName: __ZNSt3__116allocator_traitsINS_9allocatorINS_4pairImPKcEEEEE7destroyB7v160006IS5_vvEEvRS6_PT_, symObjAddr: 0xF0B0, symBinAddr: 0x100011730, symSize: 0x20 }
  - { offsetInCU: 0x2DB22, offset: 0x2DB22, size: 0x8, addend: 0x0, symName: __ZNSt3__19allocatorINS_4pairImPKcEEE10deallocateB7v160006EPS4_m, symObjAddr: 0xF100, symBinAddr: 0x100011780, symSize: 0x40 }
  - { offsetInCU: 0x2DB64, offset: 0x2DB64, size: 0x8, addend: 0x0, symName: __ZNKSt3__16vectorINS_4pairImPKcEENS_9allocatorIS4_EEE9__end_capB7v160006Ev, symObjAddr: 0xF140, symBinAddr: 0x1000117C0, symSize: 0x20 }
  - { offsetInCU: 0x2DB8A, offset: 0x2DB8A, size: 0x8, addend: 0x0, symName: __ZNKSt3__117__compressed_pairIPNS_4pairImPKcEENS_9allocatorIS4_EEE5firstB7v160006Ev, symObjAddr: 0xF160, symBinAddr: 0x1000117E0, symSize: 0x20 }
  - { offsetInCU: 0x2DBB0, offset: 0x2DBB0, size: 0x8, addend: 0x0, symName: __ZNKSt3__122__compressed_pair_elemIPNS_4pairImPKcEELi0ELb0EE5__getB7v160006Ev, symObjAddr: 0xF180, symBinAddr: 0x100011800, symSize: 0x10 }
  - { offsetInCU: 0x2DBD6, offset: 0x2DBD6, size: 0x8, addend: 0x0, symName: __ZNSt3__16vectorINS_9sub_matchIPKcEENS_9allocatorIS4_EEE8__appendEmRKS4_, symObjAddr: 0xF190, symBinAddr: 0x100011810, symSize: 0x110 }
  - { offsetInCU: 0x2DC42, offset: 0x2DC42, size: 0x8, addend: 0x0, symName: __ZNSt3__114__split_bufferINS_9sub_matchIPKcEERNS_9allocatorIS4_EEEC1EmmS7_, symObjAddr: 0xF2A0, symBinAddr: 0x100011920, symSize: 0x40 }
  - { offsetInCU: 0x2DC98, offset: 0x2DC98, size: 0x8, addend: 0x0, symName: __ZNSt3__114__split_bufferINS_9sub_matchIPKcEERNS_9allocatorIS4_EEE18__construct_at_endEmRKS4_, symObjAddr: 0xF2E0, symBinAddr: 0x100011960, symSize: 0xB0 }
  - { offsetInCU: 0x2DCE9, offset: 0x2DCE9, size: 0x8, addend: 0x0, symName: __ZNSt3__114__split_bufferINS_9sub_matchIPKcEERNS_9allocatorIS4_EEED1Ev, symObjAddr: 0xF4C0, symBinAddr: 0x100011B40, symSize: 0x20 }
  - { offsetInCU: 0x2DD15, offset: 0x2DD15, size: 0x8, addend: 0x0, symName: __ZNSt3__114__split_bufferINS_9sub_matchIPKcEERNS_9allocatorIS4_EEEC2EmmS7_, symObjAddr: 0xF4E0, symBinAddr: 0x100011B60, symSize: 0xC0 }
  - { offsetInCU: 0x2DD88, offset: 0x2DD88, size: 0x8, addend: 0x0, symName: __ZNSt3__117__compressed_pairIPNS_9sub_matchIPKcEERNS_9allocatorIS4_EEEC1B7v160006IDnS8_EEOT_OT0_, symObjAddr: 0xF5A0, symBinAddr: 0x100011C20, symSize: 0x30 }
  - { offsetInCU: 0x2DDE0, offset: 0x2DDE0, size: 0x8, addend: 0x0, symName: __ZNSt3__114__split_bufferINS_9sub_matchIPKcEERNS_9allocatorIS4_EEE7__allocB7v160006Ev, symObjAddr: 0xF5D0, symBinAddr: 0x100011C50, symSize: 0x20 }
  - { offsetInCU: 0x2DE06, offset: 0x2DE06, size: 0x8, addend: 0x0, symName: __ZNSt3__114__split_bufferINS_9sub_matchIPKcEERNS_9allocatorIS4_EEE9__end_capB7v160006Ev, symObjAddr: 0xF5F0, symBinAddr: 0x100011C70, symSize: 0x20 }
  - { offsetInCU: 0x2DE2C, offset: 0x2DE2C, size: 0x8, addend: 0x0, symName: __ZNSt3__117__compressed_pairIPNS_9sub_matchIPKcEERNS_9allocatorIS4_EEEC2B7v160006IDnS8_EEOT_OT0_, symObjAddr: 0xF610, symBinAddr: 0x100011C90, symSize: 0x40 }
  - { offsetInCU: 0x2DE84, offset: 0x2DE84, size: 0x8, addend: 0x0, symName: __ZNSt3__122__compressed_pair_elemIRNS_9allocatorINS_9sub_matchIPKcEEEELi1ELb0EEC2B7v160006IS7_vEEOT_, symObjAddr: 0xF650, symBinAddr: 0x100011CD0, symSize: 0x20 }
  - { offsetInCU: 0x2DEC6, offset: 0x2DEC6, size: 0x8, addend: 0x0, symName: __ZNSt3__117__compressed_pairIPNS_9sub_matchIPKcEERNS_9allocatorIS4_EEE6secondB7v160006Ev, symObjAddr: 0xF670, symBinAddr: 0x100011CF0, symSize: 0x20 }
  - { offsetInCU: 0x2DEEC, offset: 0x2DEEC, size: 0x8, addend: 0x0, symName: __ZNSt3__122__compressed_pair_elemIRNS_9allocatorINS_9sub_matchIPKcEEEELi1ELb0EE5__getB7v160006Ev, symObjAddr: 0xF690, symBinAddr: 0x100011D10, symSize: 0x20 }
  - { offsetInCU: 0x2DF12, offset: 0x2DF12, size: 0x8, addend: 0x0, symName: __ZNSt3__117__compressed_pairIPNS_9sub_matchIPKcEERNS_9allocatorIS4_EEE5firstB7v160006Ev, symObjAddr: 0xF6B0, symBinAddr: 0x100011D30, symSize: 0x20 }
  - { offsetInCU: 0x2DF42, offset: 0x2DF42, size: 0x8, addend: 0x0, symName: __ZNSt3__114__split_bufferINS_9sub_matchIPKcEERNS_9allocatorIS4_EEE21_ConstructTransactionC1B7v160006EPPS4_m, symObjAddr: 0xF6D0, symBinAddr: 0x100011D50, symSize: 0x30 }
  - { offsetInCU: 0x2DF88, offset: 0x2DF88, size: 0x8, addend: 0x0, symName: __ZNSt3__114__split_bufferINS_9sub_matchIPKcEERNS_9allocatorIS4_EEE21_ConstructTransactionD1B7v160006Ev, symObjAddr: 0xF700, symBinAddr: 0x100011D80, symSize: 0x20 }
  - { offsetInCU: 0x2DFB2, offset: 0x2DFB2, size: 0x8, addend: 0x0, symName: __ZNSt3__114__split_bufferINS_9sub_matchIPKcEERNS_9allocatorIS4_EEE21_ConstructTransactionC2B7v160006EPPS4_m, symObjAddr: 0xF720, symBinAddr: 0x100011DA0, symSize: 0x40 }
  - { offsetInCU: 0x2DFF8, offset: 0x2DFF8, size: 0x8, addend: 0x0, symName: __ZNSt3__114__split_bufferINS_9sub_matchIPKcEERNS_9allocatorIS4_EEE21_ConstructTransactionD2B7v160006Ev, symObjAddr: 0xF760, symBinAddr: 0x100011DE0, symSize: 0x20 }
  - { offsetInCU: 0x2E022, offset: 0x2E022, size: 0x8, addend: 0x0, symName: __ZNSt3__116reverse_iteratorIPNS_9sub_matchIPKcEEEC1B7v160006ES5_, symObjAddr: 0xF900, symBinAddr: 0x100011F80, symSize: 0x30 }
  - { offsetInCU: 0x2E05A, offset: 0x2E05A, size: 0x8, addend: 0x0, symName: __ZNKSt3__116reverse_iteratorIPNS_9sub_matchIPKcEEE4baseB7v160006Ev, symObjAddr: 0xF930, symBinAddr: 0x100011FB0, symSize: 0x20 }
  - { offsetInCU: 0x2E080, offset: 0x2E080, size: 0x8, addend: 0x0, symName: __ZNSt3__129_AllocatorDestroyRangeReverseINS_9allocatorINS_9sub_matchIPKcEEEENS_16reverse_iteratorIPS5_EEEC1B7v160006ERS6_RS9_SC_, symObjAddr: 0xF9F0, symBinAddr: 0x100012070, symSize: 0x40 }
  - { offsetInCU: 0x2E0DC, offset: 0x2E0DC, size: 0x8, addend: 0x0, symName: __ZNSt3__116allocator_traitsINS_9allocatorINS_9sub_matchIPKcEEEEE9constructB7v160006IS5_JS5_EvvEEvRS6_PT_DpOT0_, symObjAddr: 0xFA70, symBinAddr: 0x1000120F0, symSize: 0x30 }
  - { offsetInCU: 0x2E130, offset: 0x2E130, size: 0x8, addend: 0x0, symName: __ZNKSt3__116reverse_iteratorIPNS_9sub_matchIPKcEEEdeB7v160006Ev, symObjAddr: 0xFAC0, symBinAddr: 0x100012140, symSize: 0x30 }
  - { offsetInCU: 0x2E164, offset: 0x2E164, size: 0x8, addend: 0x0, symName: __ZNSt3__116reverse_iteratorIPNS_9sub_matchIPKcEEEppB7v160006Ev, symObjAddr: 0xFAF0, symBinAddr: 0x100012170, symSize: 0x20 }
  - { offsetInCU: 0x2E18A, offset: 0x2E18A, size: 0x8, addend: 0x0, symName: __ZNSt3__128__exception_guard_exceptionsINS_29_AllocatorDestroyRangeReverseINS_9allocatorINS_9sub_matchIPKcEEEENS_16reverse_iteratorIPS6_EEEEE10__completeB7v160006Ev, symObjAddr: 0xFB10, symBinAddr: 0x100012190, symSize: 0x20 }
  - { offsetInCU: 0x2E1B0, offset: 0x2E1B0, size: 0x8, addend: 0x0, symName: __ZNSt3__128__exception_guard_exceptionsINS_29_AllocatorDestroyRangeReverseINS_9allocatorINS_9sub_matchIPKcEEEENS_16reverse_iteratorIPS6_EEEEED1B7v160006Ev, symObjAddr: 0xFB30, symBinAddr: 0x1000121B0, symSize: 0x20 }
  - { offsetInCU: 0x2E1DA, offset: 0x2E1DA, size: 0x8, addend: 0x0, symName: __ZNSt3__128__exception_guard_exceptionsINS_29_AllocatorDestroyRangeReverseINS_9allocatorINS_9sub_matchIPKcEEEENS_16reverse_iteratorIPS6_EEEEEC1B7v160006ESB_, symObjAddr: 0xFB50, symBinAddr: 0x1000121D0, symSize: 0x40 }
  - { offsetInCU: 0x2E212, offset: 0x2E212, size: 0x8, addend: 0x0, symName: __ZNSt3__128__exception_guard_exceptionsINS_29_AllocatorDestroyRangeReverseINS_9allocatorINS_9sub_matchIPKcEEEENS_16reverse_iteratorIPS6_EEEEEC2B7v160006ESB_, symObjAddr: 0xFB90, symBinAddr: 0x100012210, symSize: 0x30 }
  - { offsetInCU: 0x2E24A, offset: 0x2E24A, size: 0x8, addend: 0x0, symName: __ZNSt3__129_AllocatorDestroyRangeReverseINS_9allocatorINS_9sub_matchIPKcEEEENS_16reverse_iteratorIPS5_EEEC2B7v160006ERS6_RS9_SC_, symObjAddr: 0xFBC0, symBinAddr: 0x100012240, symSize: 0x40 }
  - { offsetInCU: 0x2E2A6, offset: 0x2E2A6, size: 0x8, addend: 0x0, symName: __ZNSt3__119__to_address_helperINS_16reverse_iteratorIPNS_9sub_matchIPKcEEEEvE6__callB7v160006ERKS7_, symObjAddr: 0xFC40, symBinAddr: 0x1000122C0, symSize: 0x40 }
  - { offsetInCU: 0x2E2C9, offset: 0x2E2C9, size: 0x8, addend: 0x0, symName: __ZNKSt3__116reverse_iteratorIPNS_9sub_matchIPKcEEEptB7v160006Ev, symObjAddr: 0xFC80, symBinAddr: 0x100012300, symSize: 0x30 }
  - { offsetInCU: 0x2E2EF, offset: 0x2E2EF, size: 0x8, addend: 0x0, symName: __ZNSt3__128__exception_guard_exceptionsINS_29_AllocatorDestroyRangeReverseINS_9allocatorINS_9sub_matchIPKcEEEENS_16reverse_iteratorIPS6_EEEEED2B7v160006Ev, symObjAddr: 0xFD70, symBinAddr: 0x1000123F0, symSize: 0x40 }
  - { offsetInCU: 0x2E319, offset: 0x2E319, size: 0x8, addend: 0x0, symName: __ZNKSt3__129_AllocatorDestroyRangeReverseINS_9allocatorINS_9sub_matchIPKcEEEENS_16reverse_iteratorIPS5_EEEclB7v160006Ev, symObjAddr: 0xFDB0, symBinAddr: 0x100012430, symSize: 0xF0 }
  - { offsetInCU: 0x2E340, offset: 0x2E340, size: 0x8, addend: 0x0, symName: __ZNSt3__116reverse_iteratorINS0_IPNS_9sub_matchIPKcEEEEEC1B7v160006ES6_, symObjAddr: 0xFF10, symBinAddr: 0x100012590, symSize: 0x30 }
  - { offsetInCU: 0x2E378, offset: 0x2E378, size: 0x8, addend: 0x0, symName: __ZNSt3__116reverse_iteratorINS0_IPNS_9sub_matchIPKcEEEEEppB7v160006Ev, symObjAddr: 0xFFB0, symBinAddr: 0x100012630, symSize: 0x30 }
  - { offsetInCU: 0x2E39E, offset: 0x2E39E, size: 0x8, addend: 0x0, symName: __ZNKSt3__116reverse_iteratorINS0_IPNS_9sub_matchIPKcEEEEE4baseB7v160006Ev, symObjAddr: 0xFFE0, symBinAddr: 0x100012660, symSize: 0x20 }
  - { offsetInCU: 0x2E3C9, offset: 0x2E3C9, size: 0x8, addend: 0x0, symName: __ZNSt3__119__to_address_helperINS_16reverse_iteratorINS1_IPNS_9sub_matchIPKcEEEEEEvE6__callB7v160006ERKS8_, symObjAddr: 0x10000, symBinAddr: 0x100012680, symSize: 0x40 }
  - { offsetInCU: 0x2E3EC, offset: 0x2E3EC, size: 0x8, addend: 0x0, symName: __ZNKSt3__116reverse_iteratorINS0_IPNS_9sub_matchIPKcEEEEEptB7v160006Ev, symObjAddr: 0x10040, symBinAddr: 0x1000126C0, symSize: 0x50 }
  - { offsetInCU: 0x2E412, offset: 0x2E412, size: 0x8, addend: 0x0, symName: __ZNSt3__116reverse_iteratorIPNS_9sub_matchIPKcEEEpLB7v160006El, symObjAddr: 0x10170, symBinAddr: 0x1000127F0, symSize: 0x30 }
  - { offsetInCU: 0x2E446, offset: 0x2E446, size: 0x8, addend: 0x0, symName: __ZNSt3__116reverse_iteratorIPNS_9sub_matchIPKcEEEmmB7v160006Ev, symObjAddr: 0x101A0, symBinAddr: 0x100012820, symSize: 0x20 }
  - { offsetInCU: 0x2E46C, offset: 0x2E46C, size: 0x8, addend: 0x0, symName: __ZNSt3__116reverse_iteratorINS0_IPNS_9sub_matchIPKcEEEEEC2B7v160006ES6_, symObjAddr: 0x101C0, symBinAddr: 0x100012840, symSize: 0x40 }
  - { offsetInCU: 0x2E4A4, offset: 0x2E4A4, size: 0x8, addend: 0x0, symName: __ZNSt3__116reverse_iteratorIPNS_9sub_matchIPKcEEEC2B7v160006ES5_, symObjAddr: 0x10200, symBinAddr: 0x100012880, symSize: 0x30 }
  - { offsetInCU: 0x2E4DC, offset: 0x2E4DC, size: 0x8, addend: 0x0, symName: __ZNSt3__114__split_bufferINS_9sub_matchIPKcEERNS_9allocatorIS4_EEED2Ev, symObjAddr: 0x10230, symBinAddr: 0x1000128B0, symSize: 0x70 }
  - { offsetInCU: 0x2E508, offset: 0x2E508, size: 0x8, addend: 0x0, symName: __ZNSt3__114__split_bufferINS_9sub_matchIPKcEERNS_9allocatorIS4_EEE5clearB7v160006Ev, symObjAddr: 0x102A0, symBinAddr: 0x100012920, symSize: 0x20 }
  - { offsetInCU: 0x2E52E, offset: 0x2E52E, size: 0x8, addend: 0x0, symName: __ZNKSt3__114__split_bufferINS_9sub_matchIPKcEERNS_9allocatorIS4_EEE8capacityB7v160006Ev, symObjAddr: 0x102C0, symBinAddr: 0x100012940, symSize: 0x40 }
  - { offsetInCU: 0x2E554, offset: 0x2E554, size: 0x8, addend: 0x0, symName: __ZNSt3__114__split_bufferINS_9sub_matchIPKcEERNS_9allocatorIS4_EEE17__destruct_at_endB7v160006EPS4_, symObjAddr: 0x10300, symBinAddr: 0x100012980, symSize: 0x30 }
  - { offsetInCU: 0x2E588, offset: 0x2E588, size: 0x8, addend: 0x0, symName: __ZNSt3__114__split_bufferINS_9sub_matchIPKcEERNS_9allocatorIS4_EEE17__destruct_at_endB7v160006EPS4_NS_17integral_constantIbLb0EEE, symObjAddr: 0x10330, symBinAddr: 0x1000129B0, symSize: 0x80 }
  - { offsetInCU: 0x2E5C8, offset: 0x2E5C8, size: 0x8, addend: 0x0, symName: __ZNKSt3__114__split_bufferINS_9sub_matchIPKcEERNS_9allocatorIS4_EEE9__end_capB7v160006Ev, symObjAddr: 0x103B0, symBinAddr: 0x100012A30, symSize: 0x20 }
  - { offsetInCU: 0x2E5EE, offset: 0x2E5EE, size: 0x8, addend: 0x0, symName: __ZNKSt3__117__compressed_pairIPNS_9sub_matchIPKcEERNS_9allocatorIS4_EEE5firstB7v160006Ev, symObjAddr: 0x103D0, symBinAddr: 0x100012A50, symSize: 0x20 }
  - { offsetInCU: 0x2E614, offset: 0x2E614, size: 0x8, addend: 0x0, symName: __ZNSt3__16vectorINS_4pairImPKcEENS_9allocatorIS4_EEE8__appendEm, symObjAddr: 0x103F0, symBinAddr: 0x100012A70, symSize: 0x100 }
  - { offsetInCU: 0x2E670, offset: 0x2E670, size: 0x8, addend: 0x0, symName: __ZNSt3__16vectorINS_4pairImPKcEENS_9allocatorIS4_EEE17__destruct_at_endB7v160006EPS4_, symObjAddr: 0x104F0, symBinAddr: 0x100012B70, symSize: 0x60 }
  - { offsetInCU: 0x2E6B4, offset: 0x2E6B4, size: 0x8, addend: 0x0, symName: __ZNSt3__16vectorINS_4pairImPKcEENS_9allocatorIS4_EEE18__construct_at_endEm, symObjAddr: 0x10550, symBinAddr: 0x100012BD0, symSize: 0xC0 }
  - { offsetInCU: 0x2E726, offset: 0x2E726, size: 0x8, addend: 0x0, symName: __ZNKSt3__16vectorINS_4pairImPKcEENS_9allocatorIS4_EEE11__recommendB7v160006Em, symObjAddr: 0x10610, symBinAddr: 0x100012C90, symSize: 0xA0 }
  - { offsetInCU: 0x2E77B, offset: 0x2E77B, size: 0x8, addend: 0x0, symName: __ZNSt3__114__split_bufferINS_4pairImPKcEERNS_9allocatorIS4_EEEC1EmmS7_, symObjAddr: 0x106B0, symBinAddr: 0x100012D30, symSize: 0x40 }
  - { offsetInCU: 0x2E7D1, offset: 0x2E7D1, size: 0x8, addend: 0x0, symName: __ZNSt3__114__split_bufferINS_4pairImPKcEERNS_9allocatorIS4_EEE18__construct_at_endEm, symObjAddr: 0x106F0, symBinAddr: 0x100012D70, symSize: 0xB0 }
  - { offsetInCU: 0x2E814, offset: 0x2E814, size: 0x8, addend: 0x0, symName: __ZNSt3__114__split_bufferINS_4pairImPKcEERNS_9allocatorIS4_EEED1Ev, symObjAddr: 0x108D0, symBinAddr: 0x100012F50, symSize: 0x20 }
  - { offsetInCU: 0x2E859, offset: 0x2E859, size: 0x8, addend: 0x0, symName: __ZNSt3__16vectorINS_4pairImPKcEENS_9allocatorIS4_EEE21_ConstructTransactionC1B7v160006ERS7_m, symObjAddr: 0x108F0, symBinAddr: 0x100012F70, symSize: 0x30 }
  - { offsetInCU: 0x2E8A1, offset: 0x2E8A1, size: 0x8, addend: 0x0, symName: __ZNSt3__116allocator_traitsINS_9allocatorINS_4pairImPKcEEEEE9constructB7v160006IS5_JEvvEEvRS6_PT_DpOT0_, symObjAddr: 0x10920, symBinAddr: 0x100012FA0, symSize: 0x20 }
  - { offsetInCU: 0x2E8E0, offset: 0x2E8E0, size: 0x8, addend: 0x0, symName: __ZNSt3__16vectorINS_4pairImPKcEENS_9allocatorIS4_EEE21_ConstructTransactionD1B7v160006Ev, symObjAddr: 0x10940, symBinAddr: 0x100012FC0, symSize: 0x20 }
  - { offsetInCU: 0x2E90A, offset: 0x2E90A, size: 0x8, addend: 0x0, symName: __ZNSt3__16vectorINS_4pairImPKcEENS_9allocatorIS4_EEE21_ConstructTransactionC2B7v160006ERS7_m, symObjAddr: 0x10960, symBinAddr: 0x100012FE0, symSize: 0x40 }
  - { offsetInCU: 0x2E952, offset: 0x2E952, size: 0x8, addend: 0x0, symName: __ZNSt3__14pairImPKcEC1B7v160006ILb1ELPv0EEEv, symObjAddr: 0x109D0, symBinAddr: 0x100013050, symSize: 0x20 }
  - { offsetInCU: 0x2E98C, offset: 0x2E98C, size: 0x8, addend: 0x0, symName: __ZNSt3__14pairImPKcEC2B7v160006ILb1ELPv0EEEv, symObjAddr: 0x109F0, symBinAddr: 0x100013070, symSize: 0x20 }
  - { offsetInCU: 0x2E9C6, offset: 0x2E9C6, size: 0x8, addend: 0x0, symName: __ZNSt3__16vectorINS_4pairImPKcEENS_9allocatorIS4_EEE21_ConstructTransactionD2B7v160006Ev, symObjAddr: 0x10A10, symBinAddr: 0x100013090, symSize: 0x20 }
  - { offsetInCU: 0x2E9F0, offset: 0x2E9F0, size: 0x8, addend: 0x0, symName: __ZNKSt3__16vectorINS_4pairImPKcEENS_9allocatorIS4_EEE8max_sizeEv, symObjAddr: 0x10A30, symBinAddr: 0x1000130B0, symSize: 0x60 }
  - { offsetInCU: 0x2EA18, offset: 0x2EA18, size: 0x8, addend: 0x0, symName: __ZNKSt3__16vectorINS_4pairImPKcEENS_9allocatorIS4_EEE20__throw_length_errorB7v160006Ev, symObjAddr: 0x10A90, symBinAddr: 0x100013110, symSize: 0x20 }
  - { offsetInCU: 0x2EA48, offset: 0x2EA48, size: 0x8, addend: 0x0, symName: __ZNSt3__116allocator_traitsINS_9allocatorINS_4pairImPKcEEEEE8max_sizeB7v160006IS6_vvEEmRKS6_, symObjAddr: 0x10AB0, symBinAddr: 0x100013130, symSize: 0x20 }
  - { offsetInCU: 0x2EA73, offset: 0x2EA73, size: 0x8, addend: 0x0, symName: __ZNKSt3__16vectorINS_4pairImPKcEENS_9allocatorIS4_EEE7__allocB7v160006Ev, symObjAddr: 0x10AD0, symBinAddr: 0x100013150, symSize: 0x20 }
  - { offsetInCU: 0x2EA99, offset: 0x2EA99, size: 0x8, addend: 0x0, symName: __ZNKSt3__117__compressed_pairIPNS_4pairImPKcEENS_9allocatorIS4_EEE6secondB7v160006Ev, symObjAddr: 0x10AF0, symBinAddr: 0x100013170, symSize: 0x20 }
  - { offsetInCU: 0x2EABF, offset: 0x2EABF, size: 0x8, addend: 0x0, symName: __ZNKSt3__122__compressed_pair_elemINS_9allocatorINS_4pairImPKcEEEELi1ELb1EE5__getB7v160006Ev, symObjAddr: 0x10B10, symBinAddr: 0x100013190, symSize: 0x10 }
  - { offsetInCU: 0x2EAE5, offset: 0x2EAE5, size: 0x8, addend: 0x0, symName: __ZNSt3__114__split_bufferINS_4pairImPKcEERNS_9allocatorIS4_EEEC2EmmS7_, symObjAddr: 0x10B20, symBinAddr: 0x1000131A0, symSize: 0xD0 }
  - { offsetInCU: 0x2EB58, offset: 0x2EB58, size: 0x8, addend: 0x0, symName: __ZNSt3__117__compressed_pairIPNS_4pairImPKcEERNS_9allocatorIS4_EEEC1B7v160006IDnS8_EEOT_OT0_, symObjAddr: 0x10BF0, symBinAddr: 0x100013270, symSize: 0x30 }
  - { offsetInCU: 0x2EBB0, offset: 0x2EBB0, size: 0x8, addend: 0x0, symName: __ZNSt3__114__split_bufferINS_4pairImPKcEERNS_9allocatorIS4_EEE7__allocB7v160006Ev, symObjAddr: 0x10C60, symBinAddr: 0x1000132E0, symSize: 0x20 }
  - { offsetInCU: 0x2EBD6, offset: 0x2EBD6, size: 0x8, addend: 0x0, symName: __ZNSt3__114__split_bufferINS_4pairImPKcEERNS_9allocatorIS4_EEE9__end_capB7v160006Ev, symObjAddr: 0x10C80, symBinAddr: 0x100013300, symSize: 0x20 }
  - { offsetInCU: 0x2EBFC, offset: 0x2EBFC, size: 0x8, addend: 0x0, symName: __ZNSt3__117__compressed_pairIPNS_4pairImPKcEERNS_9allocatorIS4_EEEC2B7v160006IDnS8_EEOT_OT0_, symObjAddr: 0x10CA0, symBinAddr: 0x100013320, symSize: 0x40 }
  - { offsetInCU: 0x2EC54, offset: 0x2EC54, size: 0x8, addend: 0x0, symName: __ZNSt3__122__compressed_pair_elemIRNS_9allocatorINS_4pairImPKcEEEELi1ELb0EEC2B7v160006IS7_vEEOT_, symObjAddr: 0x10CE0, symBinAddr: 0x100013360, symSize: 0x20 }
  - { offsetInCU: 0x2EC96, offset: 0x2EC96, size: 0x8, addend: 0x0, symName: __ZNSt3__19allocatorINS_4pairImPKcEEE8allocateB7v160006Em, symObjAddr: 0x10D00, symBinAddr: 0x100013380, symSize: 0x50 }
  - { offsetInCU: 0x2ECCA, offset: 0x2ECCA, size: 0x8, addend: 0x0, symName: __ZNSt3__117__compressed_pairIPNS_4pairImPKcEERNS_9allocatorIS4_EEE6secondB7v160006Ev, symObjAddr: 0x10D50, symBinAddr: 0x1000133D0, symSize: 0x20 }
  - { offsetInCU: 0x2ECF0, offset: 0x2ECF0, size: 0x8, addend: 0x0, symName: __ZNSt3__122__compressed_pair_elemIRNS_9allocatorINS_4pairImPKcEEEELi1ELb0EE5__getB7v160006Ev, symObjAddr: 0x10D70, symBinAddr: 0x1000133F0, symSize: 0x20 }
  - { offsetInCU: 0x2ED16, offset: 0x2ED16, size: 0x8, addend: 0x0, symName: __ZNSt3__117__compressed_pairIPNS_4pairImPKcEERNS_9allocatorIS4_EEE5firstB7v160006Ev, symObjAddr: 0x10D90, symBinAddr: 0x100013410, symSize: 0x20 }
  - { offsetInCU: 0x2ED46, offset: 0x2ED46, size: 0x8, addend: 0x0, symName: __ZNSt3__114__split_bufferINS_4pairImPKcEERNS_9allocatorIS4_EEE21_ConstructTransactionC1B7v160006EPPS4_m, symObjAddr: 0x10DB0, symBinAddr: 0x100013430, symSize: 0x30 }
  - { offsetInCU: 0x2ED8C, offset: 0x2ED8C, size: 0x8, addend: 0x0, symName: __ZNSt3__114__split_bufferINS_4pairImPKcEERNS_9allocatorIS4_EEE21_ConstructTransactionD1B7v160006Ev, symObjAddr: 0x10DE0, symBinAddr: 0x100013460, symSize: 0x20 }
  - { offsetInCU: 0x2EDB6, offset: 0x2EDB6, size: 0x8, addend: 0x0, symName: __ZNSt3__114__split_bufferINS_4pairImPKcEERNS_9allocatorIS4_EEE21_ConstructTransactionC2B7v160006EPPS4_m, symObjAddr: 0x10E00, symBinAddr: 0x100013480, symSize: 0x40 }
  - { offsetInCU: 0x2EDFC, offset: 0x2EDFC, size: 0x8, addend: 0x0, symName: __ZNSt3__114__split_bufferINS_4pairImPKcEERNS_9allocatorIS4_EEE21_ConstructTransactionD2B7v160006Ev, symObjAddr: 0x10E40, symBinAddr: 0x1000134C0, symSize: 0x20 }
  - { offsetInCU: 0x2EE26, offset: 0x2EE26, size: 0x8, addend: 0x0, symName: __ZNSt3__116reverse_iteratorIPNS_4pairImPKcEEEC1B7v160006ES5_, symObjAddr: 0x10FE0, symBinAddr: 0x100013660, symSize: 0x30 }
  - { offsetInCU: 0x2EE5E, offset: 0x2EE5E, size: 0x8, addend: 0x0, symName: __ZNKSt3__116reverse_iteratorIPNS_4pairImPKcEEE4baseB7v160006Ev, symObjAddr: 0x11010, symBinAddr: 0x100013690, symSize: 0x20 }
  - { offsetInCU: 0x2EE84, offset: 0x2EE84, size: 0x8, addend: 0x0, symName: __ZNKSt3__16vectorINS_4pairImPKcEENS_9allocatorIS4_EEE14__annotate_newB7v160006Em, symObjAddr: 0x11070, symBinAddr: 0x1000136F0, symSize: 0xB0 }
  - { offsetInCU: 0x2EEB9, offset: 0x2EEB9, size: 0x8, addend: 0x0, symName: __ZNSt3__129_AllocatorDestroyRangeReverseINS_9allocatorINS_4pairImPKcEEEENS_16reverse_iteratorIPS5_EEEC1B7v160006ERS6_RS9_SC_, symObjAddr: 0x11190, symBinAddr: 0x100013810, symSize: 0x40 }
  - { offsetInCU: 0x2EF10, offset: 0x2EF10, size: 0x8, addend: 0x0, symName: __ZNSt3__116allocator_traitsINS_9allocatorINS_4pairImPKcEEEEE9constructB7v160006IS5_JS5_EvvEEvRS6_PT_DpOT0_, symObjAddr: 0x11210, symBinAddr: 0x100013890, symSize: 0x30 }
  - { offsetInCU: 0x2EF64, offset: 0x2EF64, size: 0x8, addend: 0x0, symName: __ZNKSt3__116reverse_iteratorIPNS_4pairImPKcEEEdeB7v160006Ev, symObjAddr: 0x11260, symBinAddr: 0x1000138E0, symSize: 0x30 }
  - { offsetInCU: 0x2EF98, offset: 0x2EF98, size: 0x8, addend: 0x0, symName: __ZNSt3__116reverse_iteratorIPNS_4pairImPKcEEEppB7v160006Ev, symObjAddr: 0x11290, symBinAddr: 0x100013910, symSize: 0x20 }
  - { offsetInCU: 0x2EFBE, offset: 0x2EFBE, size: 0x8, addend: 0x0, symName: __ZNSt3__128__exception_guard_exceptionsINS_29_AllocatorDestroyRangeReverseINS_9allocatorINS_4pairImPKcEEEENS_16reverse_iteratorIPS6_EEEEE10__completeB7v160006Ev, symObjAddr: 0x112B0, symBinAddr: 0x100013930, symSize: 0x20 }
  - { offsetInCU: 0x2EFE4, offset: 0x2EFE4, size: 0x8, addend: 0x0, symName: __ZNSt3__128__exception_guard_exceptionsINS_29_AllocatorDestroyRangeReverseINS_9allocatorINS_4pairImPKcEEEENS_16reverse_iteratorIPS6_EEEEED1B7v160006Ev, symObjAddr: 0x112D0, symBinAddr: 0x100013950, symSize: 0x20 }
  - { offsetInCU: 0x2F00E, offset: 0x2F00E, size: 0x8, addend: 0x0, symName: __ZNSt3__128__exception_guard_exceptionsINS_29_AllocatorDestroyRangeReverseINS_9allocatorINS_4pairImPKcEEEENS_16reverse_iteratorIPS6_EEEEEC1B7v160006ESB_, symObjAddr: 0x112F0, symBinAddr: 0x100013970, symSize: 0x40 }
  - { offsetInCU: 0x2F046, offset: 0x2F046, size: 0x8, addend: 0x0, symName: __ZNSt3__128__exception_guard_exceptionsINS_29_AllocatorDestroyRangeReverseINS_9allocatorINS_4pairImPKcEEEENS_16reverse_iteratorIPS6_EEEEEC2B7v160006ESB_, symObjAddr: 0x11330, symBinAddr: 0x1000139B0, symSize: 0x30 }
  - { offsetInCU: 0x2F07E, offset: 0x2F07E, size: 0x8, addend: 0x0, symName: __ZNSt3__129_AllocatorDestroyRangeReverseINS_9allocatorINS_4pairImPKcEEEENS_16reverse_iteratorIPS5_EEEC2B7v160006ERS6_RS9_SC_, symObjAddr: 0x11360, symBinAddr: 0x1000139E0, symSize: 0x40 }
  - { offsetInCU: 0x2F0DA, offset: 0x2F0DA, size: 0x8, addend: 0x0, symName: __ZNSt3__119__to_address_helperINS_16reverse_iteratorIPNS_4pairImPKcEEEEvE6__callB7v160006ERKS7_, symObjAddr: 0x113D0, symBinAddr: 0x100013A50, symSize: 0x40 }
  - { offsetInCU: 0x2F0FD, offset: 0x2F0FD, size: 0x8, addend: 0x0, symName: __ZNKSt3__116reverse_iteratorIPNS_4pairImPKcEEEptB7v160006Ev, symObjAddr: 0x11410, symBinAddr: 0x100013A90, symSize: 0x30 }
  - { offsetInCU: 0x2F123, offset: 0x2F123, size: 0x8, addend: 0x0, symName: __ZNSt3__128__exception_guard_exceptionsINS_29_AllocatorDestroyRangeReverseINS_9allocatorINS_4pairImPKcEEEENS_16reverse_iteratorIPS6_EEEEED2B7v160006Ev, symObjAddr: 0x11500, symBinAddr: 0x100013B80, symSize: 0x40 }
  - { offsetInCU: 0x2F14D, offset: 0x2F14D, size: 0x8, addend: 0x0, symName: __ZNKSt3__129_AllocatorDestroyRangeReverseINS_9allocatorINS_4pairImPKcEEEENS_16reverse_iteratorIPS5_EEEclB7v160006Ev, symObjAddr: 0x11540, symBinAddr: 0x100013BC0, symSize: 0xF0 }
  - { offsetInCU: 0x2F174, offset: 0x2F174, size: 0x8, addend: 0x0, symName: __ZNSt3__116reverse_iteratorINS0_IPNS_4pairImPKcEEEEEC1B7v160006ES6_, symObjAddr: 0x116A0, symBinAddr: 0x100013D20, symSize: 0x30 }
  - { offsetInCU: 0x2F1AC, offset: 0x2F1AC, size: 0x8, addend: 0x0, symName: __ZNSt3__116reverse_iteratorINS0_IPNS_4pairImPKcEEEEEppB7v160006Ev, symObjAddr: 0x11740, symBinAddr: 0x100013DC0, symSize: 0x30 }
  - { offsetInCU: 0x2F1D2, offset: 0x2F1D2, size: 0x8, addend: 0x0, symName: __ZNKSt3__116reverse_iteratorINS0_IPNS_4pairImPKcEEEEE4baseB7v160006Ev, symObjAddr: 0x11770, symBinAddr: 0x100013DF0, symSize: 0x20 }
  - { offsetInCU: 0x2F1FD, offset: 0x2F1FD, size: 0x8, addend: 0x0, symName: __ZNSt3__119__to_address_helperINS_16reverse_iteratorINS1_IPNS_4pairImPKcEEEEEEvE6__callB7v160006ERKS8_, symObjAddr: 0x11790, symBinAddr: 0x100013E10, symSize: 0x40 }
  - { offsetInCU: 0x2F220, offset: 0x2F220, size: 0x8, addend: 0x0, symName: __ZNKSt3__116reverse_iteratorINS0_IPNS_4pairImPKcEEEEEptB7v160006Ev, symObjAddr: 0x117D0, symBinAddr: 0x100013E50, symSize: 0x50 }
  - { offsetInCU: 0x2F246, offset: 0x2F246, size: 0x8, addend: 0x0, symName: __ZNSt3__116reverse_iteratorIPNS_4pairImPKcEEEpLB7v160006El, symObjAddr: 0x11900, symBinAddr: 0x100013F80, symSize: 0x30 }
  - { offsetInCU: 0x2F27A, offset: 0x2F27A, size: 0x8, addend: 0x0, symName: __ZNSt3__116reverse_iteratorIPNS_4pairImPKcEEEmmB7v160006Ev, symObjAddr: 0x11930, symBinAddr: 0x100013FB0, symSize: 0x20 }
  - { offsetInCU: 0x2F2A0, offset: 0x2F2A0, size: 0x8, addend: 0x0, symName: __ZNSt3__116reverse_iteratorINS0_IPNS_4pairImPKcEEEEEC2B7v160006ES6_, symObjAddr: 0x11950, symBinAddr: 0x100013FD0, symSize: 0x40 }
  - { offsetInCU: 0x2F2D8, offset: 0x2F2D8, size: 0x8, addend: 0x0, symName: __ZNSt3__116reverse_iteratorIPNS_4pairImPKcEEEC2B7v160006ES5_, symObjAddr: 0x11990, symBinAddr: 0x100014010, symSize: 0x30 }
  - { offsetInCU: 0x2F310, offset: 0x2F310, size: 0x8, addend: 0x0, symName: __ZNSt3__114__split_bufferINS_4pairImPKcEERNS_9allocatorIS4_EEED2Ev, symObjAddr: 0x119C0, symBinAddr: 0x100014040, symSize: 0x70 }
  - { offsetInCU: 0x2F33C, offset: 0x2F33C, size: 0x8, addend: 0x0, symName: __ZNSt3__114__split_bufferINS_4pairImPKcEERNS_9allocatorIS4_EEE5clearB7v160006Ev, symObjAddr: 0x11A30, symBinAddr: 0x1000140B0, symSize: 0x20 }
  - { offsetInCU: 0x2F362, offset: 0x2F362, size: 0x8, addend: 0x0, symName: __ZNKSt3__114__split_bufferINS_4pairImPKcEERNS_9allocatorIS4_EEE8capacityB7v160006Ev, symObjAddr: 0x11A50, symBinAddr: 0x1000140D0, symSize: 0x30 }
  - { offsetInCU: 0x2F388, offset: 0x2F388, size: 0x8, addend: 0x0, symName: __ZNSt3__114__split_bufferINS_4pairImPKcEERNS_9allocatorIS4_EEE17__destruct_at_endB7v160006EPS4_, symObjAddr: 0x11A80, symBinAddr: 0x100014100, symSize: 0x30 }
  - { offsetInCU: 0x2F3BC, offset: 0x2F3BC, size: 0x8, addend: 0x0, symName: __ZNSt3__114__split_bufferINS_4pairImPKcEERNS_9allocatorIS4_EEE17__destruct_at_endB7v160006EPS4_NS_17integral_constantIbLb0EEE, symObjAddr: 0x11AB0, symBinAddr: 0x100014130, symSize: 0x80 }
  - { offsetInCU: 0x2F3FC, offset: 0x2F3FC, size: 0x8, addend: 0x0, symName: __ZNKSt3__114__split_bufferINS_4pairImPKcEERNS_9allocatorIS4_EEE9__end_capB7v160006Ev, symObjAddr: 0x11B30, symBinAddr: 0x1000141B0, symSize: 0x20 }
  - { offsetInCU: 0x2F422, offset: 0x2F422, size: 0x8, addend: 0x0, symName: __ZNKSt3__117__compressed_pairIPNS_4pairImPKcEERNS_9allocatorIS4_EEE5firstB7v160006Ev, symObjAddr: 0x11B50, symBinAddr: 0x1000141D0, symSize: 0x20 }
  - { offsetInCU: 0x2F448, offset: 0x2F448, size: 0x8, addend: 0x0, symName: __ZNSt3__16vectorINS_4pairImPKcEENS_9allocatorIS4_EEE27__invalidate_iterators_pastB7v160006EPS4_, symObjAddr: 0x11B70, symBinAddr: 0x1000141F0, symSize: 0x10 }
  - { offsetInCU: 0x2F47F, offset: 0x2F47F, size: 0x8, addend: 0x0, symName: __ZNKSt3__16vectorINS_4pairImPKcEENS_9allocatorIS4_EEE17__annotate_shrinkB7v160006Em, symObjAddr: 0x11B80, symBinAddr: 0x100014200, symSize: 0xA0 }
  - { offsetInCU: 0x2F4B4, offset: 0x2F4B4, size: 0x8, addend: 0x0, symName: __ZNSt3__16vectorINS_7__stateIcEENS_9allocatorIS2_EEE17__destruct_at_endB7v160006EPS2_, symObjAddr: 0x11C20, symBinAddr: 0x1000142A0, symSize: 0x60 }
  - { offsetInCU: 0x2F4F8, offset: 0x2F4F8, size: 0x8, addend: 0x0, symName: __ZNSt3__16vectorINS_7__stateIcEENS_9allocatorIS2_EEE27__invalidate_iterators_pastB7v160006EPS2_, symObjAddr: 0x11C80, symBinAddr: 0x100014300, symSize: 0x10 }
  - { offsetInCU: 0x2F52F, offset: 0x2F52F, size: 0x8, addend: 0x0, symName: __ZNSt3__16vectorINS_7__stateIcEENS_9allocatorIS2_EEE22__base_destruct_at_endB7v160006EPS2_, symObjAddr: 0x11C90, symBinAddr: 0x100014310, symSize: 0x80 }
  - { offsetInCU: 0x2F573, offset: 0x2F573, size: 0x8, addend: 0x0, symName: __ZNKSt3__16vectorINS_7__stateIcEENS_9allocatorIS2_EEE17__annotate_shrinkB7v160006Em, symObjAddr: 0x11D10, symBinAddr: 0x100014390, symSize: 0xA0 }
  - { offsetInCU: 0x2F5A8, offset: 0x2F5A8, size: 0x8, addend: 0x0, symName: __ZNSt3__17__stateIcEC2ERKS1_, symObjAddr: 0x11DB0, symBinAddr: 0x100014430, symSize: 0xA0 }
  - { offsetInCU: 0x2F5DE, offset: 0x2F5DE, size: 0x8, addend: 0x0, symName: __ZNSt3__16vectorINS_9sub_matchIPKcEENS_9allocatorIS4_EEEC1ERKS7_, symObjAddr: 0x11E50, symBinAddr: 0x1000144D0, symSize: 0x30 }
  - { offsetInCU: 0x2F619, offset: 0x2F619, size: 0x8, addend: 0x0, symName: __ZNSt3__16vectorINS_4pairImPKcEENS_9allocatorIS4_EEEC1ERKS7_, symObjAddr: 0x11E80, symBinAddr: 0x100014500, symSize: 0x30 }
  - { offsetInCU: 0x2F654, offset: 0x2F654, size: 0x8, addend: 0x0, symName: __ZNSt3__16vectorINS_9sub_matchIPKcEENS_9allocatorIS4_EEEC2ERKS7_, symObjAddr: 0x11EB0, symBinAddr: 0x100014530, symSize: 0x110 }
  - { offsetInCU: 0x2F6B5, offset: 0x2F6B5, size: 0x8, addend: 0x0, symName: __ZNSt3__116allocator_traitsINS_9allocatorINS_9sub_matchIPKcEEEEE37select_on_container_copy_constructionB7v160006IS6_vvEES6_RKS6_, symObjAddr: 0x11FC0, symBinAddr: 0x100014640, symSize: 0x10 }
  - { offsetInCU: 0x2F6E4, offset: 0x2F6E4, size: 0x8, addend: 0x0, symName: __ZNSt3__16vectorINS_9sub_matchIPKcEENS_9allocatorIS4_EEE18__construct_at_endIPS4_Li0EEEvT_SA_m, symObjAddr: 0x12010, symBinAddr: 0x100014690, symSize: 0x90 }
  - { offsetInCU: 0x2F757, offset: 0x2F757, size: 0x8, addend: 0x0, symName: __ZNSt3__128__exception_guard_exceptionsINS_6vectorINS_9sub_matchIPKcEENS_9allocatorIS5_EEE16__destroy_vectorEE10__completeB7v160006Ev, symObjAddr: 0x120A0, symBinAddr: 0x100014720, symSize: 0x20 }
  - { offsetInCU: 0x2F77D, offset: 0x2F77D, size: 0x8, addend: 0x0, symName: __ZNSt3__128__exception_guard_exceptionsINS_6vectorINS_9sub_matchIPKcEENS_9allocatorIS5_EEE16__destroy_vectorEED1B7v160006Ev, symObjAddr: 0x120C0, symBinAddr: 0x100014740, symSize: 0x20 }
  - { offsetInCU: 0x2F7A7, offset: 0x2F7A7, size: 0x8, addend: 0x0, symName: __ZNSt3__128__exception_guard_exceptionsINS_6vectorINS_9sub_matchIPKcEENS_9allocatorIS5_EEE16__destroy_vectorEEC1B7v160006ES9_, symObjAddr: 0x120E0, symBinAddr: 0x100014760, symSize: 0x30 }
  - { offsetInCU: 0x2F7DF, offset: 0x2F7DF, size: 0x8, addend: 0x0, symName: __ZNSt3__128__exception_guard_exceptionsINS_6vectorINS_9sub_matchIPKcEENS_9allocatorIS5_EEE16__destroy_vectorEEC2B7v160006ES9_, symObjAddr: 0x12110, symBinAddr: 0x100014790, symSize: 0x20 }
  - { offsetInCU: 0x2F817, offset: 0x2F817, size: 0x8, addend: 0x0, symName: __ZNSt3__129_AllocatorDestroyRangeReverseINS_9allocatorINS_9sub_matchIPKcEEEEPS5_EC1B7v160006ERS6_RS7_SA_, symObjAddr: 0x12290, symBinAddr: 0x100014910, symSize: 0x40 }
  - { offsetInCU: 0x2F86E, offset: 0x2F86E, size: 0x8, addend: 0x0, symName: __ZNSt3__116allocator_traitsINS_9allocatorINS_9sub_matchIPKcEEEEE9constructB7v160006IS5_JRS5_EvvEEvRS6_PT_DpOT0_, symObjAddr: 0x122D0, symBinAddr: 0x100014950, symSize: 0x30 }
  - { offsetInCU: 0x2F8C2, offset: 0x2F8C2, size: 0x8, addend: 0x0, symName: __ZNSt3__128__exception_guard_exceptionsINS_29_AllocatorDestroyRangeReverseINS_9allocatorINS_9sub_matchIPKcEEEEPS6_EEE10__completeB7v160006Ev, symObjAddr: 0x12300, symBinAddr: 0x100014980, symSize: 0x20 }
  - { offsetInCU: 0x2F8E8, offset: 0x2F8E8, size: 0x8, addend: 0x0, symName: __ZNSt3__128__exception_guard_exceptionsINS_29_AllocatorDestroyRangeReverseINS_9allocatorINS_9sub_matchIPKcEEEEPS6_EEED1B7v160006Ev, symObjAddr: 0x12320, symBinAddr: 0x1000149A0, symSize: 0x20 }
  - { offsetInCU: 0x2F912, offset: 0x2F912, size: 0x8, addend: 0x0, symName: __ZNSt3__128__exception_guard_exceptionsINS_29_AllocatorDestroyRangeReverseINS_9allocatorINS_9sub_matchIPKcEEEEPS6_EEEC1B7v160006ES9_, symObjAddr: 0x12340, symBinAddr: 0x1000149C0, symSize: 0x40 }
  - { offsetInCU: 0x2F94A, offset: 0x2F94A, size: 0x8, addend: 0x0, symName: __ZNSt3__128__exception_guard_exceptionsINS_29_AllocatorDestroyRangeReverseINS_9allocatorINS_9sub_matchIPKcEEEEPS6_EEEC2B7v160006ES9_, symObjAddr: 0x12380, symBinAddr: 0x100014A00, symSize: 0x30 }
  - { offsetInCU: 0x2F982, offset: 0x2F982, size: 0x8, addend: 0x0, symName: __ZNSt3__129_AllocatorDestroyRangeReverseINS_9allocatorINS_9sub_matchIPKcEEEEPS5_EC2B7v160006ERS6_RS7_SA_, symObjAddr: 0x123B0, symBinAddr: 0x100014A30, symSize: 0x40 }
  - { offsetInCU: 0x2F9D9, offset: 0x2F9D9, size: 0x8, addend: 0x0, symName: __ZNSt3__128__exception_guard_exceptionsINS_29_AllocatorDestroyRangeReverseINS_9allocatorINS_9sub_matchIPKcEEEEPS6_EEED2B7v160006Ev, symObjAddr: 0x12430, symBinAddr: 0x100014AB0, symSize: 0x40 }
  - { offsetInCU: 0x2FA03, offset: 0x2FA03, size: 0x8, addend: 0x0, symName: __ZNKSt3__129_AllocatorDestroyRangeReverseINS_9allocatorINS_9sub_matchIPKcEEEEPS5_EclB7v160006Ev, symObjAddr: 0x12470, symBinAddr: 0x100014AF0, symSize: 0x60 }
  - { offsetInCU: 0x2FA29, offset: 0x2FA29, size: 0x8, addend: 0x0, symName: __ZNSt3__128__exception_guard_exceptionsINS_6vectorINS_9sub_matchIPKcEENS_9allocatorIS5_EEE16__destroy_vectorEED2B7v160006Ev, symObjAddr: 0x12540, symBinAddr: 0x100014BC0, symSize: 0x40 }
  - { offsetInCU: 0x2FA53, offset: 0x2FA53, size: 0x8, addend: 0x0, symName: __ZNSt3__16vectorINS_4pairImPKcEENS_9allocatorIS4_EEEC2ERKS7_, symObjAddr: 0x12580, symBinAddr: 0x100014C00, symSize: 0x110 }
  - { offsetInCU: 0x2FAB4, offset: 0x2FAB4, size: 0x8, addend: 0x0, symName: __ZNSt3__116allocator_traitsINS_9allocatorINS_4pairImPKcEEEEE37select_on_container_copy_constructionB7v160006IS6_vvEES6_RKS6_, symObjAddr: 0x12690, symBinAddr: 0x100014D10, symSize: 0x10 }
  - { offsetInCU: 0x2FAE3, offset: 0x2FAE3, size: 0x8, addend: 0x0, symName: __ZNSt3__16vectorINS_4pairImPKcEENS_9allocatorIS4_EEE11__vallocateB7v160006Em, symObjAddr: 0x126E0, symBinAddr: 0x100014D60, symSize: 0xA0 }
  - { offsetInCU: 0x2FB27, offset: 0x2FB27, size: 0x8, addend: 0x0, symName: __ZNSt3__16vectorINS_4pairImPKcEENS_9allocatorIS4_EEE18__construct_at_endIPS4_Li0EEEvT_SA_m, symObjAddr: 0x12780, symBinAddr: 0x100014E00, symSize: 0x90 }
  - { offsetInCU: 0x2FB9A, offset: 0x2FB9A, size: 0x8, addend: 0x0, symName: __ZNSt3__128__exception_guard_exceptionsINS_6vectorINS_4pairImPKcEENS_9allocatorIS5_EEE16__destroy_vectorEE10__completeB7v160006Ev, symObjAddr: 0x12810, symBinAddr: 0x100014E90, symSize: 0x20 }
  - { offsetInCU: 0x2FBC0, offset: 0x2FBC0, size: 0x8, addend: 0x0, symName: __ZNSt3__128__exception_guard_exceptionsINS_6vectorINS_4pairImPKcEENS_9allocatorIS5_EEE16__destroy_vectorEED1B7v160006Ev, symObjAddr: 0x12830, symBinAddr: 0x100014EB0, symSize: 0x20 }
  - { offsetInCU: 0x2FBEA, offset: 0x2FBEA, size: 0x8, addend: 0x0, symName: __ZNSt3__128__exception_guard_exceptionsINS_6vectorINS_4pairImPKcEENS_9allocatorIS5_EEE16__destroy_vectorEEC1B7v160006ES9_, symObjAddr: 0x12850, symBinAddr: 0x100014ED0, symSize: 0x30 }
  - { offsetInCU: 0x2FC22, offset: 0x2FC22, size: 0x8, addend: 0x0, symName: __ZNSt3__128__exception_guard_exceptionsINS_6vectorINS_4pairImPKcEENS_9allocatorIS5_EEE16__destroy_vectorEEC2B7v160006ES9_, symObjAddr: 0x12880, symBinAddr: 0x100014F00, symSize: 0x20 }
  - { offsetInCU: 0x2FC5A, offset: 0x2FC5A, size: 0x8, addend: 0x0, symName: __ZNSt3__129_AllocatorDestroyRangeReverseINS_9allocatorINS_4pairImPKcEEEEPS5_EC1B7v160006ERS6_RS7_SA_, symObjAddr: 0x12A00, symBinAddr: 0x100015080, symSize: 0x40 }
  - { offsetInCU: 0x2FCB1, offset: 0x2FCB1, size: 0x8, addend: 0x0, symName: __ZNSt3__116allocator_traitsINS_9allocatorINS_4pairImPKcEEEEE9constructB7v160006IS5_JRS5_EvvEEvRS6_PT_DpOT0_, symObjAddr: 0x12A40, symBinAddr: 0x1000150C0, symSize: 0x30 }
  - { offsetInCU: 0x2FD05, offset: 0x2FD05, size: 0x8, addend: 0x0, symName: __ZNSt3__128__exception_guard_exceptionsINS_29_AllocatorDestroyRangeReverseINS_9allocatorINS_4pairImPKcEEEEPS6_EEE10__completeB7v160006Ev, symObjAddr: 0x12A70, symBinAddr: 0x1000150F0, symSize: 0x20 }
  - { offsetInCU: 0x2FD2B, offset: 0x2FD2B, size: 0x8, addend: 0x0, symName: __ZNSt3__128__exception_guard_exceptionsINS_29_AllocatorDestroyRangeReverseINS_9allocatorINS_4pairImPKcEEEEPS6_EEED1B7v160006Ev, symObjAddr: 0x12A90, symBinAddr: 0x100015110, symSize: 0x20 }
  - { offsetInCU: 0x2FD55, offset: 0x2FD55, size: 0x8, addend: 0x0, symName: __ZNSt3__128__exception_guard_exceptionsINS_29_AllocatorDestroyRangeReverseINS_9allocatorINS_4pairImPKcEEEEPS6_EEEC1B7v160006ES9_, symObjAddr: 0x12AB0, symBinAddr: 0x100015130, symSize: 0x40 }
  - { offsetInCU: 0x2FD8D, offset: 0x2FD8D, size: 0x8, addend: 0x0, symName: __ZNSt3__128__exception_guard_exceptionsINS_29_AllocatorDestroyRangeReverseINS_9allocatorINS_4pairImPKcEEEEPS6_EEEC2B7v160006ES9_, symObjAddr: 0x12AF0, symBinAddr: 0x100015170, symSize: 0x30 }
  - { offsetInCU: 0x2FDC5, offset: 0x2FDC5, size: 0x8, addend: 0x0, symName: __ZNSt3__129_AllocatorDestroyRangeReverseINS_9allocatorINS_4pairImPKcEEEEPS5_EC2B7v160006ERS6_RS7_SA_, symObjAddr: 0x12B20, symBinAddr: 0x1000151A0, symSize: 0x40 }
  - { offsetInCU: 0x2FE1C, offset: 0x2FE1C, size: 0x8, addend: 0x0, symName: __ZNSt3__128__exception_guard_exceptionsINS_29_AllocatorDestroyRangeReverseINS_9allocatorINS_4pairImPKcEEEEPS6_EEED2B7v160006Ev, symObjAddr: 0x12B90, symBinAddr: 0x100015210, symSize: 0x40 }
  - { offsetInCU: 0x2FE46, offset: 0x2FE46, size: 0x8, addend: 0x0, symName: __ZNKSt3__129_AllocatorDestroyRangeReverseINS_9allocatorINS_4pairImPKcEEEEPS5_EclB7v160006Ev, symObjAddr: 0x12BD0, symBinAddr: 0x100015250, symSize: 0x60 }
  - { offsetInCU: 0x2FE6C, offset: 0x2FE6C, size: 0x8, addend: 0x0, symName: __ZNSt3__128__exception_guard_exceptionsINS_6vectorINS_4pairImPKcEENS_9allocatorIS5_EEE16__destroy_vectorEED2B7v160006Ev, symObjAddr: 0x12CA0, symBinAddr: 0x100015320, symSize: 0x40 }
  - { offsetInCU: 0x2FE96, offset: 0x2FE96, size: 0x8, addend: 0x0, symName: __ZNSt3__16vectorINS_7__stateIcEENS_9allocatorIS2_EEED2B7v160006Ev, symObjAddr: 0x12CE0, symBinAddr: 0x100015360, symSize: 0x40 }
  - { offsetInCU: 0x2FEC0, offset: 0x2FEC0, size: 0x8, addend: 0x0, symName: __ZNSt3__16vectorINS_7__stateIcEENS_9allocatorIS2_EEE16__destroy_vectorC1ERS5_, symObjAddr: 0x12D20, symBinAddr: 0x1000153A0, symSize: 0x30 }
  - { offsetInCU: 0x2FEF9, offset: 0x2FEF9, size: 0x8, addend: 0x0, symName: __ZNSt3__16vectorINS_7__stateIcEENS_9allocatorIS2_EEE16__destroy_vectorclB7v160006Ev, symObjAddr: 0x12D50, symBinAddr: 0x1000153D0, symSize: 0x90 }
  - { offsetInCU: 0x2FF1F, offset: 0x2FF1F, size: 0x8, addend: 0x0, symName: __ZNSt3__16vectorINS_7__stateIcEENS_9allocatorIS2_EEE16__destroy_vectorC2ERS5_, symObjAddr: 0x12DE0, symBinAddr: 0x100015460, symSize: 0x20 }
  - { offsetInCU: 0x2FF58, offset: 0x2FF58, size: 0x8, addend: 0x0, symName: __ZNSt3__16vectorINS_7__stateIcEENS_9allocatorIS2_EEE7__clearB7v160006Ev, symObjAddr: 0x12E10, symBinAddr: 0x100015490, symSize: 0x20 }
  - { offsetInCU: 0x2FF7E, offset: 0x2FF7E, size: 0x8, addend: 0x0, symName: __ZNSt3__14pairIPKcS2_EaSB7v160006ERKS3_, symObjAddr: 0x12E30, symBinAddr: 0x1000154B0, symSize: 0x30 }
  - { offsetInCU: 0x2FFB3, offset: 0x2FFB3, size: 0x8, addend: 0x0, symName: __ZNSt3__113match_resultsIPKcNS_9allocatorINS_9sub_matchIS2_EEEEED2Ev, symObjAddr: 0x12E60, symBinAddr: 0x1000154E0, symSize: 0x20 }
  - { offsetInCU: 0x2FFE0, offset: 0x2FFE0, size: 0x8, addend: 0x0, symName: __ZNSt3__111basic_regexIcNS_12regex_traitsIcEEE28__push_match_any_but_newlineEv, symObjAddr: 0x12E80, symBinAddr: 0x100015500, symSize: 0xA0 }
  - { offsetInCU: 0x30008, offset: 0x30008, size: 0x8, addend: 0x0, symName: __ZNSt3__111basic_regexIcNS_12regex_traitsIcEEE19__parse_atom_escapeIPKcEET_S7_S7_, symObjAddr: 0x12F20, symBinAddr: 0x1000155A0, symSize: 0x110 }
  - { offsetInCU: 0x30083, offset: 0x30083, size: 0x8, addend: 0x0, symName: __ZNSt3__111basic_regexIcNS_12regex_traitsIcEEE26__parse_bracket_expressionIPKcEET_S7_S7_, symObjAddr: 0x13030, symBinAddr: 0x1000156B0, symSize: 0x180 }
  - { offsetInCU: 0x300FE, offset: 0x300FE, size: 0x8, addend: 0x0, symName: __ZNSt3__111basic_regexIcNS_12regex_traitsIcEEE33__push_begin_marked_subexpressionEv, symObjAddr: 0x131B0, symBinAddr: 0x100015830, symSize: 0xD0 }
  - { offsetInCU: 0x30126, offset: 0x30126, size: 0x8, addend: 0x0, symName: __ZNSt3__111basic_regexIcNS_12regex_traitsIcEEE31__push_end_marked_subexpressionEj, symObjAddr: 0x13280, symBinAddr: 0x100015900, symSize: 0xD0 }
  - { offsetInCU: 0x3015D, offset: 0x3015D, size: 0x8, addend: 0x0, symName: __ZNSt3__111basic_regexIcNS_12regex_traitsIcEEE25__parse_pattern_characterIPKcEET_S7_S7_, symObjAddr: 0x133B0, symBinAddr: 0x100015A30, symSize: 0x1F0 }
  - { offsetInCU: 0x301C0, offset: 0x301C0, size: 0x8, addend: 0x0, symName: __ZNSt3__123__match_any_but_newlineIcEC1B7v160006EPNS_6__nodeIcEE, symObjAddr: 0x135A0, symBinAddr: 0x100015C20, symSize: 0x30 }
  - { offsetInCU: 0x301F9, offset: 0x301F9, size: 0x8, addend: 0x0, symName: __ZNSt3__123__match_any_but_newlineIcEC2B7v160006EPNS_6__nodeIcEE, symObjAddr: 0x135D0, symBinAddr: 0x100015C50, symSize: 0x40 }
  - { offsetInCU: 0x30232, offset: 0x30232, size: 0x8, addend: 0x0, symName: __ZNSt3__123__match_any_but_newlineIcED1Ev, symObjAddr: 0x13610, symBinAddr: 0x100015C90, symSize: 0x20 }
  - { offsetInCU: 0x3025F, offset: 0x3025F, size: 0x8, addend: 0x0, symName: __ZNSt3__123__match_any_but_newlineIcED0Ev, symObjAddr: 0x13630, symBinAddr: 0x100015CB0, symSize: 0x30 }
  - { offsetInCU: 0x3028C, offset: 0x3028C, size: 0x8, addend: 0x0, symName: __ZNSt3__123__match_any_but_newlineIcED2Ev, symObjAddr: 0x13660, symBinAddr: 0x100015CE0, symSize: 0x20 }
  - { offsetInCU: 0x302B9, offset: 0x302B9, size: 0x8, addend: 0x0, symName: __ZNSt3__111basic_regexIcNS_12regex_traitsIcEEE22__parse_decimal_escapeIPKcEET_S7_S7_, symObjAddr: 0x136E0, symBinAddr: 0x100015D60, symSize: 0x180 }
  - { offsetInCU: 0x30325, offset: 0x30325, size: 0x8, addend: 0x0, symName: __ZNSt3__111basic_regexIcNS_12regex_traitsIcEEE30__parse_character_class_escapeIPKcEET_S7_S7_, symObjAddr: 0x13860, symBinAddr: 0x100015EE0, symSize: 0x270 }
  - { offsetInCU: 0x30391, offset: 0x30391, size: 0x8, addend: 0x0, symName: __ZNSt3__111basic_regexIcNS_12regex_traitsIcEEE24__parse_character_escapeIPKcEET_S7_S7_PNS_12basic_stringIcNS_11char_traitsIcEENS_9allocatorIcEEEE, symObjAddr: 0x13AD0, symBinAddr: 0x100016150, symSize: 0x5E0 }
  - { offsetInCU: 0x3042A, offset: 0x3042A, size: 0x8, addend: 0x0, symName: __ZNSt3__111basic_regexIcNS_12regex_traitsIcEEE11__push_charEc, symObjAddr: 0x140B0, symBinAddr: 0x100016730, symSize: 0x1E0 }
  - { offsetInCU: 0x30461, offset: 0x30461, size: 0x8, addend: 0x0, symName: __ZNSt3__114numeric_limitsIjE3maxB7v160006Ev, symObjAddr: 0x14290, symBinAddr: 0x100016910, symSize: 0x10 }
  - { offsetInCU: 0x30475, offset: 0x30475, size: 0x8, addend: 0x0, symName: __ZNSt3__111basic_regexIcNS_12regex_traitsIcEEE15__push_back_refEi, symObjAddr: 0x14300, symBinAddr: 0x100016980, symSize: 0x1E0 }
  - { offsetInCU: 0x304AC, offset: 0x304AC, size: 0x8, addend: 0x0, symName: __ZNKSt3__111basic_regexIcNS_12regex_traitsIcEEE5flagsB7v160006Ev, symObjAddr: 0x144E0, symBinAddr: 0x100016B60, symSize: 0x20 }
  - { offsetInCU: 0x304F0, offset: 0x304F0, size: 0x8, addend: 0x0, symName: __ZNSt3__118__match_char_icaseIcNS_12regex_traitsIcEEEC1B7v160006ERKS2_cPNS_6__nodeIcEE, symObjAddr: 0x14500, symBinAddr: 0x100016B80, symSize: 0x40 }
  - { offsetInCU: 0x30565, offset: 0x30565, size: 0x8, addend: 0x0, symName: __ZNSt3__120__match_char_collateIcNS_12regex_traitsIcEEEC1B7v160006ERKS2_cPNS_6__nodeIcEE, symObjAddr: 0x14540, symBinAddr: 0x100016BC0, symSize: 0x40 }
  - { offsetInCU: 0x305DA, offset: 0x305DA, size: 0x8, addend: 0x0, symName: __ZNSt3__112__match_charIcEC1B7v160006EcPNS_6__nodeIcEE, symObjAddr: 0x14580, symBinAddr: 0x100016C00, symSize: 0x30 }
  - { offsetInCU: 0x30622, offset: 0x30622, size: 0x8, addend: 0x0, symName: __ZNSt3__118__match_char_icaseIcNS_12regex_traitsIcEEEC2B7v160006ERKS2_cPNS_6__nodeIcEE, symObjAddr: 0x145B0, symBinAddr: 0x100016C30, symSize: 0xB0 }
  - { offsetInCU: 0x30679, offset: 0x30679, size: 0x8, addend: 0x0, symName: __ZNKSt3__112regex_traitsIcE16translate_nocaseEc, symObjAddr: 0x14660, symBinAddr: 0x100016CE0, symSize: 0x30 }
  - { offsetInCU: 0x306B0, offset: 0x306B0, size: 0x8, addend: 0x0, symName: __ZNSt3__118__match_char_icaseIcNS_12regex_traitsIcEEED1Ev, symObjAddr: 0x14690, symBinAddr: 0x100016D10, symSize: 0x20 }
  - { offsetInCU: 0x306DD, offset: 0x306DD, size: 0x8, addend: 0x0, symName: __ZNSt3__118__match_char_icaseIcNS_12regex_traitsIcEEED0Ev, symObjAddr: 0x146B0, symBinAddr: 0x100016D30, symSize: 0x30 }
  - { offsetInCU: 0x3070A, offset: 0x3070A, size: 0x8, addend: 0x0, symName: __ZNKSt3__118__match_char_icaseIcNS_12regex_traitsIcEEE6__execERNS_7__stateIcEE, symObjAddr: 0x146E0, symBinAddr: 0x100016D60, symSize: 0xB0 }
  - { offsetInCU: 0x30741, offset: 0x30741, size: 0x8, addend: 0x0, symName: __ZNKSt3__15ctypeIcE7tolowerB7v160006Ec, symObjAddr: 0x14790, symBinAddr: 0x100016E10, symSize: 0x30 }
  - { offsetInCU: 0x30776, offset: 0x30776, size: 0x8, addend: 0x0, symName: __ZNSt3__118__match_char_icaseIcNS_12regex_traitsIcEEED2Ev, symObjAddr: 0x147C0, symBinAddr: 0x100016E40, symSize: 0x40 }
  - { offsetInCU: 0x307A3, offset: 0x307A3, size: 0x8, addend: 0x0, symName: __ZNSt3__120__match_char_collateIcNS_12regex_traitsIcEEEC2B7v160006ERKS2_cPNS_6__nodeIcEE, symObjAddr: 0x14800, symBinAddr: 0x100016E80, symSize: 0xB0 }
  - { offsetInCU: 0x307FA, offset: 0x307FA, size: 0x8, addend: 0x0, symName: __ZNKSt3__112regex_traitsIcE9translateB7v160006Ec, symObjAddr: 0x148B0, symBinAddr: 0x100016F30, symSize: 0x20 }
  - { offsetInCU: 0x3082F, offset: 0x3082F, size: 0x8, addend: 0x0, symName: __ZNSt3__120__match_char_collateIcNS_12regex_traitsIcEEED1Ev, symObjAddr: 0x148D0, symBinAddr: 0x100016F50, symSize: 0x20 }
  - { offsetInCU: 0x3085C, offset: 0x3085C, size: 0x8, addend: 0x0, symName: __ZNSt3__120__match_char_collateIcNS_12regex_traitsIcEEED0Ev, symObjAddr: 0x148F0, symBinAddr: 0x100016F70, symSize: 0x30 }
  - { offsetInCU: 0x30889, offset: 0x30889, size: 0x8, addend: 0x0, symName: __ZNKSt3__120__match_char_collateIcNS_12regex_traitsIcEEE6__execERNS_7__stateIcEE, symObjAddr: 0x14920, symBinAddr: 0x100016FA0, symSize: 0xB0 }
  - { offsetInCU: 0x308C0, offset: 0x308C0, size: 0x8, addend: 0x0, symName: __ZNSt3__120__match_char_collateIcNS_12regex_traitsIcEEED2Ev, symObjAddr: 0x149D0, symBinAddr: 0x100017050, symSize: 0x40 }
  - { offsetInCU: 0x308ED, offset: 0x308ED, size: 0x8, addend: 0x0, symName: __ZNSt3__112__match_charIcEC2B7v160006EcPNS_6__nodeIcEE, symObjAddr: 0x14A10, symBinAddr: 0x100017090, symSize: 0x50 }
  - { offsetInCU: 0x30935, offset: 0x30935, size: 0x8, addend: 0x0, symName: __ZNSt3__112__match_charIcED1Ev, symObjAddr: 0x14A60, symBinAddr: 0x1000170E0, symSize: 0x20 }
  - { offsetInCU: 0x30962, offset: 0x30962, size: 0x8, addend: 0x0, symName: __ZNSt3__112__match_charIcED0Ev, symObjAddr: 0x14A80, symBinAddr: 0x100017100, symSize: 0x30 }
  - { offsetInCU: 0x3098F, offset: 0x3098F, size: 0x8, addend: 0x0, symName: __ZNKSt3__112__match_charIcE6__execERNS_7__stateIcEE, symObjAddr: 0x14AB0, symBinAddr: 0x100017130, symSize: 0xA0 }
  - { offsetInCU: 0x309C6, offset: 0x309C6, size: 0x8, addend: 0x0, symName: __ZNSt3__112__match_charIcED2Ev, symObjAddr: 0x14B50, symBinAddr: 0x1000171D0, symSize: 0x20 }
  - { offsetInCU: 0x309F3, offset: 0x309F3, size: 0x8, addend: 0x0, symName: __ZNSt3__123__libcpp_numeric_limitsIjLb1EE3maxB7v160006Ev, symObjAddr: 0x14B70, symBinAddr: 0x1000171F0, symSize: 0x10 }
  - { offsetInCU: 0x30A1B, offset: 0x30A1B, size: 0x8, addend: 0x0, symName: __ZNSt3__116__back_ref_icaseIcNS_12regex_traitsIcEEEC1B7v160006ERKS2_jPNS_6__nodeIcEE, symObjAddr: 0x14B80, symBinAddr: 0x100017200, symSize: 0x40 }
  - { offsetInCU: 0x30A86, offset: 0x30A86, size: 0x8, addend: 0x0, symName: __ZNSt3__118__back_ref_collateIcNS_12regex_traitsIcEEEC1B7v160006ERKS2_jPNS_6__nodeIcEE, symObjAddr: 0x14BC0, symBinAddr: 0x100017240, symSize: 0x40 }
  - { offsetInCU: 0x30AF1, offset: 0x30AF1, size: 0x8, addend: 0x0, symName: __ZNSt3__110__back_refIcEC1B7v160006EjPNS_6__nodeIcEE, symObjAddr: 0x14C00, symBinAddr: 0x100017280, symSize: 0x30 }
  - { offsetInCU: 0x30B39, offset: 0x30B39, size: 0x8, addend: 0x0, symName: __ZNSt3__116__back_ref_icaseIcNS_12regex_traitsIcEEEC2B7v160006ERKS2_jPNS_6__nodeIcEE, symObjAddr: 0x14C30, symBinAddr: 0x1000172B0, symSize: 0x60 }
  - { offsetInCU: 0x30B90, offset: 0x30B90, size: 0x8, addend: 0x0, symName: __ZNSt3__116__back_ref_icaseIcNS_12regex_traitsIcEEED1Ev, symObjAddr: 0x14C90, symBinAddr: 0x100017310, symSize: 0x20 }
  - { offsetInCU: 0x30BBD, offset: 0x30BBD, size: 0x8, addend: 0x0, symName: __ZNSt3__116__back_ref_icaseIcNS_12regex_traitsIcEEED0Ev, symObjAddr: 0x14CB0, symBinAddr: 0x100017330, symSize: 0x30 }
  - { offsetInCU: 0x30BEA, offset: 0x30BEA, size: 0x8, addend: 0x0, symName: __ZNKSt3__116__back_ref_icaseIcNS_12regex_traitsIcEEE6__execERNS_7__stateIcEE, symObjAddr: 0x14CE0, symBinAddr: 0x100017360, symSize: 0x170 }
  - { offsetInCU: 0x30C7B, offset: 0x30C7B, size: 0x8, addend: 0x0, symName: __ZNSt3__116__back_ref_icaseIcNS_12regex_traitsIcEEED2Ev, symObjAddr: 0x14E50, symBinAddr: 0x1000174D0, symSize: 0x40 }
  - { offsetInCU: 0x30CA8, offset: 0x30CA8, size: 0x8, addend: 0x0, symName: __ZNSt3__118__back_ref_collateIcNS_12regex_traitsIcEEEC2B7v160006ERKS2_jPNS_6__nodeIcEE, symObjAddr: 0x14E90, symBinAddr: 0x100017510, symSize: 0x60 }
  - { offsetInCU: 0x30CFF, offset: 0x30CFF, size: 0x8, addend: 0x0, symName: __ZNSt3__118__back_ref_collateIcNS_12regex_traitsIcEEED1Ev, symObjAddr: 0x14EF0, symBinAddr: 0x100017570, symSize: 0x20 }
  - { offsetInCU: 0x30D2C, offset: 0x30D2C, size: 0x8, addend: 0x0, symName: __ZNSt3__118__back_ref_collateIcNS_12regex_traitsIcEEED0Ev, symObjAddr: 0x14F10, symBinAddr: 0x100017590, symSize: 0x30 }
  - { offsetInCU: 0x30D59, offset: 0x30D59, size: 0x8, addend: 0x0, symName: __ZNKSt3__118__back_ref_collateIcNS_12regex_traitsIcEEE6__execERNS_7__stateIcEE, symObjAddr: 0x14F40, symBinAddr: 0x1000175C0, symSize: 0x170 }
  - { offsetInCU: 0x30DEA, offset: 0x30DEA, size: 0x8, addend: 0x0, symName: __ZNSt3__118__back_ref_collateIcNS_12regex_traitsIcEEED2Ev, symObjAddr: 0x150B0, symBinAddr: 0x100017730, symSize: 0x40 }
  - { offsetInCU: 0x30E17, offset: 0x30E17, size: 0x8, addend: 0x0, symName: __ZNSt3__110__back_refIcEC2B7v160006EjPNS_6__nodeIcEE, symObjAddr: 0x150F0, symBinAddr: 0x100017770, symSize: 0x50 }
  - { offsetInCU: 0x30E5F, offset: 0x30E5F, size: 0x8, addend: 0x0, symName: __ZNSt3__110__back_refIcED1Ev, symObjAddr: 0x15140, symBinAddr: 0x1000177C0, symSize: 0x20 }
  - { offsetInCU: 0x30E8C, offset: 0x30E8C, size: 0x8, addend: 0x0, symName: __ZNSt3__110__back_refIcED0Ev, symObjAddr: 0x15160, symBinAddr: 0x1000177E0, symSize: 0x30 }
  - { offsetInCU: 0x30EB9, offset: 0x30EB9, size: 0x8, addend: 0x0, symName: __ZNKSt3__110__back_refIcE6__execERNS_7__stateIcEE, symObjAddr: 0x15190, symBinAddr: 0x100017810, symSize: 0x140 }
  - { offsetInCU: 0x30F1C, offset: 0x30F1C, size: 0x8, addend: 0x0, symName: __ZNSt3__110__back_refIcED2Ev, symObjAddr: 0x152D0, symBinAddr: 0x100017950, symSize: 0x20 }
  - { offsetInCU: 0x30F53, offset: 0x30F53, size: 0x8, addend: 0x0, symName: __ZNKSt3__110__equal_toclB7v160006IccEEbRKT_RKT0_, symObjAddr: 0x153A0, symBinAddr: 0x100017A20, symSize: 0x30 }
  - { offsetInCU: 0x30FA7, offset: 0x30FA7, size: 0x8, addend: 0x0, symName: __ZNSt3__111basic_regexIcNS_12regex_traitsIcEEE21__start_matching_listEb, symObjAddr: 0x153D0, symBinAddr: 0x100017A50, symSize: 0x110 }
  - { offsetInCU: 0x30FED, offset: 0x30FED, size: 0x8, addend: 0x0, symName: __ZNSt3__120__bracket_expressionIcNS_12regex_traitsIcEEE11__add_classB7v160006Ej, symObjAddr: 0x154E0, symBinAddr: 0x100017B60, symSize: 0x20 }
  - { offsetInCU: 0x31022, offset: 0x31022, size: 0x8, addend: 0x0, symName: __ZNSt3__120__bracket_expressionIcNS_12regex_traitsIcEEE10__add_charB7v160006Ec, symObjAddr: 0x15500, symBinAddr: 0x100017B80, symSize: 0xC0 }
  - { offsetInCU: 0x31057, offset: 0x31057, size: 0x8, addend: 0x0, symName: __ZNSt3__120__bracket_expressionIcNS_12regex_traitsIcEEEC1B7v160006ERKS2_PNS_6__nodeIcEEbbb, symObjAddr: 0x155C0, symBinAddr: 0x100017C40, symSize: 0x90 }
  - { offsetInCU: 0x310CC, offset: 0x310CC, size: 0x8, addend: 0x0, symName: __ZNSt3__120__bracket_expressionIcNS_12regex_traitsIcEEEC2B7v160006ERKS2_PNS_6__nodeIcEEbbb, symObjAddr: 0x15650, symBinAddr: 0x100017CD0, symSize: 0x220 }
  - { offsetInCU: 0x31141, offset: 0x31141, size: 0x8, addend: 0x0, symName: __ZNSt3__16vectorIcNS_9allocatorIcEEEC1B7v160006Ev, symObjAddr: 0x15870, symBinAddr: 0x100017EF0, symSize: 0x20 }
  - { offsetInCU: 0x3116B, offset: 0x3116B, size: 0x8, addend: 0x0, symName: __ZNSt3__16vectorINS_4pairINS_12basic_stringIcNS_11char_traitsIcEENS_9allocatorIcEEEES7_EENS5_IS8_EEEC1B7v160006Ev, symObjAddr: 0x15890, symBinAddr: 0x100017F10, symSize: 0x20 }
  - { offsetInCU: 0x31195, offset: 0x31195, size: 0x8, addend: 0x0, symName: __ZNSt3__16vectorINS_4pairIccEENS_9allocatorIS2_EEEC1B7v160006Ev, symObjAddr: 0x158B0, symBinAddr: 0x100017F30, symSize: 0x20 }
  - { offsetInCU: 0x311BF, offset: 0x311BF, size: 0x8, addend: 0x0, symName: __ZNKSt3__112regex_traitsIcE6getlocB7v160006Ev, symObjAddr: 0x15930, symBinAddr: 0x100017FB0, symSize: 0x30 }
  - { offsetInCU: 0x311E5, offset: 0x311E5, size: 0x8, addend: 0x0, symName: __ZNSt3__16vectorINS_4pairIccEENS_9allocatorIS2_EEED1B7v160006Ev, symObjAddr: 0x15960, symBinAddr: 0x100017FE0, symSize: 0x20 }
  - { offsetInCU: 0x3120F, offset: 0x3120F, size: 0x8, addend: 0x0, symName: __ZNSt3__16vectorINS_4pairINS_12basic_stringIcNS_11char_traitsIcEENS_9allocatorIcEEEES7_EENS5_IS8_EEED1B7v160006Ev, symObjAddr: 0x15980, symBinAddr: 0x100018000, symSize: 0x20 }
  - { offsetInCU: 0x31239, offset: 0x31239, size: 0x8, addend: 0x0, symName: __ZNSt3__16vectorIcNS_9allocatorIcEEED1B7v160006Ev, symObjAddr: 0x159A0, symBinAddr: 0x100018020, symSize: 0x20 }
  - { offsetInCU: 0x31263, offset: 0x31263, size: 0x8, addend: 0x0, symName: __ZNSt3__120__bracket_expressionIcNS_12regex_traitsIcEEED1Ev, symObjAddr: 0x159C0, symBinAddr: 0x100018040, symSize: 0x20 }
  - { offsetInCU: 0x31290, offset: 0x31290, size: 0x8, addend: 0x0, symName: __ZNSt3__120__bracket_expressionIcNS_12regex_traitsIcEEED0Ev, symObjAddr: 0x159E0, symBinAddr: 0x100018060, symSize: 0x30 }
  - { offsetInCU: 0x312BD, offset: 0x312BD, size: 0x8, addend: 0x0, symName: __ZNKSt3__120__bracket_expressionIcNS_12regex_traitsIcEEE6__execERNS_7__stateIcEE, symObjAddr: 0x15A10, symBinAddr: 0x100018090, symSize: 0xB20 }
  - { offsetInCU: 0x314B9, offset: 0x314B9, size: 0x8, addend: 0x0, symName: __ZNSt3__16vectorIcNS_9allocatorIcEEEC2B7v160006Ev, symObjAddr: 0x16530, symBinAddr: 0x100018BB0, symSize: 0x60 }
  - { offsetInCU: 0x314E3, offset: 0x314E3, size: 0x8, addend: 0x0, symName: __ZNSt3__117__compressed_pairIPcNS_9allocatorIcEEEC1B7v160006IDnNS_18__default_init_tagEEEOT_OT0_, symObjAddr: 0x16590, symBinAddr: 0x100018C10, symSize: 0x30 }
  - { offsetInCU: 0x3153B, offset: 0x3153B, size: 0x8, addend: 0x0, symName: __ZNSt3__117__compressed_pairIPcNS_9allocatorIcEEEC2B7v160006IDnNS_18__default_init_tagEEEOT_OT0_, symObjAddr: 0x165D0, symBinAddr: 0x100018C50, symSize: 0x40 }
  - { offsetInCU: 0x31593, offset: 0x31593, size: 0x8, addend: 0x0, symName: __ZNSt3__122__compressed_pair_elemIPcLi0ELb0EEC2B7v160006IDnvEEOT_, symObjAddr: 0x16610, symBinAddr: 0x100018C90, symSize: 0x20 }
  - { offsetInCU: 0x315D5, offset: 0x315D5, size: 0x8, addend: 0x0, symName: __ZNSt3__16vectorINS_4pairINS_12basic_stringIcNS_11char_traitsIcEENS_9allocatorIcEEEES7_EENS5_IS8_EEEC2B7v160006Ev, symObjAddr: 0x16630, symBinAddr: 0x100018CB0, symSize: 0x60 }
  - { offsetInCU: 0x315FF, offset: 0x315FF, size: 0x8, addend: 0x0, symName: __ZNSt3__117__compressed_pairIPNS_4pairINS_12basic_stringIcNS_11char_traitsIcEENS_9allocatorIcEEEES7_EENS5_IS8_EEEC1B7v160006IDnNS_18__default_init_tagEEEOT_OT0_, symObjAddr: 0x16690, symBinAddr: 0x100018D10, symSize: 0x30 }
  - { offsetInCU: 0x31657, offset: 0x31657, size: 0x8, addend: 0x0, symName: __ZNSt3__117__compressed_pairIPNS_4pairINS_12basic_stringIcNS_11char_traitsIcEENS_9allocatorIcEEEES7_EENS5_IS8_EEEC2B7v160006IDnNS_18__default_init_tagEEEOT_OT0_, symObjAddr: 0x166D0, symBinAddr: 0x100018D50, symSize: 0x40 }
  - { offsetInCU: 0x316AF, offset: 0x316AF, size: 0x8, addend: 0x0, symName: __ZNSt3__122__compressed_pair_elemIPNS_4pairINS_12basic_stringIcNS_11char_traitsIcEENS_9allocatorIcEEEES7_EELi0ELb0EEC2B7v160006IDnvEEOT_, symObjAddr: 0x16710, symBinAddr: 0x100018D90, symSize: 0x20 }
  - { offsetInCU: 0x316F1, offset: 0x316F1, size: 0x8, addend: 0x0, symName: __ZNSt3__122__compressed_pair_elemINS_9allocatorINS_4pairINS_12basic_stringIcNS_11char_traitsIcEENS1_IcEEEES7_EEEELi1ELb1EEC2B7v160006ENS_18__default_init_tagE, symObjAddr: 0x16730, symBinAddr: 0x100018DB0, symSize: 0x20 }
  - { offsetInCU: 0x31725, offset: 0x31725, size: 0x8, addend: 0x0, symName: __ZNSt3__19allocatorINS_4pairINS_12basic_stringIcNS_11char_traitsIcEENS0_IcEEEES6_EEEC2B7v160006Ev, symObjAddr: 0x16750, symBinAddr: 0x100018DD0, symSize: 0x20 }
  - { offsetInCU: 0x3174F, offset: 0x3174F, size: 0x8, addend: 0x0, symName: __ZNSt3__116__non_trivial_ifILb1ENS_9allocatorINS_4pairINS_12basic_stringIcNS_11char_traitsIcEENS1_IcEEEES7_EEEEEC2B7v160006Ev, symObjAddr: 0x16770, symBinAddr: 0x100018DF0, symSize: 0x10 }
  - { offsetInCU: 0x31779, offset: 0x31779, size: 0x8, addend: 0x0, symName: __ZNSt3__16vectorINS_4pairIccEENS_9allocatorIS2_EEEC2B7v160006Ev, symObjAddr: 0x16780, symBinAddr: 0x100018E00, symSize: 0x60 }
  - { offsetInCU: 0x317A3, offset: 0x317A3, size: 0x8, addend: 0x0, symName: __ZNSt3__117__compressed_pairIPNS_4pairIccEENS_9allocatorIS2_EEEC1B7v160006IDnNS_18__default_init_tagEEEOT_OT0_, symObjAddr: 0x167E0, symBinAddr: 0x100018E60, symSize: 0x30 }
  - { offsetInCU: 0x317FB, offset: 0x317FB, size: 0x8, addend: 0x0, symName: __ZNSt3__117__compressed_pairIPNS_4pairIccEENS_9allocatorIS2_EEEC2B7v160006IDnNS_18__default_init_tagEEEOT_OT0_, symObjAddr: 0x16820, symBinAddr: 0x100018EA0, symSize: 0x40 }
  - { offsetInCU: 0x31853, offset: 0x31853, size: 0x8, addend: 0x0, symName: __ZNSt3__122__compressed_pair_elemIPNS_4pairIccEELi0ELb0EEC2B7v160006IDnvEEOT_, symObjAddr: 0x16860, symBinAddr: 0x100018EE0, symSize: 0x20 }
  - { offsetInCU: 0x31895, offset: 0x31895, size: 0x8, addend: 0x0, symName: __ZNSt3__122__compressed_pair_elemINS_9allocatorINS_4pairIccEEEELi1ELb1EEC2B7v160006ENS_18__default_init_tagE, symObjAddr: 0x16880, symBinAddr: 0x100018F00, symSize: 0x20 }
  - { offsetInCU: 0x318C9, offset: 0x318C9, size: 0x8, addend: 0x0, symName: __ZNSt3__19allocatorINS_4pairIccEEEC2B7v160006Ev, symObjAddr: 0x168A0, symBinAddr: 0x100018F20, symSize: 0x20 }
  - { offsetInCU: 0x318F3, offset: 0x318F3, size: 0x8, addend: 0x0, symName: __ZNSt3__116__non_trivial_ifILb1ENS_9allocatorINS_4pairIccEEEEEC2B7v160006Ev, symObjAddr: 0x168C0, symBinAddr: 0x100018F40, symSize: 0x10 }
  - { offsetInCU: 0x3191D, offset: 0x3191D, size: 0x8, addend: 0x0, symName: __ZNKSt3__112basic_stringIcNS_11char_traitsIcEENS_9allocatorIcEEEcvNS_17basic_string_viewIcS2_EEB7v160006Ev, symObjAddr: 0x16960, symBinAddr: 0x100018FE0, symSize: 0x50 }
  - { offsetInCU: 0x31943, offset: 0x31943, size: 0x8, addend: 0x0, symName: __ZNSt3__117basic_string_viewIcNS_11char_traitsIcEEEC1B7v160006EPKc, symObjAddr: 0x169B0, symBinAddr: 0x100019030, symSize: 0x30 }
  - { offsetInCU: 0x3197C, offset: 0x3197C, size: 0x8, addend: 0x0, symName: __ZNKSt3__117basic_string_viewIcNS_11char_traitsIcEEE4sizeB7v160006Ev, symObjAddr: 0x169E0, symBinAddr: 0x100019060, symSize: 0x20 }
  - { offsetInCU: 0x319A2, offset: 0x319A2, size: 0x8, addend: 0x0, symName: __ZNKSt3__117basic_string_viewIcNS_11char_traitsIcEEE7compareES3_, symObjAddr: 0x16A00, symBinAddr: 0x100019080, symSize: 0x100 }
  - { offsetInCU: 0x319F5, offset: 0x319F5, size: 0x8, addend: 0x0, symName: __ZNSt3__111char_traitsIcE7compareEPKcS3_m, symObjAddr: 0x16B00, symBinAddr: 0x100019180, symSize: 0x60 }
  - { offsetInCU: 0x31A34, offset: 0x31A34, size: 0x8, addend: 0x0, symName: __ZNKSt3__117basic_string_viewIcNS_11char_traitsIcEEE4dataB7v160006Ev, symObjAddr: 0x16B60, symBinAddr: 0x1000191E0, symSize: 0x20 }
  - { offsetInCU: 0x31A5A, offset: 0x31A5A, size: 0x8, addend: 0x0, symName: __ZNKSt3__112basic_stringIcNS_11char_traitsIcEENS_9allocatorIcEEE4dataB7v160006Ev, symObjAddr: 0x16BB0, symBinAddr: 0x100019230, symSize: 0x30 }
  - { offsetInCU: 0x31A80, offset: 0x31A80, size: 0x8, addend: 0x0, symName: __ZNKSt3__112basic_stringIcNS_11char_traitsIcEENS_9allocatorIcEEE4sizeB7v160006Ev, symObjAddr: 0x16BE0, symBinAddr: 0x100019260, symSize: 0x50 }
  - { offsetInCU: 0x31AA6, offset: 0x31AA6, size: 0x8, addend: 0x0, symName: __ZNSt3__117basic_string_viewIcNS_11char_traitsIcEEEC1B7v160006EPKcm, symObjAddr: 0x16C30, symBinAddr: 0x1000192B0, symSize: 0x30 }
  - { offsetInCU: 0x31AEE, offset: 0x31AEE, size: 0x8, addend: 0x0, symName: __ZNKSt3__112basic_stringIcNS_11char_traitsIcEENS_9allocatorIcEEE13__get_pointerB7v160006Ev, symObjAddr: 0x16C70, symBinAddr: 0x1000192F0, symSize: 0x50 }
  - { offsetInCU: 0x31B14, offset: 0x31B14, size: 0x8, addend: 0x0, symName: __ZNKSt3__112basic_stringIcNS_11char_traitsIcEENS_9allocatorIcEEE18__get_long_pointerB7v160006Ev, symObjAddr: 0x16CC0, symBinAddr: 0x100019340, symSize: 0x20 }
  - { offsetInCU: 0x31B3A, offset: 0x31B3A, size: 0x8, addend: 0x0, symName: __ZNKSt3__112basic_stringIcNS_11char_traitsIcEENS_9allocatorIcEEE19__get_short_pointerB7v160006Ev, symObjAddr: 0x16CE0, symBinAddr: 0x100019360, symSize: 0x30 }
  - { offsetInCU: 0x31B60, offset: 0x31B60, size: 0x8, addend: 0x0, symName: __ZNSt3__114pointer_traitsIPKcE10pointer_toB7v160006ERS1_, symObjAddr: 0x16D10, symBinAddr: 0x100019390, symSize: 0x10 }
  - { offsetInCU: 0x31B83, offset: 0x31B83, size: 0x8, addend: 0x0, symName: __ZNKSt3__112basic_stringIcNS_11char_traitsIcEENS_9allocatorIcEEE15__get_long_sizeB7v160006Ev, symObjAddr: 0x16D20, symBinAddr: 0x1000193A0, symSize: 0x20 }
  - { offsetInCU: 0x31BA9, offset: 0x31BA9, size: 0x8, addend: 0x0, symName: __ZNKSt3__112basic_stringIcNS_11char_traitsIcEENS_9allocatorIcEEE16__get_short_sizeB7v160006Ev, symObjAddr: 0x16D40, symBinAddr: 0x1000193C0, symSize: 0x30 }
  - { offsetInCU: 0x31BCF, offset: 0x31BCF, size: 0x8, addend: 0x0, symName: __ZNSt3__117basic_string_viewIcNS_11char_traitsIcEEEC2B7v160006EPKcm, symObjAddr: 0x16D70, symBinAddr: 0x1000193F0, symSize: 0x50 }
  - { offsetInCU: 0x31C17, offset: 0x31C17, size: 0x8, addend: 0x0, symName: __ZNSt3__117basic_string_viewIcNS_11char_traitsIcEEEC2B7v160006EPKc, symObjAddr: 0x16DC0, symBinAddr: 0x100019440, symSize: 0x40 }
  - { offsetInCU: 0x31C50, offset: 0x31C50, size: 0x8, addend: 0x0, symName: __ZNSt3__16vectorINS_4pairIccEENS_9allocatorIS2_EEED2B7v160006Ev, symObjAddr: 0x16E20, symBinAddr: 0x1000194A0, symSize: 0x40 }
  - { offsetInCU: 0x31C7A, offset: 0x31C7A, size: 0x8, addend: 0x0, symName: __ZNSt3__16vectorINS_4pairIccEENS_9allocatorIS2_EEE16__destroy_vectorC1ERS5_, symObjAddr: 0x16E60, symBinAddr: 0x1000194E0, symSize: 0x30 }
  - { offsetInCU: 0x31CB3, offset: 0x31CB3, size: 0x8, addend: 0x0, symName: __ZNSt3__16vectorINS_4pairIccEENS_9allocatorIS2_EEE16__destroy_vectorclB7v160006Ev, symObjAddr: 0x16E90, symBinAddr: 0x100019510, symSize: 0x90 }
  - { offsetInCU: 0x31CD9, offset: 0x31CD9, size: 0x8, addend: 0x0, symName: __ZNSt3__16vectorINS_4pairIccEENS_9allocatorIS2_EEE16__destroy_vectorC2ERS5_, symObjAddr: 0x16F20, symBinAddr: 0x1000195A0, symSize: 0x20 }
  - { offsetInCU: 0x31D12, offset: 0x31D12, size: 0x8, addend: 0x0, symName: __ZNKSt3__16vectorINS_4pairIccEENS_9allocatorIS2_EEE17__annotate_deleteB7v160006Ev, symObjAddr: 0x16F40, symBinAddr: 0x1000195C0, symSize: 0xB0 }
  - { offsetInCU: 0x31D38, offset: 0x31D38, size: 0x8, addend: 0x0, symName: __ZNSt3__16vectorINS_4pairIccEENS_9allocatorIS2_EEE7__clearB7v160006Ev, symObjAddr: 0x17000, symBinAddr: 0x100019680, symSize: 0x20 }
  - { offsetInCU: 0x31D5E, offset: 0x31D5E, size: 0x8, addend: 0x0, symName: __ZNSt3__116allocator_traitsINS_9allocatorINS_4pairIccEEEEE10deallocateB7v160006ERS4_PS3_m, symObjAddr: 0x17020, symBinAddr: 0x1000196A0, symSize: 0x30 }
  - { offsetInCU: 0x31DA0, offset: 0x31DA0, size: 0x8, addend: 0x0, symName: __ZNSt3__16vectorINS_4pairIccEENS_9allocatorIS2_EEE7__allocB7v160006Ev, symObjAddr: 0x17050, symBinAddr: 0x1000196D0, symSize: 0x20 }
  - { offsetInCU: 0x31DC6, offset: 0x31DC6, size: 0x8, addend: 0x0, symName: __ZNKSt3__16vectorINS_4pairIccEENS_9allocatorIS2_EEE8capacityB7v160006Ev, symObjAddr: 0x17070, symBinAddr: 0x1000196F0, symSize: 0x30 }
  - { offsetInCU: 0x31DEC, offset: 0x31DEC, size: 0x8, addend: 0x0, symName: __ZNKSt3__16vectorINS_4pairIccEENS_9allocatorIS2_EEE31__annotate_contiguous_containerB7v160006EPKvS7_S7_S7_, symObjAddr: 0x170A0, symBinAddr: 0x100019720, symSize: 0x20 }
  - { offsetInCU: 0x31E3E, offset: 0x31E3E, size: 0x8, addend: 0x0, symName: __ZNKSt3__16vectorINS_4pairIccEENS_9allocatorIS2_EEE4dataB7v160006Ev, symObjAddr: 0x170C0, symBinAddr: 0x100019740, symSize: 0x20 }
  - { offsetInCU: 0x31E64, offset: 0x31E64, size: 0x8, addend: 0x0, symName: __ZNKSt3__16vectorINS_4pairIccEENS_9allocatorIS2_EEE4sizeB7v160006Ev, symObjAddr: 0x170E0, symBinAddr: 0x100019760, symSize: 0x20 }
  - { offsetInCU: 0x31E8A, offset: 0x31E8A, size: 0x8, addend: 0x0, symName: __ZNSt3__16vectorINS_4pairIccEENS_9allocatorIS2_EEE22__base_destruct_at_endB7v160006EPS2_, symObjAddr: 0x17110, symBinAddr: 0x100019790, symSize: 0x80 }
  - { offsetInCU: 0x31ECE, offset: 0x31ECE, size: 0x8, addend: 0x0, symName: __ZNSt3__116allocator_traitsINS_9allocatorINS_4pairIccEEEEE7destroyB7v160006IS3_vvEEvRS4_PT_, symObjAddr: 0x17190, symBinAddr: 0x100019810, symSize: 0x20 }
  - { offsetInCU: 0x31F08, offset: 0x31F08, size: 0x8, addend: 0x0, symName: __ZNSt3__19allocatorINS_4pairIccEEE10deallocateB7v160006EPS2_m, symObjAddr: 0x171E0, symBinAddr: 0x100019860, symSize: 0x40 }
  - { offsetInCU: 0x31F4A, offset: 0x31F4A, size: 0x8, addend: 0x0, symName: __ZNSt3__117__compressed_pairIPNS_4pairIccEENS_9allocatorIS2_EEE6secondB7v160006Ev, symObjAddr: 0x17220, symBinAddr: 0x1000198A0, symSize: 0x20 }
  - { offsetInCU: 0x31F70, offset: 0x31F70, size: 0x8, addend: 0x0, symName: __ZNSt3__122__compressed_pair_elemINS_9allocatorINS_4pairIccEEEELi1ELb1EE5__getB7v160006Ev, symObjAddr: 0x17240, symBinAddr: 0x1000198C0, symSize: 0x10 }
  - { offsetInCU: 0x31F96, offset: 0x31F96, size: 0x8, addend: 0x0, symName: __ZNKSt3__16vectorINS_4pairIccEENS_9allocatorIS2_EEE9__end_capB7v160006Ev, symObjAddr: 0x17250, symBinAddr: 0x1000198D0, symSize: 0x20 }
  - { offsetInCU: 0x31FBC, offset: 0x31FBC, size: 0x8, addend: 0x0, symName: __ZNKSt3__117__compressed_pairIPNS_4pairIccEENS_9allocatorIS2_EEE5firstB7v160006Ev, symObjAddr: 0x17270, symBinAddr: 0x1000198F0, symSize: 0x20 }
  - { offsetInCU: 0x31FE2, offset: 0x31FE2, size: 0x8, addend: 0x0, symName: __ZNKSt3__122__compressed_pair_elemIPNS_4pairIccEELi0ELb0EE5__getB7v160006Ev, symObjAddr: 0x17290, symBinAddr: 0x100019910, symSize: 0x10 }
  - { offsetInCU: 0x32008, offset: 0x32008, size: 0x8, addend: 0x0, symName: __ZNSt3__16vectorINS_4pairINS_12basic_stringIcNS_11char_traitsIcEENS_9allocatorIcEEEES7_EENS5_IS8_EEED2B7v160006Ev, symObjAddr: 0x172A0, symBinAddr: 0x100019920, symSize: 0x40 }
  - { offsetInCU: 0x32032, offset: 0x32032, size: 0x8, addend: 0x0, symName: __ZNSt3__16vectorINS_4pairINS_12basic_stringIcNS_11char_traitsIcEENS_9allocatorIcEEEES7_EENS5_IS8_EEE16__destroy_vectorC1ERSA_, symObjAddr: 0x172E0, symBinAddr: 0x100019960, symSize: 0x30 }
  - { offsetInCU: 0x3206B, offset: 0x3206B, size: 0x8, addend: 0x0, symName: __ZNSt3__16vectorINS_4pairINS_12basic_stringIcNS_11char_traitsIcEENS_9allocatorIcEEEES7_EENS5_IS8_EEE16__destroy_vectorclB7v160006Ev, symObjAddr: 0x17310, symBinAddr: 0x100019990, symSize: 0x90 }
  - { offsetInCU: 0x32091, offset: 0x32091, size: 0x8, addend: 0x0, symName: __ZNSt3__16vectorINS_4pairINS_12basic_stringIcNS_11char_traitsIcEENS_9allocatorIcEEEES7_EENS5_IS8_EEE16__destroy_vectorC2ERSA_, symObjAddr: 0x173A0, symBinAddr: 0x100019A20, symSize: 0x20 }
  - { offsetInCU: 0x320CA, offset: 0x320CA, size: 0x8, addend: 0x0, symName: __ZNKSt3__16vectorINS_4pairINS_12basic_stringIcNS_11char_traitsIcEENS_9allocatorIcEEEES7_EENS5_IS8_EEE17__annotate_deleteB7v160006Ev, symObjAddr: 0x173C0, symBinAddr: 0x100019A40, symSize: 0xB0 }
  - { offsetInCU: 0x320F0, offset: 0x320F0, size: 0x8, addend: 0x0, symName: __ZNSt3__16vectorINS_4pairINS_12basic_stringIcNS_11char_traitsIcEENS_9allocatorIcEEEES7_EENS5_IS8_EEE7__clearB7v160006Ev, symObjAddr: 0x17480, symBinAddr: 0x100019B00, symSize: 0x20 }
  - { offsetInCU: 0x32116, offset: 0x32116, size: 0x8, addend: 0x0, symName: __ZNSt3__116allocator_traitsINS_9allocatorINS_4pairINS_12basic_stringIcNS_11char_traitsIcEENS1_IcEEEES7_EEEEE10deallocateB7v160006ERS9_PS8_m, symObjAddr: 0x174A0, symBinAddr: 0x100019B20, symSize: 0x30 }
  - { offsetInCU: 0x32158, offset: 0x32158, size: 0x8, addend: 0x0, symName: __ZNSt3__16vectorINS_4pairINS_12basic_stringIcNS_11char_traitsIcEENS_9allocatorIcEEEES7_EENS5_IS8_EEE7__allocB7v160006Ev, symObjAddr: 0x174D0, symBinAddr: 0x100019B50, symSize: 0x20 }
  - { offsetInCU: 0x3217E, offset: 0x3217E, size: 0x8, addend: 0x0, symName: __ZNKSt3__16vectorINS_4pairINS_12basic_stringIcNS_11char_traitsIcEENS_9allocatorIcEEEES7_EENS5_IS8_EEE8capacityB7v160006Ev, symObjAddr: 0x174F0, symBinAddr: 0x100019B70, symSize: 0x40 }
  - { offsetInCU: 0x321A4, offset: 0x321A4, size: 0x8, addend: 0x0, symName: __ZNKSt3__16vectorINS_4pairINS_12basic_stringIcNS_11char_traitsIcEENS_9allocatorIcEEEES7_EENS5_IS8_EEE31__annotate_contiguous_containerB7v160006EPKvSC_SC_SC_, symObjAddr: 0x17530, symBinAddr: 0x100019BB0, symSize: 0x20 }
  - { offsetInCU: 0x321F6, offset: 0x321F6, size: 0x8, addend: 0x0, symName: __ZNKSt3__16vectorINS_4pairINS_12basic_stringIcNS_11char_traitsIcEENS_9allocatorIcEEEES7_EENS5_IS8_EEE4dataB7v160006Ev, symObjAddr: 0x17550, symBinAddr: 0x100019BD0, symSize: 0x20 }
  - { offsetInCU: 0x3221C, offset: 0x3221C, size: 0x8, addend: 0x0, symName: __ZNKSt3__16vectorINS_4pairINS_12basic_stringIcNS_11char_traitsIcEENS_9allocatorIcEEEES7_EENS5_IS8_EEE4sizeB7v160006Ev, symObjAddr: 0x17570, symBinAddr: 0x100019BF0, symSize: 0x30 }
  - { offsetInCU: 0x32242, offset: 0x32242, size: 0x8, addend: 0x0, symName: __ZNSt3__16vectorINS_4pairINS_12basic_stringIcNS_11char_traitsIcEENS_9allocatorIcEEEES7_EENS5_IS8_EEE22__base_destruct_at_endB7v160006EPS8_, symObjAddr: 0x175B0, symBinAddr: 0x100019C30, symSize: 0x80 }
  - { offsetInCU: 0x32286, offset: 0x32286, size: 0x8, addend: 0x0, symName: __ZNSt3__116allocator_traitsINS_9allocatorINS_4pairINS_12basic_stringIcNS_11char_traitsIcEENS1_IcEEEES7_EEEEE7destroyB7v160006IS8_vvEEvRS9_PT_, symObjAddr: 0x17630, symBinAddr: 0x100019CB0, symSize: 0x20 }
  - { offsetInCU: 0x322C0, offset: 0x322C0, size: 0x8, addend: 0x0, symName: __ZNSt3__14pairINS_12basic_stringIcNS_11char_traitsIcEENS_9allocatorIcEEEES6_ED1Ev, symObjAddr: 0x17690, symBinAddr: 0x100019D10, symSize: 0x20 }
  - { offsetInCU: 0x322EC, offset: 0x322EC, size: 0x8, addend: 0x0, symName: __ZNSt3__14pairINS_12basic_stringIcNS_11char_traitsIcEENS_9allocatorIcEEEES6_ED2Ev, symObjAddr: 0x176B0, symBinAddr: 0x100019D30, symSize: 0x30 }
  - { offsetInCU: 0x32318, offset: 0x32318, size: 0x8, addend: 0x0, symName: __ZNSt3__19allocatorINS_4pairINS_12basic_stringIcNS_11char_traitsIcEENS0_IcEEEES6_EEE10deallocateB7v160006EPS7_m, symObjAddr: 0x176E0, symBinAddr: 0x100019D60, symSize: 0x50 }
  - { offsetInCU: 0x3235A, offset: 0x3235A, size: 0x8, addend: 0x0, symName: __ZNSt3__117__compressed_pairIPNS_4pairINS_12basic_stringIcNS_11char_traitsIcEENS_9allocatorIcEEEES7_EENS5_IS8_EEE6secondB7v160006Ev, symObjAddr: 0x17730, symBinAddr: 0x100019DB0, symSize: 0x20 }
  - { offsetInCU: 0x32380, offset: 0x32380, size: 0x8, addend: 0x0, symName: __ZNSt3__122__compressed_pair_elemINS_9allocatorINS_4pairINS_12basic_stringIcNS_11char_traitsIcEENS1_IcEEEES7_EEEELi1ELb1EE5__getB7v160006Ev, symObjAddr: 0x17750, symBinAddr: 0x100019DD0, symSize: 0x10 }
  - { offsetInCU: 0x323A6, offset: 0x323A6, size: 0x8, addend: 0x0, symName: __ZNKSt3__16vectorINS_4pairINS_12basic_stringIcNS_11char_traitsIcEENS_9allocatorIcEEEES7_EENS5_IS8_EEE9__end_capB7v160006Ev, symObjAddr: 0x17760, symBinAddr: 0x100019DE0, symSize: 0x20 }
  - { offsetInCU: 0x323CC, offset: 0x323CC, size: 0x8, addend: 0x0, symName: __ZNKSt3__117__compressed_pairIPNS_4pairINS_12basic_stringIcNS_11char_traitsIcEENS_9allocatorIcEEEES7_EENS5_IS8_EEE5firstB7v160006Ev, symObjAddr: 0x17780, symBinAddr: 0x100019E00, symSize: 0x20 }
  - { offsetInCU: 0x323F2, offset: 0x323F2, size: 0x8, addend: 0x0, symName: __ZNKSt3__122__compressed_pair_elemIPNS_4pairINS_12basic_stringIcNS_11char_traitsIcEENS_9allocatorIcEEEES7_EELi0ELb0EE5__getB7v160006Ev, symObjAddr: 0x177A0, symBinAddr: 0x100019E20, symSize: 0x10 }
  - { offsetInCU: 0x32418, offset: 0x32418, size: 0x8, addend: 0x0, symName: __ZNSt3__16vectorIcNS_9allocatorIcEEED2B7v160006Ev, symObjAddr: 0x177B0, symBinAddr: 0x100019E30, symSize: 0x40 }
  - { offsetInCU: 0x32442, offset: 0x32442, size: 0x8, addend: 0x0, symName: __ZNSt3__16vectorIcNS_9allocatorIcEEE16__destroy_vectorC1ERS3_, symObjAddr: 0x177F0, symBinAddr: 0x100019E70, symSize: 0x30 }
  - { offsetInCU: 0x3247B, offset: 0x3247B, size: 0x8, addend: 0x0, symName: __ZNSt3__16vectorIcNS_9allocatorIcEEE16__destroy_vectorclB7v160006Ev, symObjAddr: 0x17820, symBinAddr: 0x100019EA0, symSize: 0x90 }
  - { offsetInCU: 0x324A1, offset: 0x324A1, size: 0x8, addend: 0x0, symName: __ZNSt3__16vectorIcNS_9allocatorIcEEE16__destroy_vectorC2ERS3_, symObjAddr: 0x178B0, symBinAddr: 0x100019F30, symSize: 0x20 }
  - { offsetInCU: 0x324DA, offset: 0x324DA, size: 0x8, addend: 0x0, symName: __ZNKSt3__16vectorIcNS_9allocatorIcEEE17__annotate_deleteB7v160006Ev, symObjAddr: 0x178D0, symBinAddr: 0x100019F50, symSize: 0xA0 }
  - { offsetInCU: 0x32500, offset: 0x32500, size: 0x8, addend: 0x0, symName: __ZNSt3__16vectorIcNS_9allocatorIcEEE7__clearB7v160006Ev, symObjAddr: 0x17980, symBinAddr: 0x10001A000, symSize: 0x20 }
  - { offsetInCU: 0x32526, offset: 0x32526, size: 0x8, addend: 0x0, symName: __ZNSt3__116allocator_traitsINS_9allocatorIcEEE10deallocateB7v160006ERS2_Pcm, symObjAddr: 0x179A0, symBinAddr: 0x10001A020, symSize: 0x30 }
  - { offsetInCU: 0x32568, offset: 0x32568, size: 0x8, addend: 0x0, symName: __ZNSt3__16vectorIcNS_9allocatorIcEEE7__allocB7v160006Ev, symObjAddr: 0x179D0, symBinAddr: 0x10001A050, symSize: 0x20 }
  - { offsetInCU: 0x3258E, offset: 0x3258E, size: 0x8, addend: 0x0, symName: __ZNKSt3__16vectorIcNS_9allocatorIcEEE8capacityB7v160006Ev, symObjAddr: 0x179F0, symBinAddr: 0x10001A070, symSize: 0x30 }
  - { offsetInCU: 0x325B4, offset: 0x325B4, size: 0x8, addend: 0x0, symName: __ZNKSt3__16vectorIcNS_9allocatorIcEEE31__annotate_contiguous_containerB7v160006EPKvS5_S5_S5_, symObjAddr: 0x17A20, symBinAddr: 0x10001A0A0, symSize: 0x20 }
  - { offsetInCU: 0x32606, offset: 0x32606, size: 0x8, addend: 0x0, symName: __ZNKSt3__16vectorIcNS_9allocatorIcEEE4dataB7v160006Ev, symObjAddr: 0x17A40, symBinAddr: 0x10001A0C0, symSize: 0x20 }
  - { offsetInCU: 0x3262C, offset: 0x3262C, size: 0x8, addend: 0x0, symName: __ZNKSt3__16vectorIcNS_9allocatorIcEEE4sizeB7v160006Ev, symObjAddr: 0x17A60, symBinAddr: 0x10001A0E0, symSize: 0x20 }
  - { offsetInCU: 0x32652, offset: 0x32652, size: 0x8, addend: 0x0, symName: __ZNSt3__16vectorIcNS_9allocatorIcEEE22__base_destruct_at_endB7v160006EPc, symObjAddr: 0x17A90, symBinAddr: 0x10001A110, symSize: 0x80 }
  - { offsetInCU: 0x32696, offset: 0x32696, size: 0x8, addend: 0x0, symName: __ZNSt3__116allocator_traitsINS_9allocatorIcEEE7destroyB7v160006IcvvEEvRS2_PT_, symObjAddr: 0x17B10, symBinAddr: 0x10001A190, symSize: 0x20 }
  - { offsetInCU: 0x326D0, offset: 0x326D0, size: 0x8, addend: 0x0, symName: __ZNSt3__19allocatorIcE10deallocateB7v160006EPcm, symObjAddr: 0x17B60, symBinAddr: 0x10001A1E0, symSize: 0x40 }
  - { offsetInCU: 0x32712, offset: 0x32712, size: 0x8, addend: 0x0, symName: __ZNSt3__117__compressed_pairIPcNS_9allocatorIcEEE6secondB7v160006Ev, symObjAddr: 0x17BA0, symBinAddr: 0x10001A220, symSize: 0x20 }
  - { offsetInCU: 0x32738, offset: 0x32738, size: 0x8, addend: 0x0, symName: __ZNSt3__122__compressed_pair_elemINS_9allocatorIcEELi1ELb1EE5__getB7v160006Ev, symObjAddr: 0x17BC0, symBinAddr: 0x10001A240, symSize: 0x10 }
  - { offsetInCU: 0x3275E, offset: 0x3275E, size: 0x8, addend: 0x0, symName: __ZNKSt3__16vectorIcNS_9allocatorIcEEE9__end_capB7v160006Ev, symObjAddr: 0x17BD0, symBinAddr: 0x10001A250, symSize: 0x20 }
  - { offsetInCU: 0x32784, offset: 0x32784, size: 0x8, addend: 0x0, symName: __ZNKSt3__117__compressed_pairIPcNS_9allocatorIcEEE5firstB7v160006Ev, symObjAddr: 0x17BF0, symBinAddr: 0x10001A270, symSize: 0x20 }
  - { offsetInCU: 0x327AA, offset: 0x327AA, size: 0x8, addend: 0x0, symName: __ZNKSt3__122__compressed_pair_elemIPcLi0ELb0EE5__getB7v160006Ev, symObjAddr: 0x17C10, symBinAddr: 0x10001A290, symSize: 0x10 }
  - { offsetInCU: 0x327D0, offset: 0x327D0, size: 0x8, addend: 0x0, symName: __ZNSt3__120__bracket_expressionIcNS_12regex_traitsIcEEED2Ev, symObjAddr: 0x17C20, symBinAddr: 0x10001A2A0, symSize: 0x80 }
  - { offsetInCU: 0x327FD, offset: 0x327FD, size: 0x8, addend: 0x0, symName: __ZNSt3__14pairIccEC1B7v160006ILb1ELPv0EEERKcS5_, symObjAddr: 0x17CA0, symBinAddr: 0x10001A320, symSize: 0x30 }
  - { offsetInCU: 0x32853, offset: 0x32853, size: 0x8, addend: 0x0, symName: __ZNKSt3__112regex_traitsIcE18lookup_collatenameB7v160006IPcEENS_12basic_stringIcNS_11char_traitsIcEENS_9allocatorIcEEEET_SA_, symObjAddr: 0x17CD0, symBinAddr: 0x10001A350, symSize: 0x40 }
  - { offsetInCU: 0x328A0, offset: 0x328A0, size: 0x8, addend: 0x0, symName: __ZNKSt3__112basic_stringIcNS_11char_traitsIcEENS_9allocatorIcEEE5emptyB7v160006Ev, symObjAddr: 0x17D10, symBinAddr: 0x10001A390, symSize: 0x30 }
  - { offsetInCU: 0x328C6, offset: 0x328C6, size: 0x8, addend: 0x0, symName: __ZNKSt3__16vectorINS_4pairIccEENS_9allocatorIS2_EEEixB7v160006Em, symObjAddr: 0x17D90, symBinAddr: 0x10001A410, symSize: 0x20 }
  - { offsetInCU: 0x328FD, offset: 0x328FD, size: 0x8, addend: 0x0, symName: __ZNKSt3__16vectorINS_4pairINS_12basic_stringIcNS_11char_traitsIcEENS_9allocatorIcEEEES7_EENS5_IS8_EEE5emptyB7v160006Ev, symObjAddr: 0x17DB0, symBinAddr: 0x10001A430, symSize: 0x20 }
  - { offsetInCU: 0x32953, offset: 0x32953, size: 0x8, addend: 0x0, symName: __ZNKSt3__112regex_traitsIcE9transformIPcEENS_12basic_stringIcNS_11char_traitsIcEENS_9allocatorIcEEEET_SA_, symObjAddr: 0x17DD0, symBinAddr: 0x10001A450, symSize: 0x110 }
  - { offsetInCU: 0x329E1, offset: 0x329E1, size: 0x8, addend: 0x0, symName: __ZNKSt3__16vectorINS_4pairINS_12basic_stringIcNS_11char_traitsIcEENS_9allocatorIcEEEES7_EENS5_IS8_EEEixB7v160006Em, symObjAddr: 0x17F60, symBinAddr: 0x10001A5E0, symSize: 0x20 }
  - { offsetInCU: 0x32A27, offset: 0x32A27, size: 0x8, addend: 0x0, symName: __ZNSt3__120_CmpUnspecifiedParamC1B7v160006EMS0_i, symObjAddr: 0x17F80, symBinAddr: 0x10001A600, symSize: 0x30 }
  - { offsetInCU: 0x32A5B, offset: 0x32A5B, size: 0x8, addend: 0x0, symName: __ZNKSt3__16vectorINS_12basic_stringIcNS_11char_traitsIcEENS_9allocatorIcEEEENS4_IS6_EEE5emptyB7v160006Ev, symObjAddr: 0x17FB0, symBinAddr: 0x10001A630, symSize: 0x20 }
  - { offsetInCU: 0x32A81, offset: 0x32A81, size: 0x8, addend: 0x0, symName: __ZNKSt3__112regex_traitsIcE17transform_primaryB7v160006IPcEENS_12basic_stringIcNS_11char_traitsIcEENS_9allocatorIcEEEET_SA_, symObjAddr: 0x17FD0, symBinAddr: 0x10001A650, symSize: 0x40 }
  - { offsetInCU: 0x32ACE, offset: 0x32ACE, size: 0x8, addend: 0x0, symName: __ZNKSt3__16vectorINS_12basic_stringIcNS_11char_traitsIcEENS_9allocatorIcEEEENS4_IS6_EEEixB7v160006Em, symObjAddr: 0x18120, symBinAddr: 0x10001A7A0, symSize: 0x20 }
  - { offsetInCU: 0x32B05, offset: 0x32B05, size: 0x8, addend: 0x0, symName: __ZNKSt3__16vectorIcNS_9allocatorIcEEEixB7v160006Em, symObjAddr: 0x18140, symBinAddr: 0x10001A7C0, symSize: 0x20 }
  - { offsetInCU: 0x32B3C, offset: 0x32B3C, size: 0x8, addend: 0x0, symName: __ZNKSt3__16vectorIcNS_9allocatorIcEEE5emptyB7v160006Ev, symObjAddr: 0x18160, symBinAddr: 0x10001A7E0, symSize: 0x20 }
  - { offsetInCU: 0x32B62, offset: 0x32B62, size: 0x8, addend: 0x0, symName: __ZNKSt3__16vectorIcNS_9allocatorIcEEE5beginB7v160006Ev, symObjAddr: 0x18230, symBinAddr: 0x10001A8B0, symSize: 0x30 }
  - { offsetInCU: 0x32B8A, offset: 0x32B8A, size: 0x8, addend: 0x0, symName: __ZNKSt3__16vectorIcNS_9allocatorIcEEE3endB7v160006Ev, symObjAddr: 0x18260, symBinAddr: 0x10001A8E0, symSize: 0x30 }
  - { offsetInCU: 0x32BB2, offset: 0x32BB2, size: 0x8, addend: 0x0, symName: __ZNSt3__112basic_stringIcNS_11char_traitsIcEENS_9allocatorIcEEEC1B7v160006Emc, symObjAddr: 0x18290, symBinAddr: 0x10001A910, symSize: 0x30 }
  - { offsetInCU: 0x32BFA, offset: 0x32BFA, size: 0x8, addend: 0x0, symName: __ZNSt3__14pairIccEC2B7v160006ILb1ELPv0EEERKcS5_, symObjAddr: 0x182C0, symBinAddr: 0x10001A940, symSize: 0x30 }
  - { offsetInCU: 0x32C50, offset: 0x32C50, size: 0x8, addend: 0x0, symName: __ZNKSt3__112regex_traitsIcE20__lookup_collatenameIPcEENS_12basic_stringIcNS_11char_traitsIcEENS_9allocatorIcEEEET_SA_c, symObjAddr: 0x182F0, symBinAddr: 0x10001A970, symSize: 0x250 }
  - { offsetInCU: 0x32CFA, offset: 0x32CFA, size: 0x8, addend: 0x0, symName: __ZNSt3__112basic_stringIcNS_11char_traitsIcEENS_9allocatorIcEEEC1B7v160006IPcvEET_S8_, symObjAddr: 0x18540, symBinAddr: 0x10001ABC0, symSize: 0x30 }
  - { offsetInCU: 0x32D4C, offset: 0x32D4C, size: 0x8, addend: 0x0, symName: __ZNSt3__112basic_stringIcNS_11char_traitsIcEENS_9allocatorIcEEEC1B7v160006Ev, symObjAddr: 0x18570, symBinAddr: 0x10001ABF0, symSize: 0x20 }
  - { offsetInCU: 0x32D76, offset: 0x32D76, size: 0x8, addend: 0x0, symName: __ZNKSt3__112basic_stringIcNS_11char_traitsIcEENS_9allocatorIcEEE5c_strB7v160006Ev, symObjAddr: 0x18590, symBinAddr: 0x10001AC10, symSize: 0x20 }
  - { offsetInCU: 0x32D9C, offset: 0x32D9C, size: 0x8, addend: 0x0, symName: __ZNSt3__112basic_stringIcNS_11char_traitsIcEENS_9allocatorIcEEEaSB7v160006EOS5_, symObjAddr: 0x185B0, symBinAddr: 0x10001AC30, symSize: 0x30 }
  - { offsetInCU: 0x32DD1, offset: 0x32DD1, size: 0x8, addend: 0x0, symName: __ZNSt3__112basic_stringIcNS_11char_traitsIcEENS_9allocatorIcEEE4dataB7v160006Ev, symObjAddr: 0x185E0, symBinAddr: 0x10001AC60, symSize: 0x30 }
  - { offsetInCU: 0x32DF7, offset: 0x32DF7, size: 0x8, addend: 0x0, symName: __ZNSt3__112basic_stringIcNS_11char_traitsIcEENS_9allocatorIcEEE5clearB7v160006Ev, symObjAddr: 0x18610, symBinAddr: 0x10001AC90, symSize: 0xA0 }
  - { offsetInCU: 0x32E1F, offset: 0x32E1F, size: 0x8, addend: 0x0, symName: __ZNSt3__112basic_stringIcNS_11char_traitsIcEENS_9allocatorIcEEEC2B7v160006IPcvEET_S8_, symObjAddr: 0x186B0, symBinAddr: 0x10001AD30, symSize: 0x50 }
  - { offsetInCU: 0x32E71, offset: 0x32E71, size: 0x8, addend: 0x0, symName: __ZNSt3__112basic_stringIcNS_11char_traitsIcEENS_9allocatorIcEEE6__initIPcEENS_9enable_ifIXsr27__is_cpp17_forward_iteratorIT_EE5valueEvE4typeES9_S9_, symObjAddr: 0x18700, symBinAddr: 0x10001AD80, symSize: 0x150 }
  - { offsetInCU: 0x32EFB, offset: 0x32EFB, size: 0x8, addend: 0x0, symName: __ZNKSt3__112basic_stringIcNS_11char_traitsIcEENS_9allocatorIcEEE8max_sizeB7v160006Ev, symObjAddr: 0x18880, symBinAddr: 0x10001AF00, symSize: 0xA0 }
  - { offsetInCU: 0x32F4D, offset: 0x32F4D, size: 0x8, addend: 0x0, symName: __ZNKSt3__112basic_stringIcNS_11char_traitsIcEENS_9allocatorIcEEE20__throw_length_errorB7v160006Ev, symObjAddr: 0x18920, symBinAddr: 0x10001AFA0, symSize: 0x20 }
  - { offsetInCU: 0x32F73, offset: 0x32F73, size: 0x8, addend: 0x0, symName: __ZNSt3__112basic_stringIcNS_11char_traitsIcEENS_9allocatorIcEEE13__fits_in_ssoB7v160006Em, symObjAddr: 0x18940, symBinAddr: 0x10001AFC0, symSize: 0x20 }
  - { offsetInCU: 0x32F97, offset: 0x32F97, size: 0x8, addend: 0x0, symName: __ZNSt3__112basic_stringIcNS_11char_traitsIcEENS_9allocatorIcEEE16__set_short_sizeB7v160006Em, symObjAddr: 0x18960, symBinAddr: 0x10001AFE0, symSize: 0x50 }
  - { offsetInCU: 0x32FCC, offset: 0x32FCC, size: 0x8, addend: 0x0, symName: __ZNSt3__112basic_stringIcNS_11char_traitsIcEENS_9allocatorIcEEE19__get_short_pointerB7v160006Ev, symObjAddr: 0x189B0, symBinAddr: 0x10001B030, symSize: 0x30 }
  - { offsetInCU: 0x32FF2, offset: 0x32FF2, size: 0x8, addend: 0x0, symName: __ZNSt3__112basic_stringIcNS_11char_traitsIcEENS_9allocatorIcEEE7__allocB7v160006Ev, symObjAddr: 0x18A20, symBinAddr: 0x10001B0A0, symSize: 0x20 }
  - { offsetInCU: 0x33018, offset: 0x33018, size: 0x8, addend: 0x0, symName: __ZNSt3__112basic_stringIcNS_11char_traitsIcEENS_9allocatorIcEEE11__recommendB7v160006Em, symObjAddr: 0x18A40, symBinAddr: 0x10001B0C0, symSize: 0x70 }
  - { offsetInCU: 0x3304B, offset: 0x3304B, size: 0x8, addend: 0x0, symName: __ZNSt3__112basic_stringIcNS_11char_traitsIcEENS_9allocatorIcEEE16__begin_lifetimeB7v160006EPcm, symObjAddr: 0x18AB0, symBinAddr: 0x10001B130, symSize: 0x10 }
  - { offsetInCU: 0x3307E, offset: 0x3307E, size: 0x8, addend: 0x0, symName: __ZNSt3__112basic_stringIcNS_11char_traitsIcEENS_9allocatorIcEEE18__set_long_pointerB7v160006EPc, symObjAddr: 0x18AC0, symBinAddr: 0x10001B140, symSize: 0x30 }
  - { offsetInCU: 0x330B3, offset: 0x330B3, size: 0x8, addend: 0x0, symName: __ZNSt3__112basic_stringIcNS_11char_traitsIcEENS_9allocatorIcEEE14__set_long_capB7v160006Em, symObjAddr: 0x18AF0, symBinAddr: 0x10001B170, symSize: 0x70 }
  - { offsetInCU: 0x330E8, offset: 0x330E8, size: 0x8, addend: 0x0, symName: __ZNSt3__112basic_stringIcNS_11char_traitsIcEENS_9allocatorIcEEE15__set_long_sizeB7v160006Em, symObjAddr: 0x18B60, symBinAddr: 0x10001B1E0, symSize: 0x30 }
  - { offsetInCU: 0x3311D, offset: 0x3311D, size: 0x8, addend: 0x0, symName: __ZNSt3__111char_traitsIcE6assignERcRKc, symObjAddr: 0x18B90, symBinAddr: 0x10001B210, symSize: 0x20 }
  - { offsetInCU: 0x33158, offset: 0x33158, size: 0x8, addend: 0x0, symName: __ZNSt3__116allocator_traitsINS_9allocatorIcEEE8max_sizeB7v160006IS2_vvEEmRKS2_, symObjAddr: 0x18BD0, symBinAddr: 0x10001B250, symSize: 0x20 }
  - { offsetInCU: 0x33183, offset: 0x33183, size: 0x8, addend: 0x0, symName: __ZNKSt3__112basic_stringIcNS_11char_traitsIcEENS_9allocatorIcEEE7__allocB7v160006Ev, symObjAddr: 0x18BF0, symBinAddr: 0x10001B270, symSize: 0x20 }
  - { offsetInCU: 0x331A9, offset: 0x331A9, size: 0x8, addend: 0x0, symName: __ZNKSt3__117__compressed_pairINS_12basic_stringIcNS_11char_traitsIcEENS_9allocatorIcEEE5__repES5_E6secondB7v160006Ev, symObjAddr: 0x18C10, symBinAddr: 0x10001B290, symSize: 0x20 }
  - { offsetInCU: 0x331CF, offset: 0x331CF, size: 0x8, addend: 0x0, symName: __ZNKSt3__122__compressed_pair_elemINS_9allocatorIcEELi1ELb1EE5__getB7v160006Ev, symObjAddr: 0x18C30, symBinAddr: 0x10001B2B0, symSize: 0x10 }
  - { offsetInCU: 0x331F5, offset: 0x331F5, size: 0x8, addend: 0x0, symName: __ZNSt3__114pointer_traitsIPcE10pointer_toB7v160006ERc, symObjAddr: 0x18C40, symBinAddr: 0x10001B2C0, symSize: 0x10 }
  - { offsetInCU: 0x33218, offset: 0x33218, size: 0x8, addend: 0x0, symName: __ZNSt3__19allocatorIcE8allocateB7v160006Em, symObjAddr: 0x18C50, symBinAddr: 0x10001B2D0, symSize: 0x50 }
  - { offsetInCU: 0x3324C, offset: 0x3324C, size: 0x8, addend: 0x0, symName: __ZNSt3__117__compressed_pairINS_12basic_stringIcNS_11char_traitsIcEENS_9allocatorIcEEE5__repES5_E6secondB7v160006Ev, symObjAddr: 0x18CA0, symBinAddr: 0x10001B320, symSize: 0x20 }
  - { offsetInCU: 0x33272, offset: 0x33272, size: 0x8, addend: 0x0, symName: __ZNSt3__112basic_stringIcNS_11char_traitsIcEENS_9allocatorIcEEE10__align_itB7v160006ILm16EEEmm, symObjAddr: 0x18CC0, symBinAddr: 0x10001B340, symSize: 0x20 }
  - { offsetInCU: 0x332A0, offset: 0x332A0, size: 0x8, addend: 0x0, symName: __ZNSt3__112basic_stringIcNS_11char_traitsIcEENS_9allocatorIcEEEC2B7v160006Ev, symObjAddr: 0x18CE0, symBinAddr: 0x10001B360, symSize: 0x50 }
  - { offsetInCU: 0x332CA, offset: 0x332CA, size: 0x8, addend: 0x0, symName: __ZNSt3__112basic_stringIcNS_11char_traitsIcEENS_9allocatorIcEEE13__move_assignB7v160006ERS5_NS_17integral_constantIbLb1EEE, symObjAddr: 0x18D30, symBinAddr: 0x10001B3B0, symSize: 0xD0 }
  - { offsetInCU: 0x3330C, offset: 0x3330C, size: 0x8, addend: 0x0, symName: __ZNSt3__112basic_stringIcNS_11char_traitsIcEENS_9allocatorIcEEE18__get_long_pointerB7v160006Ev, symObjAddr: 0x18E00, symBinAddr: 0x10001B480, symSize: 0x20 }
  - { offsetInCU: 0x33332, offset: 0x33332, size: 0x8, addend: 0x0, symName: __ZNKSt3__112basic_stringIcNS_11char_traitsIcEENS_9allocatorIcEEE14__get_long_capB7v160006Ev, symObjAddr: 0x18E20, symBinAddr: 0x10001B4A0, symSize: 0x30 }
  - { offsetInCU: 0x33358, offset: 0x33358, size: 0x8, addend: 0x0, symName: __ZNSt3__112basic_stringIcNS_11char_traitsIcEENS_9allocatorIcEEE19__move_assign_allocB7v160006ERS5_, symObjAddr: 0x18E50, symBinAddr: 0x10001B4D0, symSize: 0x30 }
  - { offsetInCU: 0x3338D, offset: 0x3338D, size: 0x8, addend: 0x0, symName: __ZNSt3__112basic_stringIcNS_11char_traitsIcEENS_9allocatorIcEEE19__move_assign_allocB7v160006ERS5_NS_17integral_constantIbLb1EEE, symObjAddr: 0x18E80, symBinAddr: 0x10001B500, symSize: 0x30 }
  - { offsetInCU: 0x333CD, offset: 0x333CD, size: 0x8, addend: 0x0, symName: __ZNSt3__112basic_stringIcNS_11char_traitsIcEENS_9allocatorIcEEE13__get_pointerB7v160006Ev, symObjAddr: 0x18EB0, symBinAddr: 0x10001B530, symSize: 0x50 }
  - { offsetInCU: 0x333F3, offset: 0x333F3, size: 0x8, addend: 0x0, symName: __ZNSt3__120_CmpUnspecifiedParamC2B7v160006EMS0_i, symObjAddr: 0x18FA0, symBinAddr: 0x10001B620, symSize: 0x10 }
  - { offsetInCU: 0x33427, offset: 0x33427, size: 0x8, addend: 0x0, symName: __ZNKSt3__112regex_traitsIcE19__transform_primaryIPcEENS_12basic_stringIcNS_11char_traitsIcEENS_9allocatorIcEEEET_SA_c, symObjAddr: 0x18FB0, symBinAddr: 0x10001B630, symSize: 0x1D0 }
  - { offsetInCU: 0x334D1, offset: 0x334D1, size: 0x8, addend: 0x0, symName: __ZNSt3__112basic_stringIcNS_11char_traitsIcEENS_9allocatorIcEEEixB7v160006Em, symObjAddr: 0x19180, symBinAddr: 0x10001B800, symSize: 0x30 }
  - { offsetInCU: 0x33506, offset: 0x33506, size: 0x8, addend: 0x0, symName: __ZNKSt3__111__wrap_iterIPKcE4baseB7v160006Ev, symObjAddr: 0x191F0, symBinAddr: 0x10001B870, symSize: 0x20 }
  - { offsetInCU: 0x3352C, offset: 0x3352C, size: 0x8, addend: 0x0, symName: __ZNKSt3__111__wrap_iterIPKcEdeB7v160006Ev, symObjAddr: 0x19210, symBinAddr: 0x10001B890, symSize: 0x20 }
  - { offsetInCU: 0x33552, offset: 0x33552, size: 0x8, addend: 0x0, symName: __ZNSt3__111__wrap_iterIPKcEppB7v160006Ev, symObjAddr: 0x19230, symBinAddr: 0x10001B8B0, symSize: 0x20 }
  - { offsetInCU: 0x33578, offset: 0x33578, size: 0x8, addend: 0x0, symName: __ZNKSt3__16vectorIcNS_9allocatorIcEEE11__make_iterB7v160006EPKc, symObjAddr: 0x19250, symBinAddr: 0x10001B8D0, symSize: 0x30 }
  - { offsetInCU: 0x335AD, offset: 0x335AD, size: 0x8, addend: 0x0, symName: __ZNSt3__111__wrap_iterIPKcEC1B7v160006EPKvS2_, symObjAddr: 0x19280, symBinAddr: 0x10001B900, symSize: 0x30 }
  - { offsetInCU: 0x335F3, offset: 0x335F3, size: 0x8, addend: 0x0, symName: __ZNSt3__111__wrap_iterIPKcEC2B7v160006EPKvS2_, symObjAddr: 0x192B0, symBinAddr: 0x10001B930, symSize: 0x20 }
  - { offsetInCU: 0x33639, offset: 0x33639, size: 0x8, addend: 0x0, symName: __ZNSt3__112basic_stringIcNS_11char_traitsIcEENS_9allocatorIcEEEC2B7v160006Emc, symObjAddr: 0x192D0, symBinAddr: 0x10001B950, symSize: 0x50 }
  - { offsetInCU: 0x33681, offset: 0x33681, size: 0x8, addend: 0x0, symName: __ZNSt3__16vectorIcNS_9allocatorIcEEE9push_backB7v160006EOc, symObjAddr: 0x19320, symBinAddr: 0x10001B9A0, symSize: 0x60 }
  - { offsetInCU: 0x336B8, offset: 0x336B8, size: 0x8, addend: 0x0, symName: __ZNSt3__16vectorIcNS_9allocatorIcEEE9push_backB7v160006ERKc, symObjAddr: 0x19380, symBinAddr: 0x10001BA00, symSize: 0x60 }
  - { offsetInCU: 0x336EF, offset: 0x336EF, size: 0x8, addend: 0x0, symName: __ZNSt3__16vectorIcNS_9allocatorIcEEE9__end_capB7v160006Ev, symObjAddr: 0x193E0, symBinAddr: 0x10001BA60, symSize: 0x20 }
  - { offsetInCU: 0x3371A, offset: 0x3371A, size: 0x8, addend: 0x0, symName: __ZNSt3__16vectorIcNS_9allocatorIcEEE22__construct_one_at_endB7v160006IJcEEEvDpOT_, symObjAddr: 0x19400, symBinAddr: 0x10001BA80, symSize: 0x90 }
  - { offsetInCU: 0x33769, offset: 0x33769, size: 0x8, addend: 0x0, symName: __ZNSt3__16vectorIcNS_9allocatorIcEEE21__push_back_slow_pathIcEEvOT_, symObjAddr: 0x19490, symBinAddr: 0x10001BB10, symSize: 0xD0 }
  - { offsetInCU: 0x337C7, offset: 0x337C7, size: 0x8, addend: 0x0, symName: __ZNSt3__117__compressed_pairIPcNS_9allocatorIcEEE5firstB7v160006Ev, symObjAddr: 0x19560, symBinAddr: 0x10001BBE0, symSize: 0x20 }
  - { offsetInCU: 0x337ED, offset: 0x337ED, size: 0x8, addend: 0x0, symName: __ZNSt3__122__compressed_pair_elemIPcLi0ELb0EE5__getB7v160006Ev, symObjAddr: 0x19580, symBinAddr: 0x10001BC00, symSize: 0x10 }
  - { offsetInCU: 0x3382C, offset: 0x3382C, size: 0x8, addend: 0x0, symName: __ZNSt3__16vectorIcNS_9allocatorIcEEE21_ConstructTransactionC1B7v160006ERS3_m, symObjAddr: 0x19590, symBinAddr: 0x10001BC10, symSize: 0x30 }
  - { offsetInCU: 0x33874, offset: 0x33874, size: 0x8, addend: 0x0, symName: __ZNSt3__116allocator_traitsINS_9allocatorIcEEE9constructB7v160006IcJcEvvEEvRS2_PT_DpOT0_, symObjAddr: 0x195C0, symBinAddr: 0x10001BC40, symSize: 0x30 }
  - { offsetInCU: 0x338C8, offset: 0x338C8, size: 0x8, addend: 0x0, symName: __ZNSt3__16vectorIcNS_9allocatorIcEEE21_ConstructTransactionD1B7v160006Ev, symObjAddr: 0x195F0, symBinAddr: 0x10001BC70, symSize: 0x20 }
  - { offsetInCU: 0x338F2, offset: 0x338F2, size: 0x8, addend: 0x0, symName: __ZNSt3__16vectorIcNS_9allocatorIcEEE21_ConstructTransactionC2B7v160006ERS3_m, symObjAddr: 0x19610, symBinAddr: 0x10001BC90, symSize: 0x40 }
  - { offsetInCU: 0x3393A, offset: 0x3393A, size: 0x8, addend: 0x0, symName: __ZNSt3__16vectorIcNS_9allocatorIcEEE21_ConstructTransactionD2B7v160006Ev, symObjAddr: 0x19680, symBinAddr: 0x10001BD00, symSize: 0x20 }
  - { offsetInCU: 0x33964, offset: 0x33964, size: 0x8, addend: 0x0, symName: __ZNKSt3__16vectorIcNS_9allocatorIcEEE11__recommendB7v160006Em, symObjAddr: 0x196A0, symBinAddr: 0x10001BD20, symSize: 0xA0 }
  - { offsetInCU: 0x339B9, offset: 0x339B9, size: 0x8, addend: 0x0, symName: __ZNSt3__114__split_bufferIcRNS_9allocatorIcEEEC1EmmS3_, symObjAddr: 0x19740, symBinAddr: 0x10001BDC0, symSize: 0x40 }
  - { offsetInCU: 0x33A0F, offset: 0x33A0F, size: 0x8, addend: 0x0, symName: __ZNSt3__114__split_bufferIcRNS_9allocatorIcEEED1Ev, symObjAddr: 0x198B0, symBinAddr: 0x10001BF30, symSize: 0x20 }
  - { offsetInCU: 0x33A3B, offset: 0x33A3B, size: 0x8, addend: 0x0, symName: __ZNKSt3__16vectorIcNS_9allocatorIcEEE8max_sizeEv, symObjAddr: 0x198D0, symBinAddr: 0x10001BF50, symSize: 0x60 }
  - { offsetInCU: 0x33A63, offset: 0x33A63, size: 0x8, addend: 0x0, symName: __ZNKSt3__16vectorIcNS_9allocatorIcEEE20__throw_length_errorB7v160006Ev, symObjAddr: 0x19930, symBinAddr: 0x10001BFB0, symSize: 0x20 }
  - { offsetInCU: 0x33A89, offset: 0x33A89, size: 0x8, addend: 0x0, symName: __ZNKSt3__16vectorIcNS_9allocatorIcEEE7__allocB7v160006Ev, symObjAddr: 0x19950, symBinAddr: 0x10001BFD0, symSize: 0x20 }
  - { offsetInCU: 0x33AAF, offset: 0x33AAF, size: 0x8, addend: 0x0, symName: __ZNKSt3__117__compressed_pairIPcNS_9allocatorIcEEE6secondB7v160006Ev, symObjAddr: 0x19970, symBinAddr: 0x10001BFF0, symSize: 0x20 }
  - { offsetInCU: 0x33AD5, offset: 0x33AD5, size: 0x8, addend: 0x0, symName: __ZNSt3__114__split_bufferIcRNS_9allocatorIcEEEC2EmmS3_, symObjAddr: 0x19990, symBinAddr: 0x10001C010, symSize: 0xC0 }
  - { offsetInCU: 0x33B48, offset: 0x33B48, size: 0x8, addend: 0x0, symName: __ZNSt3__117__compressed_pairIPcRNS_9allocatorIcEEEC1B7v160006IDnS4_EEOT_OT0_, symObjAddr: 0x19A50, symBinAddr: 0x10001C0D0, symSize: 0x30 }
  - { offsetInCU: 0x33BA0, offset: 0x33BA0, size: 0x8, addend: 0x0, symName: __ZNSt3__114__split_bufferIcRNS_9allocatorIcEEE7__allocB7v160006Ev, symObjAddr: 0x19A80, symBinAddr: 0x10001C100, symSize: 0x20 }
  - { offsetInCU: 0x33BC6, offset: 0x33BC6, size: 0x8, addend: 0x0, symName: __ZNSt3__114__split_bufferIcRNS_9allocatorIcEEE9__end_capB7v160006Ev, symObjAddr: 0x19AA0, symBinAddr: 0x10001C120, symSize: 0x20 }
  - { offsetInCU: 0x33BEC, offset: 0x33BEC, size: 0x8, addend: 0x0, symName: __ZNSt3__117__compressed_pairIPcRNS_9allocatorIcEEEC2B7v160006IDnS4_EEOT_OT0_, symObjAddr: 0x19AC0, symBinAddr: 0x10001C140, symSize: 0x40 }
  - { offsetInCU: 0x33C44, offset: 0x33C44, size: 0x8, addend: 0x0, symName: __ZNSt3__122__compressed_pair_elemIRNS_9allocatorIcEELi1ELb0EEC2B7v160006IS3_vEEOT_, symObjAddr: 0x19B00, symBinAddr: 0x10001C180, symSize: 0x20 }
  - { offsetInCU: 0x33C86, offset: 0x33C86, size: 0x8, addend: 0x0, symName: __ZNSt3__117__compressed_pairIPcRNS_9allocatorIcEEE6secondB7v160006Ev, symObjAddr: 0x19B20, symBinAddr: 0x10001C1A0, symSize: 0x20 }
  - { offsetInCU: 0x33CAC, offset: 0x33CAC, size: 0x8, addend: 0x0, symName: __ZNSt3__122__compressed_pair_elemIRNS_9allocatorIcEELi1ELb0EE5__getB7v160006Ev, symObjAddr: 0x19B40, symBinAddr: 0x10001C1C0, symSize: 0x20 }
  - { offsetInCU: 0x33CD2, offset: 0x33CD2, size: 0x8, addend: 0x0, symName: __ZNSt3__117__compressed_pairIPcRNS_9allocatorIcEEE5firstB7v160006Ev, symObjAddr: 0x19B60, symBinAddr: 0x10001C1E0, symSize: 0x20 }
  - { offsetInCU: 0x33CF8, offset: 0x33CF8, size: 0x8, addend: 0x0, symName: __ZNSt3__116reverse_iteratorIPcEC1B7v160006ES1_, symObjAddr: 0x19BF0, symBinAddr: 0x10001C270, symSize: 0x30 }
  - { offsetInCU: 0x33D30, offset: 0x33D30, size: 0x8, addend: 0x0, symName: __ZNKSt3__116reverse_iteratorIPcE4baseB7v160006Ev, symObjAddr: 0x19C20, symBinAddr: 0x10001C2A0, symSize: 0x20 }
  - { offsetInCU: 0x33D56, offset: 0x33D56, size: 0x8, addend: 0x0, symName: __ZNKSt3__16vectorIcNS_9allocatorIcEEE14__annotate_newB7v160006Em, symObjAddr: 0x19C80, symBinAddr: 0x10001C300, symSize: 0xA0 }
  - { offsetInCU: 0x33DAE, offset: 0x33DAE, size: 0x8, addend: 0x0, symName: __ZNKSt3__111__move_loopINS_17_ClassicAlgPolicyEEclB7v160006INS_16reverse_iteratorIPcEES6_S6_EENS_4pairIT_T1_EES8_T0_S9_, symObjAddr: 0x1A140, symBinAddr: 0x10001C7C0, symSize: 0xA0 }
  - { offsetInCU: 0x33E19, offset: 0x33E19, size: 0x8, addend: 0x0, symName: __ZNSt3__119__unwrap_range_implINS_16reverse_iteratorIPcEES3_E8__unwrapB7v160006ES3_S3_, symObjAddr: 0x1A320, symBinAddr: 0x10001C9A0, symSize: 0x90 }
  - { offsetInCU: 0x33E4F, offset: 0x33E4F, size: 0x8, addend: 0x0, symName: __ZNSt3__14pairINS_16reverse_iteratorIPcEES3_EC1B7v160006IS3_S3_LPv0EEEOT_OT0_, symObjAddr: 0x1A3B0, symBinAddr: 0x10001CA30, symSize: 0x30 }
  - { offsetInCU: 0x33EAD, offset: 0x33EAD, size: 0x8, addend: 0x0, symName: __ZNSt3__14pairINS_16reverse_iteratorIPcEES3_EC2B7v160006IS3_S3_LPv0EEEOT_OT0_, symObjAddr: 0x1A3E0, symBinAddr: 0x10001CA60, symSize: 0x40 }
  - { offsetInCU: 0x33F0B, offset: 0x33F0B, size: 0x8, addend: 0x0, symName: __ZNSt3__18_IterOpsINS_17_ClassicAlgPolicyEE11__iter_moveB7v160006IRNS_16reverse_iteratorIPcEEEENS_9enable_ifIXsr12is_referenceIDTdeclsr3stdE7declvalIRT_EEEEE5valueEDTclsr3stdE4movedeclsr3stdE7declvalISA_EEEEE4typeEOS9_, symObjAddr: 0x1A460, symBinAddr: 0x10001CAE0, symSize: 0x20 }
  - { offsetInCU: 0x33F37, offset: 0x33F37, size: 0x8, addend: 0x0, symName: __ZNKSt3__116reverse_iteratorIPcEdeB7v160006Ev, symObjAddr: 0x1A480, symBinAddr: 0x10001CB00, symSize: 0x30 }
  - { offsetInCU: 0x33F6B, offset: 0x33F6B, size: 0x8, addend: 0x0, symName: __ZNSt3__116reverse_iteratorIPcEppB7v160006Ev, symObjAddr: 0x1A4B0, symBinAddr: 0x10001CB30, symSize: 0x20 }
  - { offsetInCU: 0x33F91, offset: 0x33F91, size: 0x8, addend: 0x0, symName: __ZNSt3__18_IterOpsINS_17_ClassicAlgPolicyEE25__validate_iter_referenceB7v160006IRNS_16reverse_iteratorIPcEEEEvv, symObjAddr: 0x1A4D0, symBinAddr: 0x10001CB50, symSize: 0x10 }
  - { offsetInCU: 0x33FAF, offset: 0x33FAF, size: 0x8, addend: 0x0, symName: __ZNSt3__118__unwrap_iter_implINS_16reverse_iteratorIPcEELb0EE8__unwrapB7v160006ES3_, symObjAddr: 0x1A4E0, symBinAddr: 0x10001CB60, symSize: 0x20 }
  - { offsetInCU: 0x33FD2, offset: 0x33FD2, size: 0x8, addend: 0x0, symName: __ZNSt3__119__unwrap_range_implINS_16reverse_iteratorIPcEES3_E8__rewrapB7v160006ES3_S3_, symObjAddr: 0x1A500, symBinAddr: 0x10001CB80, symSize: 0x60 }
  - { offsetInCU: 0x34003, offset: 0x34003, size: 0x8, addend: 0x0, symName: __ZNSt3__118__unwrap_iter_implINS_16reverse_iteratorIPcEELb0EE8__rewrapB7v160006ES3_S3_, symObjAddr: 0x1A560, symBinAddr: 0x10001CBE0, symSize: 0x30 }
  - { offsetInCU: 0x34030, offset: 0x34030, size: 0x8, addend: 0x0, symName: __ZNSt3__116reverse_iteratorIPcEC2B7v160006ES1_, symObjAddr: 0x1A590, symBinAddr: 0x10001CC10, symSize: 0x30 }
  - { offsetInCU: 0x34068, offset: 0x34068, size: 0x8, addend: 0x0, symName: __ZNSt3__114__split_bufferIcRNS_9allocatorIcEEED2Ev, symObjAddr: 0x1A5C0, symBinAddr: 0x10001CC40, symSize: 0x70 }
  - { offsetInCU: 0x34094, offset: 0x34094, size: 0x8, addend: 0x0, symName: __ZNSt3__114__split_bufferIcRNS_9allocatorIcEEE5clearB7v160006Ev, symObjAddr: 0x1A630, symBinAddr: 0x10001CCB0, symSize: 0x20 }
  - { offsetInCU: 0x340BA, offset: 0x340BA, size: 0x8, addend: 0x0, symName: __ZNKSt3__114__split_bufferIcRNS_9allocatorIcEEE8capacityB7v160006Ev, symObjAddr: 0x1A650, symBinAddr: 0x10001CCD0, symSize: 0x30 }
  - { offsetInCU: 0x340E0, offset: 0x340E0, size: 0x8, addend: 0x0, symName: __ZNSt3__114__split_bufferIcRNS_9allocatorIcEEE17__destruct_at_endB7v160006EPc, symObjAddr: 0x1A680, symBinAddr: 0x10001CD00, symSize: 0x30 }
  - { offsetInCU: 0x34114, offset: 0x34114, size: 0x8, addend: 0x0, symName: __ZNSt3__114__split_bufferIcRNS_9allocatorIcEEE17__destruct_at_endB7v160006EPcNS_17integral_constantIbLb0EEE, symObjAddr: 0x1A6B0, symBinAddr: 0x10001CD30, symSize: 0x80 }
  - { offsetInCU: 0x34154, offset: 0x34154, size: 0x8, addend: 0x0, symName: __ZNKSt3__114__split_bufferIcRNS_9allocatorIcEEE9__end_capB7v160006Ev, symObjAddr: 0x1A730, symBinAddr: 0x10001CDB0, symSize: 0x20 }
  - { offsetInCU: 0x3417A, offset: 0x3417A, size: 0x8, addend: 0x0, symName: __ZNKSt3__117__compressed_pairIPcRNS_9allocatorIcEEE5firstB7v160006Ev, symObjAddr: 0x1A750, symBinAddr: 0x10001CDD0, symSize: 0x20 }
  - { offsetInCU: 0x341A0, offset: 0x341A0, size: 0x8, addend: 0x0, symName: __ZNSt3__16vectorIcNS_9allocatorIcEEE22__construct_one_at_endB7v160006IJRKcEEEvDpOT_, symObjAddr: 0x1A770, symBinAddr: 0x10001CDF0, symSize: 0x90 }
  - { offsetInCU: 0x341EF, offset: 0x341EF, size: 0x8, addend: 0x0, symName: __ZNSt3__16vectorIcNS_9allocatorIcEEE21__push_back_slow_pathIRKcEEvOT_, symObjAddr: 0x1A800, symBinAddr: 0x10001CE80, symSize: 0xD0 }
  - { offsetInCU: 0x3424D, offset: 0x3424D, size: 0x8, addend: 0x0, symName: __ZNSt3__116allocator_traitsINS_9allocatorIcEEE9constructB7v160006IcJRKcEvvEEvRS2_PT_DpOT0_, symObjAddr: 0x1A8D0, symBinAddr: 0x10001CF50, symSize: 0x30 }
  - { offsetInCU: 0x342A1, offset: 0x342A1, size: 0x8, addend: 0x0, symName: __ZNKSt3__112regex_traitsIcE5valueB7v160006Eci, symObjAddr: 0x1A930, symBinAddr: 0x10001CFB0, symSize: 0x30 }
  - { offsetInCU: 0x342E5, offset: 0x342E5, size: 0x8, addend: 0x0, symName: __ZNKSt3__112regex_traitsIcE20__regex_traits_valueB7v160006Eci, symObjAddr: 0x1A960, symBinAddr: 0x10001CFE0, symSize: 0x30 }
  - { offsetInCU: 0x34329, offset: 0x34329, size: 0x8, addend: 0x0, symName: __ZNSt3__112regex_traitsIcE20__regex_traits_valueEhi, symObjAddr: 0x1A990, symBinAddr: 0x10001D010, symSize: 0xD0 }
  - { offsetInCU: 0x3435E, offset: 0x3435E, size: 0x8, addend: 0x0, symName: __ZNSt3__111basic_regexIcNS_12regex_traitsIcEEE19__parse_follow_listIPKcEET_S7_S7_PNS_20__bracket_expressionIcS2_EE, symObjAddr: 0x1AB20, symBinAddr: 0x10001D1A0, symSize: 0x80 }
  - { offsetInCU: 0x343D9, offset: 0x343D9, size: 0x8, addend: 0x0, symName: __ZNSt3__111basic_regexIcNS_12regex_traitsIcEEE23__parse_expression_termIPKcEET_S7_S7_PNS_20__bracket_expressionIcS2_EE, symObjAddr: 0x1ABA0, symBinAddr: 0x10001D220, symSize: 0x6D0 }
  - { offsetInCU: 0x34484, offset: 0x34484, size: 0x8, addend: 0x0, symName: __ZNSt3__111basic_regexIcNS_12regex_traitsIcEEE25__parse_equivalence_classIPKcEET_S7_S7_PNS_20__bracket_expressionIcS2_EE, symObjAddr: 0x1B270, symBinAddr: 0x10001D8F0, symSize: 0x270 }
  - { offsetInCU: 0x34520, offset: 0x34520, size: 0x8, addend: 0x0, symName: __ZNSt3__111basic_regexIcNS_12regex_traitsIcEEE23__parse_character_classIPKcEET_S7_S7_PNS_20__bracket_expressionIcS2_EE, symObjAddr: 0x1B4E0, symBinAddr: 0x10001DB60, symSize: 0xE0 }
  - { offsetInCU: 0x345B7, offset: 0x345B7, size: 0x8, addend: 0x0, symName: __ZNSt3__111basic_regexIcNS_12regex_traitsIcEEE24__parse_collating_symbolIPKcEET_S7_S7_RNS_12basic_stringIcNS_11char_traitsIcEENS_9allocatorIcEEEE, symObjAddr: 0x1B5C0, symBinAddr: 0x10001DC40, symSize: 0xD0 }
  - { offsetInCU: 0x34633, offset: 0x34633, size: 0x8, addend: 0x0, symName: __ZNSt3__111basic_regexIcNS_12regex_traitsIcEEE20__parse_class_escapeIPKcEET_S7_S7_RNS_12basic_stringIcNS_11char_traitsIcEENS_9allocatorIcEEEEPNS_20__bracket_expressionIcS2_EE, symObjAddr: 0x1B690, symBinAddr: 0x10001DD10, symSize: 0x230 }
  - { offsetInCU: 0x346A0, offset: 0x346A0, size: 0x8, addend: 0x0, symName: __ZNSt3__111basic_regexIcNS_12regex_traitsIcEEE18__parse_awk_escapeIPKcEET_S7_S7_PNS_12basic_stringIcNS_11char_traitsIcEENS_9allocatorIcEEEE, symObjAddr: 0x1B8C0, symBinAddr: 0x10001DF40, symSize: 0x4F0 }
  - { offsetInCU: 0x3471B, offset: 0x3471B, size: 0x8, addend: 0x0, symName: __ZNSt3__120__bracket_expressionIcNS_12regex_traitsIcEEE11__add_rangeB7v160006ENS_12basic_stringIcNS_11char_traitsIcEENS_9allocatorIcEEEES9_, symObjAddr: 0x1BDB0, symBinAddr: 0x10001E430, symSize: 0x590 }
  - { offsetInCU: 0x347D5, offset: 0x347D5, size: 0x8, addend: 0x0, symName: __ZNSt3__120__bracket_expressionIcNS_12regex_traitsIcEEE13__add_digraphB7v160006Ecc, symObjAddr: 0x1C340, symBinAddr: 0x10001E9C0, symSize: 0x120 }
  - { offsetInCU: 0x34819, offset: 0x34819, size: 0x8, addend: 0x0, symName: __ZNKSt3__112regex_traitsIcE18lookup_collatenameB7v160006IPKcEENS_12basic_stringIcNS_11char_traitsIcEENS_9allocatorIcEEEET_SB_, symObjAddr: 0x1C4A0, symBinAddr: 0x10001EB20, symSize: 0x40 }
  - { offsetInCU: 0x34866, offset: 0x34866, size: 0x8, addend: 0x0, symName: __ZNKSt3__112regex_traitsIcE17transform_primaryB7v160006INS_11__wrap_iterIPcEEEENS_12basic_stringIcNS_11char_traitsIcEENS_9allocatorIcEEEET_SC_, symObjAddr: 0x1C540, symBinAddr: 0x10001EBC0, symSize: 0x50 }
  - { offsetInCU: 0x348B3, offset: 0x348B3, size: 0x8, addend: 0x0, symName: __ZNSt3__112basic_stringIcNS_11char_traitsIcEENS_9allocatorIcEEE5beginB7v160006Ev, symObjAddr: 0x1C590, symBinAddr: 0x10001EC10, symSize: 0x50 }
  - { offsetInCU: 0x348D9, offset: 0x348D9, size: 0x8, addend: 0x0, symName: __ZNSt3__112basic_stringIcNS_11char_traitsIcEENS_9allocatorIcEEE3endB7v160006Ev, symObjAddr: 0x1C5E0, symBinAddr: 0x10001EC60, symSize: 0x50 }
  - { offsetInCU: 0x348FF, offset: 0x348FF, size: 0x8, addend: 0x0, symName: __ZNSt3__120__bracket_expressionIcNS_12regex_traitsIcEEE17__add_equivalenceB7v160006ERKNS_12basic_stringIcNS_11char_traitsIcEENS_9allocatorIcEEEE, symObjAddr: 0x1C630, symBinAddr: 0x10001ECB0, symSize: 0x30 }
  - { offsetInCU: 0x34939, offset: 0x34939, size: 0x8, addend: 0x0, symName: __ZNSt3__14pairIPKcS2_EC1B7v160006IRS2_S5_LPv0EEEOT_OT0_, symObjAddr: 0x1C980, symBinAddr: 0x10001F000, symSize: 0x30 }
  - { offsetInCU: 0x34997, offset: 0x34997, size: 0x8, addend: 0x0, symName: __ZNSt3__14pairIPKcS2_EC2B7v160006IRS2_S5_LPv0EEEOT_OT0_, symObjAddr: 0x1C9B0, symBinAddr: 0x10001F030, symSize: 0x30 }
  - { offsetInCU: 0x349F5, offset: 0x349F5, size: 0x8, addend: 0x0, symName: __ZNSt3__18_IterOpsINS_17_ClassicAlgPolicyEE12__advance_toB7v160006IPKcEEvRT_S6_, symObjAddr: 0x1C9E0, symBinAddr: 0x10001F060, symSize: 0x20 }
  - { offsetInCU: 0x34A39, offset: 0x34A39, size: 0x8, addend: 0x0, symName: __ZNKSt3__110__identityclIRKcEEOT_S5_, symObjAddr: 0x1CAC0, symBinAddr: 0x10001F140, symSize: 0x20 }
  - { offsetInCU: 0x34A76, offset: 0x34A76, size: 0x8, addend: 0x0, symName: __ZNKSt3__110__identityclIRcEEOT_S4_, symObjAddr: 0x1CAE0, symBinAddr: 0x10001F160, symSize: 0x20 }
  - { offsetInCU: 0x34AB8, offset: 0x34AB8, size: 0x8, addend: 0x0, symName: __ZNSt3__14pairIPKcS2_EC1B7v160006IRS2_S2_LPv0EEEOT_OT0_, symObjAddr: 0x1CB00, symBinAddr: 0x10001F180, symSize: 0x30 }
  - { offsetInCU: 0x34B16, offset: 0x34B16, size: 0x8, addend: 0x0, symName: __ZNSt3__14pairIPKcS2_EC2B7v160006IRS2_S2_LPv0EEEOT_OT0_, symObjAddr: 0x1CB30, symBinAddr: 0x10001F1B0, symSize: 0x30 }
  - { offsetInCU: 0x34B74, offset: 0x34B74, size: 0x8, addend: 0x0, symName: __ZNKSt3__112regex_traitsIcE20__lookup_collatenameIPKcEENS_12basic_stringIcNS_11char_traitsIcEENS_9allocatorIcEEEET_SB_c, symObjAddr: 0x1CB60, symBinAddr: 0x10001F1E0, symSize: 0x250 }
  - { offsetInCU: 0x34C1E, offset: 0x34C1E, size: 0x8, addend: 0x0, symName: __ZNSt3__112basic_stringIcNS_11char_traitsIcEENS_9allocatorIcEEEC1B7v160006IPKcvEET_S9_, symObjAddr: 0x1CDB0, symBinAddr: 0x10001F430, symSize: 0x30 }
  - { offsetInCU: 0x34C70, offset: 0x34C70, size: 0x8, addend: 0x0, symName: __ZNSt3__112basic_stringIcNS_11char_traitsIcEENS_9allocatorIcEEEC2B7v160006IPKcvEET_S9_, symObjAddr: 0x1CDE0, symBinAddr: 0x10001F460, symSize: 0x50 }
  - { offsetInCU: 0x34CC2, offset: 0x34CC2, size: 0x8, addend: 0x0, symName: __ZNSt3__112basic_stringIcNS_11char_traitsIcEENS_9allocatorIcEEE6__initIPKcEENS_9enable_ifIXsr27__is_cpp17_forward_iteratorIT_EE5valueEvE4typeESA_SA_, symObjAddr: 0x1CE30, symBinAddr: 0x10001F4B0, symSize: 0x150 }
  - { offsetInCU: 0x34D4C, offset: 0x34D4C, size: 0x8, addend: 0x0, symName: __ZNKSt3__112regex_traitsIcE19__transform_primaryINS_11__wrap_iterIPcEEEENS_12basic_stringIcNS_11char_traitsIcEENS_9allocatorIcEEEET_SC_c, symObjAddr: 0x1CFD0, symBinAddr: 0x10001F650, symSize: 0x1E0 }
  - { offsetInCU: 0x34DF6, offset: 0x34DF6, size: 0x8, addend: 0x0, symName: __ZNSt3__112basic_stringIcNS_11char_traitsIcEENS_9allocatorIcEEEC1B7v160006INS_11__wrap_iterIPcEEvEET_SA_, symObjAddr: 0x1D1B0, symBinAddr: 0x10001F830, symSize: 0x30 }
  - { offsetInCU: 0x34E48, offset: 0x34E48, size: 0x8, addend: 0x0, symName: __ZNSt3__112basic_stringIcNS_11char_traitsIcEENS_9allocatorIcEEEC2B7v160006INS_11__wrap_iterIPcEEvEET_SA_, symObjAddr: 0x1D1E0, symBinAddr: 0x10001F860, symSize: 0x60 }
  - { offsetInCU: 0x34E9A, offset: 0x34E9A, size: 0x8, addend: 0x0, symName: __ZNSt3__112basic_stringIcNS_11char_traitsIcEENS_9allocatorIcEEE6__initINS_11__wrap_iterIPcEEEENS_9enable_ifIXsr27__is_cpp17_forward_iteratorIT_EE5valueEvE4typeESB_SB_, symObjAddr: 0x1D240, symBinAddr: 0x10001F8C0, symSize: 0x180 }
  - { offsetInCU: 0x34F25, offset: 0x34F25, size: 0x8, addend: 0x0, symName: __ZNKSt3__111__wrap_iterIPcEdeB7v160006Ev, symObjAddr: 0x1D430, symBinAddr: 0x10001FAB0, symSize: 0x20 }
  - { offsetInCU: 0x34F4B, offset: 0x34F4B, size: 0x8, addend: 0x0, symName: __ZNSt3__111__wrap_iterIPcEppB7v160006Ev, symObjAddr: 0x1D450, symBinAddr: 0x10001FAD0, symSize: 0x20 }
  - { offsetInCU: 0x34F71, offset: 0x34F71, size: 0x8, addend: 0x0, symName: __ZNKSt3__111__wrap_iterIPcE4baseB7v160006Ev, symObjAddr: 0x1D4E0, symBinAddr: 0x10001FB60, symSize: 0x20 }
  - { offsetInCU: 0x34F97, offset: 0x34F97, size: 0x8, addend: 0x0, symName: __ZNSt3__112basic_stringIcNS_11char_traitsIcEENS_9allocatorIcEEE15__make_iteratorB7v160006EPc, symObjAddr: 0x1D540, symBinAddr: 0x10001FBC0, symSize: 0x30 }
  - { offsetInCU: 0x34FCC, offset: 0x34FCC, size: 0x8, addend: 0x0, symName: __ZNSt3__111__wrap_iterIPcEC1B7v160006EPKvS1_, symObjAddr: 0x1D570, symBinAddr: 0x10001FBF0, symSize: 0x30 }
  - { offsetInCU: 0x35012, offset: 0x35012, size: 0x8, addend: 0x0, symName: __ZNSt3__111__wrap_iterIPcEC2B7v160006EPKvS1_, symObjAddr: 0x1D5A0, symBinAddr: 0x10001FC20, symSize: 0x20 }
  - { offsetInCU: 0x35058, offset: 0x35058, size: 0x8, addend: 0x0, symName: __ZNSt3__16vectorINS_12basic_stringIcNS_11char_traitsIcEENS_9allocatorIcEEEENS4_IS6_EEE9push_backB7v160006ERKS6_, symObjAddr: 0x1D5C0, symBinAddr: 0x10001FC40, symSize: 0x60 }
  - { offsetInCU: 0x3508F, offset: 0x3508F, size: 0x8, addend: 0x0, symName: __ZNSt3__16vectorINS_12basic_stringIcNS_11char_traitsIcEENS_9allocatorIcEEEENS4_IS6_EEE22__construct_one_at_endB7v160006IJRKS6_EEEvDpOT_, symObjAddr: 0x1D620, symBinAddr: 0x10001FCA0, symSize: 0x90 }
  - { offsetInCU: 0x350DE, offset: 0x350DE, size: 0x8, addend: 0x0, symName: __ZNSt3__16vectorINS_12basic_stringIcNS_11char_traitsIcEENS_9allocatorIcEEEENS4_IS6_EEE21__push_back_slow_pathIRKS6_EEvOT_, symObjAddr: 0x1D6B0, symBinAddr: 0x10001FD30, symSize: 0xD0 }
  - { offsetInCU: 0x3513C, offset: 0x3513C, size: 0x8, addend: 0x0, symName: __ZNSt3__116allocator_traitsINS_9allocatorINS_12basic_stringIcNS_11char_traitsIcEENS1_IcEEEEEEE9constructB7v160006IS6_JRKS6_EvvEEvRS7_PT_DpOT0_, symObjAddr: 0x1D780, symBinAddr: 0x10001FE00, symSize: 0x30 }
  - { offsetInCU: 0x35190, offset: 0x35190, size: 0x8, addend: 0x0, symName: __ZNKSt3__112regex_traitsIcE16lookup_classnameB7v160006IPKcEEjT_S5_b, symObjAddr: 0x1D7F0, symBinAddr: 0x10001FE70, symSize: 0x40 }
  - { offsetInCU: 0x351EC, offset: 0x351EC, size: 0x8, addend: 0x0, symName: __ZNKSt3__112regex_traitsIcE18__lookup_classnameIPKcEEjT_S5_bc, symObjAddr: 0x1D890, symBinAddr: 0x10001FF10, symSize: 0xF0 }
  - { offsetInCU: 0x35264, offset: 0x35264, size: 0x8, addend: 0x0, symName: __ZNKSt3__15ctypeIcE7tolowerB7v160006EPcPKc, symObjAddr: 0x1D980, symBinAddr: 0x100020000, symSize: 0x30 }
  - { offsetInCU: 0x352A8, offset: 0x352A8, size: 0x8, addend: 0x0, symName: __ZNSt3__120__bracket_expressionIcNS_12regex_traitsIcEEE15__add_neg_classB7v160006Ej, symObjAddr: 0x1D9B0, symBinAddr: 0x100020030, symSize: 0x20 }
  - { offsetInCU: 0x352DD, offset: 0x352DD, size: 0x8, addend: 0x0, symName: __ZNSt3__120__bracket_expressionIcNS_12regex_traitsIcEEE14__add_neg_charB7v160006Ec, symObjAddr: 0x1D9D0, symBinAddr: 0x100020050, symSize: 0xC0 }
  - { offsetInCU: 0x35312, offset: 0x35312, size: 0x8, addend: 0x0, symName: __ZNSt3__16vectorINS_4pairINS_12basic_stringIcNS_11char_traitsIcEENS_9allocatorIcEEEES7_EENS5_IS8_EEE9push_backB7v160006EOS8_, symObjAddr: 0x1DA90, symBinAddr: 0x100020110, symSize: 0x60 }
  - { offsetInCU: 0x35349, offset: 0x35349, size: 0x8, addend: 0x0, symName: __ZNKSt3__112regex_traitsIcE9transformINS_11__wrap_iterIPcEEEENS_12basic_stringIcNS_11char_traitsIcEENS_9allocatorIcEEEET_SC_, symObjAddr: 0x1DB30, symBinAddr: 0x1000201B0, symSize: 0x130 }
  - { offsetInCU: 0x353D7, offset: 0x353D7, size: 0x8, addend: 0x0, symName: __ZNSt3__16vectorINS_4pairINS_12basic_stringIcNS_11char_traitsIcEENS_9allocatorIcEEEES7_EENS5_IS8_EEE9__end_capB7v160006Ev, symObjAddr: 0x1DCC0, symBinAddr: 0x100020340, symSize: 0x20 }
  - { offsetInCU: 0x353FD, offset: 0x353FD, size: 0x8, addend: 0x0, symName: __ZNSt3__16vectorINS_4pairINS_12basic_stringIcNS_11char_traitsIcEENS_9allocatorIcEEEES7_EENS5_IS8_EEE22__construct_one_at_endB7v160006IJS8_EEEvDpOT_, symObjAddr: 0x1DCE0, symBinAddr: 0x100020360, symSize: 0x90 }
  - { offsetInCU: 0x3544C, offset: 0x3544C, size: 0x8, addend: 0x0, symName: __ZNSt3__16vectorINS_4pairINS_12basic_stringIcNS_11char_traitsIcEENS_9allocatorIcEEEES7_EENS5_IS8_EEE21__push_back_slow_pathIS8_EEvOT_, symObjAddr: 0x1DD70, symBinAddr: 0x1000203F0, symSize: 0xD0 }
  - { offsetInCU: 0x354AA, offset: 0x354AA, size: 0x8, addend: 0x0, symName: __ZNSt3__117__compressed_pairIPNS_4pairINS_12basic_stringIcNS_11char_traitsIcEENS_9allocatorIcEEEES7_EENS5_IS8_EEE5firstB7v160006Ev, symObjAddr: 0x1DE40, symBinAddr: 0x1000204C0, symSize: 0x20 }
  - { offsetInCU: 0x354D0, offset: 0x354D0, size: 0x8, addend: 0x0, symName: __ZNSt3__122__compressed_pair_elemIPNS_4pairINS_12basic_stringIcNS_11char_traitsIcEENS_9allocatorIcEEEES7_EELi0ELb0EE5__getB7v160006Ev, symObjAddr: 0x1DE60, symBinAddr: 0x1000204E0, symSize: 0x10 }
  - { offsetInCU: 0x3550F, offset: 0x3550F, size: 0x8, addend: 0x0, symName: __ZNSt3__16vectorINS_4pairINS_12basic_stringIcNS_11char_traitsIcEENS_9allocatorIcEEEES7_EENS5_IS8_EEE21_ConstructTransactionC1B7v160006ERSA_m, symObjAddr: 0x1DE70, symBinAddr: 0x1000204F0, symSize: 0x30 }
  - { offsetInCU: 0x35557, offset: 0x35557, size: 0x8, addend: 0x0, symName: __ZNSt3__116allocator_traitsINS_9allocatorINS_4pairINS_12basic_stringIcNS_11char_traitsIcEENS1_IcEEEES7_EEEEE9constructB7v160006IS8_JS8_EvvEEvRS9_PT_DpOT0_, symObjAddr: 0x1DEA0, symBinAddr: 0x100020520, symSize: 0x30 }
  - { offsetInCU: 0x355AB, offset: 0x355AB, size: 0x8, addend: 0x0, symName: __ZNSt3__16vectorINS_4pairINS_12basic_stringIcNS_11char_traitsIcEENS_9allocatorIcEEEES7_EENS5_IS8_EEE21_ConstructTransactionD1B7v160006Ev, symObjAddr: 0x1DED0, symBinAddr: 0x100020550, symSize: 0x20 }
  - { offsetInCU: 0x355D5, offset: 0x355D5, size: 0x8, addend: 0x0, symName: __ZNSt3__16vectorINS_4pairINS_12basic_stringIcNS_11char_traitsIcEENS_9allocatorIcEEEES7_EENS5_IS8_EEE21_ConstructTransactionC2B7v160006ERSA_m, symObjAddr: 0x1DEF0, symBinAddr: 0x100020570, symSize: 0x40 }
  - { offsetInCU: 0x3561D, offset: 0x3561D, size: 0x8, addend: 0x0, symName: __ZNSt3__14pairINS_12basic_stringIcNS_11char_traitsIcEENS_9allocatorIcEEEES6_EC1EOS7_, symObjAddr: 0x1DF70, symBinAddr: 0x1000205F0, symSize: 0x30 }
  - { offsetInCU: 0x35651, offset: 0x35651, size: 0x8, addend: 0x0, symName: __ZNSt3__14pairINS_12basic_stringIcNS_11char_traitsIcEENS_9allocatorIcEEEES6_EC2EOS7_, symObjAddr: 0x1DFA0, symBinAddr: 0x100020620, symSize: 0x40 }
  - { offsetInCU: 0x35685, offset: 0x35685, size: 0x8, addend: 0x0, symName: __ZNSt3__16vectorINS_4pairINS_12basic_stringIcNS_11char_traitsIcEENS_9allocatorIcEEEES7_EENS5_IS8_EEE21_ConstructTransactionD2B7v160006Ev, symObjAddr: 0x1DFE0, symBinAddr: 0x100020660, symSize: 0x20 }
  - { offsetInCU: 0x356AF, offset: 0x356AF, size: 0x8, addend: 0x0, symName: __ZNKSt3__16vectorINS_4pairINS_12basic_stringIcNS_11char_traitsIcEENS_9allocatorIcEEEES7_EENS5_IS8_EEE11__recommendB7v160006Em, symObjAddr: 0x1E000, symBinAddr: 0x100020680, symSize: 0xA0 }
  - { offsetInCU: 0x35704, offset: 0x35704, size: 0x8, addend: 0x0, symName: __ZNSt3__114__split_bufferINS_4pairINS_12basic_stringIcNS_11char_traitsIcEENS_9allocatorIcEEEES7_EERNS5_IS8_EEEC1EmmSA_, symObjAddr: 0x1E0A0, symBinAddr: 0x100020720, symSize: 0x40 }
  - { offsetInCU: 0x3575A, offset: 0x3575A, size: 0x8, addend: 0x0, symName: __ZNSt3__114__split_bufferINS_4pairINS_12basic_stringIcNS_11char_traitsIcEENS_9allocatorIcEEEES7_EERNS5_IS8_EEED1Ev, symObjAddr: 0x1E210, symBinAddr: 0x100020890, symSize: 0x20 }
  - { offsetInCU: 0x35786, offset: 0x35786, size: 0x8, addend: 0x0, symName: __ZNKSt3__16vectorINS_4pairINS_12basic_stringIcNS_11char_traitsIcEENS_9allocatorIcEEEES7_EENS5_IS8_EEE8max_sizeEv, symObjAddr: 0x1E230, symBinAddr: 0x1000208B0, symSize: 0x60 }
  - { offsetInCU: 0x357AE, offset: 0x357AE, size: 0x8, addend: 0x0, symName: __ZNKSt3__16vectorINS_4pairINS_12basic_stringIcNS_11char_traitsIcEENS_9allocatorIcEEEES7_EENS5_IS8_EEE20__throw_length_errorB7v160006Ev, symObjAddr: 0x1E290, symBinAddr: 0x100020910, symSize: 0x20 }
  - { offsetInCU: 0x357DE, offset: 0x357DE, size: 0x8, addend: 0x0, symName: __ZNSt3__116allocator_traitsINS_9allocatorINS_4pairINS_12basic_stringIcNS_11char_traitsIcEENS1_IcEEEES7_EEEEE8max_sizeB7v160006IS9_vvEEmRKS9_, symObjAddr: 0x1E2B0, symBinAddr: 0x100020930, symSize: 0x30 }
  - { offsetInCU: 0x35809, offset: 0x35809, size: 0x8, addend: 0x0, symName: __ZNKSt3__16vectorINS_4pairINS_12basic_stringIcNS_11char_traitsIcEENS_9allocatorIcEEEES7_EENS5_IS8_EEE7__allocB7v160006Ev, symObjAddr: 0x1E2E0, symBinAddr: 0x100020960, symSize: 0x20 }
  - { offsetInCU: 0x3582F, offset: 0x3582F, size: 0x8, addend: 0x0, symName: __ZNKSt3__117__compressed_pairIPNS_4pairINS_12basic_stringIcNS_11char_traitsIcEENS_9allocatorIcEEEES7_EENS5_IS8_EEE6secondB7v160006Ev, symObjAddr: 0x1E300, symBinAddr: 0x100020980, symSize: 0x20 }
  - { offsetInCU: 0x35855, offset: 0x35855, size: 0x8, addend: 0x0, symName: __ZNKSt3__122__compressed_pair_elemINS_9allocatorINS_4pairINS_12basic_stringIcNS_11char_traitsIcEENS1_IcEEEES7_EEEELi1ELb1EE5__getB7v160006Ev, symObjAddr: 0x1E320, symBinAddr: 0x1000209A0, symSize: 0x10 }
  - { offsetInCU: 0x3587B, offset: 0x3587B, size: 0x8, addend: 0x0, symName: __ZNSt3__114__split_bufferINS_4pairINS_12basic_stringIcNS_11char_traitsIcEENS_9allocatorIcEEEES7_EERNS5_IS8_EEEC2EmmSA_, symObjAddr: 0x1E330, symBinAddr: 0x1000209B0, symSize: 0xC0 }
  - { offsetInCU: 0x358EE, offset: 0x358EE, size: 0x8, addend: 0x0, symName: __ZNSt3__117__compressed_pairIPNS_4pairINS_12basic_stringIcNS_11char_traitsIcEENS_9allocatorIcEEEES7_EERNS5_IS8_EEEC1B7v160006IDnSB_EEOT_OT0_, symObjAddr: 0x1E3F0, symBinAddr: 0x100020A70, symSize: 0x30 }
  - { offsetInCU: 0x35946, offset: 0x35946, size: 0x8, addend: 0x0, symName: __ZNSt3__114__split_bufferINS_4pairINS_12basic_stringIcNS_11char_traitsIcEENS_9allocatorIcEEEES7_EERNS5_IS8_EEE7__allocB7v160006Ev, symObjAddr: 0x1E460, symBinAddr: 0x100020AE0, symSize: 0x20 }
  - { offsetInCU: 0x3596C, offset: 0x3596C, size: 0x8, addend: 0x0, symName: __ZNSt3__114__split_bufferINS_4pairINS_12basic_stringIcNS_11char_traitsIcEENS_9allocatorIcEEEES7_EERNS5_IS8_EEE9__end_capB7v160006Ev, symObjAddr: 0x1E480, symBinAddr: 0x100020B00, symSize: 0x20 }
  - { offsetInCU: 0x35992, offset: 0x35992, size: 0x8, addend: 0x0, symName: __ZNSt3__117__compressed_pairIPNS_4pairINS_12basic_stringIcNS_11char_traitsIcEENS_9allocatorIcEEEES7_EERNS5_IS8_EEEC2B7v160006IDnSB_EEOT_OT0_, symObjAddr: 0x1E4A0, symBinAddr: 0x100020B20, symSize: 0x40 }
  - { offsetInCU: 0x359EA, offset: 0x359EA, size: 0x8, addend: 0x0, symName: __ZNSt3__122__compressed_pair_elemIRNS_9allocatorINS_4pairINS_12basic_stringIcNS_11char_traitsIcEENS1_IcEEEES7_EEEELi1ELb0EEC2B7v160006ISA_vEEOT_, symObjAddr: 0x1E4E0, symBinAddr: 0x100020B60, symSize: 0x20 }
  - { offsetInCU: 0x35A2C, offset: 0x35A2C, size: 0x8, addend: 0x0, symName: __ZNSt3__19allocatorINS_4pairINS_12basic_stringIcNS_11char_traitsIcEENS0_IcEEEES6_EEE8allocateB7v160006Em, symObjAddr: 0x1E500, symBinAddr: 0x100020B80, symSize: 0x50 }
  - { offsetInCU: 0x35A60, offset: 0x35A60, size: 0x8, addend: 0x0, symName: __ZNSt3__117__compressed_pairIPNS_4pairINS_12basic_stringIcNS_11char_traitsIcEENS_9allocatorIcEEEES7_EERNS5_IS8_EEE6secondB7v160006Ev, symObjAddr: 0x1E550, symBinAddr: 0x100020BD0, symSize: 0x20 }
  - { offsetInCU: 0x35A86, offset: 0x35A86, size: 0x8, addend: 0x0, symName: __ZNSt3__122__compressed_pair_elemIRNS_9allocatorINS_4pairINS_12basic_stringIcNS_11char_traitsIcEENS1_IcEEEES7_EEEELi1ELb0EE5__getB7v160006Ev, symObjAddr: 0x1E570, symBinAddr: 0x100020BF0, symSize: 0x20 }
  - { offsetInCU: 0x35AAC, offset: 0x35AAC, size: 0x8, addend: 0x0, symName: __ZNSt3__117__compressed_pairIPNS_4pairINS_12basic_stringIcNS_11char_traitsIcEENS_9allocatorIcEEEES7_EERNS5_IS8_EEE5firstB7v160006Ev, symObjAddr: 0x1E590, symBinAddr: 0x100020C10, symSize: 0x20 }
  - { offsetInCU: 0x35AD2, offset: 0x35AD2, size: 0x8, addend: 0x0, symName: __ZNSt3__116reverse_iteratorIPNS_4pairINS_12basic_stringIcNS_11char_traitsIcEENS_9allocatorIcEEEES7_EEEC1B7v160006ES9_, symObjAddr: 0x1E730, symBinAddr: 0x100020DB0, symSize: 0x30 }
  - { offsetInCU: 0x35B0A, offset: 0x35B0A, size: 0x8, addend: 0x0, symName: __ZNKSt3__116reverse_iteratorIPNS_4pairINS_12basic_stringIcNS_11char_traitsIcEENS_9allocatorIcEEEES7_EEE4baseB7v160006Ev, symObjAddr: 0x1E760, symBinAddr: 0x100020DE0, symSize: 0x20 }
  - { offsetInCU: 0x35B30, offset: 0x35B30, size: 0x8, addend: 0x0, symName: __ZNKSt3__16vectorINS_4pairINS_12basic_stringIcNS_11char_traitsIcEENS_9allocatorIcEEEES7_EENS5_IS8_EEE14__annotate_newB7v160006Em, symObjAddr: 0x1E7C0, symBinAddr: 0x100020E40, symSize: 0xA0 }
  - { offsetInCU: 0x35B65, offset: 0x35B65, size: 0x8, addend: 0x0, symName: __ZNSt3__129_AllocatorDestroyRangeReverseINS_9allocatorINS_4pairINS_12basic_stringIcNS_11char_traitsIcEENS1_IcEEEES7_EEEENS_16reverse_iteratorIPS8_EEEC1B7v160006ERS9_RSC_SF_, symObjAddr: 0x1E8D0, symBinAddr: 0x100020F50, symSize: 0x40 }
  - { offsetInCU: 0x35BBC, offset: 0x35BBC, size: 0x8, addend: 0x0, symName: __ZNKSt3__116reverse_iteratorIPNS_4pairINS_12basic_stringIcNS_11char_traitsIcEENS_9allocatorIcEEEES7_EEEdeB7v160006Ev, symObjAddr: 0x1E970, symBinAddr: 0x100020FF0, symSize: 0x30 }
  - { offsetInCU: 0x35BF0, offset: 0x35BF0, size: 0x8, addend: 0x0, symName: __ZNSt3__116reverse_iteratorIPNS_4pairINS_12basic_stringIcNS_11char_traitsIcEENS_9allocatorIcEEEES7_EEEppB7v160006Ev, symObjAddr: 0x1E9A0, symBinAddr: 0x100021020, symSize: 0x20 }
  - { offsetInCU: 0x35C16, offset: 0x35C16, size: 0x8, addend: 0x0, symName: __ZNSt3__128__exception_guard_exceptionsINS_29_AllocatorDestroyRangeReverseINS_9allocatorINS_4pairINS_12basic_stringIcNS_11char_traitsIcEENS2_IcEEEES8_EEEENS_16reverse_iteratorIPS9_EEEEE10__completeB7v160006Ev, symObjAddr: 0x1E9C0, symBinAddr: 0x100021040, symSize: 0x20 }
  - { offsetInCU: 0x35C3C, offset: 0x35C3C, size: 0x8, addend: 0x0, symName: __ZNSt3__128__exception_guard_exceptionsINS_29_AllocatorDestroyRangeReverseINS_9allocatorINS_4pairINS_12basic_stringIcNS_11char_traitsIcEENS2_IcEEEES8_EEEENS_16reverse_iteratorIPS9_EEEEED1B7v160006Ev, symObjAddr: 0x1E9E0, symBinAddr: 0x100021060, symSize: 0x20 }
  - { offsetInCU: 0x35C66, offset: 0x35C66, size: 0x8, addend: 0x0, symName: __ZNSt3__128__exception_guard_exceptionsINS_29_AllocatorDestroyRangeReverseINS_9allocatorINS_4pairINS_12basic_stringIcNS_11char_traitsIcEENS2_IcEEEES8_EEEENS_16reverse_iteratorIPS9_EEEEEC1B7v160006ESE_, symObjAddr: 0x1EA00, symBinAddr: 0x100021080, symSize: 0x40 }
  - { offsetInCU: 0x35C9E, offset: 0x35C9E, size: 0x8, addend: 0x0, symName: __ZNSt3__128__exception_guard_exceptionsINS_29_AllocatorDestroyRangeReverseINS_9allocatorINS_4pairINS_12basic_stringIcNS_11char_traitsIcEENS2_IcEEEES8_EEEENS_16reverse_iteratorIPS9_EEEEEC2B7v160006ESE_, symObjAddr: 0x1EA40, symBinAddr: 0x1000210C0, symSize: 0x30 }
  - { offsetInCU: 0x35CD6, offset: 0x35CD6, size: 0x8, addend: 0x0, symName: __ZNSt3__129_AllocatorDestroyRangeReverseINS_9allocatorINS_4pairINS_12basic_stringIcNS_11char_traitsIcEENS1_IcEEEES7_EEEENS_16reverse_iteratorIPS8_EEEC2B7v160006ERS9_RSC_SF_, symObjAddr: 0x1EA70, symBinAddr: 0x1000210F0, symSize: 0x40 }
  - { offsetInCU: 0x35D32, offset: 0x35D32, size: 0x8, addend: 0x0, symName: __ZNSt3__119__to_address_helperINS_16reverse_iteratorIPNS_4pairINS_12basic_stringIcNS_11char_traitsIcEENS_9allocatorIcEEEES8_EEEEvE6__callB7v160006ERKSB_, symObjAddr: 0x1EAB0, symBinAddr: 0x100021130, symSize: 0x40 }
  - { offsetInCU: 0x35D55, offset: 0x35D55, size: 0x8, addend: 0x0, symName: __ZNKSt3__116reverse_iteratorIPNS_4pairINS_12basic_stringIcNS_11char_traitsIcEENS_9allocatorIcEEEES7_EEEptB7v160006Ev, symObjAddr: 0x1EAF0, symBinAddr: 0x100021170, symSize: 0x30 }
  - { offsetInCU: 0x35D7B, offset: 0x35D7B, size: 0x8, addend: 0x0, symName: __ZNSt3__128__exception_guard_exceptionsINS_29_AllocatorDestroyRangeReverseINS_9allocatorINS_4pairINS_12basic_stringIcNS_11char_traitsIcEENS2_IcEEEES8_EEEENS_16reverse_iteratorIPS9_EEEEED2B7v160006Ev, symObjAddr: 0x1EBE0, symBinAddr: 0x100021260, symSize: 0x40 }
  - { offsetInCU: 0x35DA5, offset: 0x35DA5, size: 0x8, addend: 0x0, symName: __ZNKSt3__129_AllocatorDestroyRangeReverseINS_9allocatorINS_4pairINS_12basic_stringIcNS_11char_traitsIcEENS1_IcEEEES7_EEEENS_16reverse_iteratorIPS8_EEEclB7v160006Ev, symObjAddr: 0x1EC20, symBinAddr: 0x1000212A0, symSize: 0xF0 }
  - { offsetInCU: 0x35DCC, offset: 0x35DCC, size: 0x8, addend: 0x0, symName: __ZNSt3__116reverse_iteratorINS0_IPNS_4pairINS_12basic_stringIcNS_11char_traitsIcEENS_9allocatorIcEEEES7_EEEEEC1B7v160006ESA_, symObjAddr: 0x1ED80, symBinAddr: 0x100021400, symSize: 0x30 }
  - { offsetInCU: 0x35E04, offset: 0x35E04, size: 0x8, addend: 0x0, symName: __ZNSt3__116reverse_iteratorINS0_IPNS_4pairINS_12basic_stringIcNS_11char_traitsIcEENS_9allocatorIcEEEES7_EEEEEppB7v160006Ev, symObjAddr: 0x1EE20, symBinAddr: 0x1000214A0, symSize: 0x30 }
  - { offsetInCU: 0x35E2A, offset: 0x35E2A, size: 0x8, addend: 0x0, symName: __ZNKSt3__116reverse_iteratorINS0_IPNS_4pairINS_12basic_stringIcNS_11char_traitsIcEENS_9allocatorIcEEEES7_EEEEE4baseB7v160006Ev, symObjAddr: 0x1EE50, symBinAddr: 0x1000214D0, symSize: 0x20 }
  - { offsetInCU: 0x35E55, offset: 0x35E55, size: 0x8, addend: 0x0, symName: __ZNSt3__119__to_address_helperINS_16reverse_iteratorINS1_IPNS_4pairINS_12basic_stringIcNS_11char_traitsIcEENS_9allocatorIcEEEES8_EEEEEEvE6__callB7v160006ERKSC_, symObjAddr: 0x1EE70, symBinAddr: 0x1000214F0, symSize: 0x40 }
  - { offsetInCU: 0x35E78, offset: 0x35E78, size: 0x8, addend: 0x0, symName: __ZNKSt3__116reverse_iteratorINS0_IPNS_4pairINS_12basic_stringIcNS_11char_traitsIcEENS_9allocatorIcEEEES7_EEEEEptB7v160006Ev, symObjAddr: 0x1EEB0, symBinAddr: 0x100021530, symSize: 0x50 }
  - { offsetInCU: 0x35E9E, offset: 0x35E9E, size: 0x8, addend: 0x0, symName: __ZNSt3__116reverse_iteratorIPNS_4pairINS_12basic_stringIcNS_11char_traitsIcEENS_9allocatorIcEEEES7_EEEpLB7v160006El, symObjAddr: 0x1EFE0, symBinAddr: 0x100021660, symSize: 0x30 }
  - { offsetInCU: 0x35ED2, offset: 0x35ED2, size: 0x8, addend: 0x0, symName: __ZNSt3__116reverse_iteratorIPNS_4pairINS_12basic_stringIcNS_11char_traitsIcEENS_9allocatorIcEEEES7_EEEmmB7v160006Ev, symObjAddr: 0x1F010, symBinAddr: 0x100021690, symSize: 0x20 }
  - { offsetInCU: 0x35EF8, offset: 0x35EF8, size: 0x8, addend: 0x0, symName: __ZNSt3__116reverse_iteratorINS0_IPNS_4pairINS_12basic_stringIcNS_11char_traitsIcEENS_9allocatorIcEEEES7_EEEEEC2B7v160006ESA_, symObjAddr: 0x1F030, symBinAddr: 0x1000216B0, symSize: 0x40 }
  - { offsetInCU: 0x35F30, offset: 0x35F30, size: 0x8, addend: 0x0, symName: __ZNSt3__116reverse_iteratorIPNS_4pairINS_12basic_stringIcNS_11char_traitsIcEENS_9allocatorIcEEEES7_EEEC2B7v160006ES9_, symObjAddr: 0x1F070, symBinAddr: 0x1000216F0, symSize: 0x30 }
  - { offsetInCU: 0x35F68, offset: 0x35F68, size: 0x8, addend: 0x0, symName: __ZNSt3__114__split_bufferINS_4pairINS_12basic_stringIcNS_11char_traitsIcEENS_9allocatorIcEEEES7_EERNS5_IS8_EEED2Ev, symObjAddr: 0x1F0A0, symBinAddr: 0x100021720, symSize: 0x70 }
  - { offsetInCU: 0x35F94, offset: 0x35F94, size: 0x8, addend: 0x0, symName: __ZNSt3__114__split_bufferINS_4pairINS_12basic_stringIcNS_11char_traitsIcEENS_9allocatorIcEEEES7_EERNS5_IS8_EEE5clearB7v160006Ev, symObjAddr: 0x1F110, symBinAddr: 0x100021790, symSize: 0x20 }
  - { offsetInCU: 0x35FBA, offset: 0x35FBA, size: 0x8, addend: 0x0, symName: __ZNKSt3__114__split_bufferINS_4pairINS_12basic_stringIcNS_11char_traitsIcEENS_9allocatorIcEEEES7_EERNS5_IS8_EEE8capacityB7v160006Ev, symObjAddr: 0x1F130, symBinAddr: 0x1000217B0, symSize: 0x40 }
  - { offsetInCU: 0x35FE0, offset: 0x35FE0, size: 0x8, addend: 0x0, symName: __ZNSt3__114__split_bufferINS_4pairINS_12basic_stringIcNS_11char_traitsIcEENS_9allocatorIcEEEES7_EERNS5_IS8_EEE17__destruct_at_endB7v160006EPS8_, symObjAddr: 0x1F170, symBinAddr: 0x1000217F0, symSize: 0x30 }
  - { offsetInCU: 0x36014, offset: 0x36014, size: 0x8, addend: 0x0, symName: __ZNSt3__114__split_bufferINS_4pairINS_12basic_stringIcNS_11char_traitsIcEENS_9allocatorIcEEEES7_EERNS5_IS8_EEE17__destruct_at_endB7v160006EPS8_NS_17integral_constantIbLb0EEE, symObjAddr: 0x1F1A0, symBinAddr: 0x100021820, symSize: 0x80 }
  - { offsetInCU: 0x36054, offset: 0x36054, size: 0x8, addend: 0x0, symName: __ZNKSt3__114__split_bufferINS_4pairINS_12basic_stringIcNS_11char_traitsIcEENS_9allocatorIcEEEES7_EERNS5_IS8_EEE9__end_capB7v160006Ev, symObjAddr: 0x1F220, symBinAddr: 0x1000218A0, symSize: 0x20 }
  - { offsetInCU: 0x3607A, offset: 0x3607A, size: 0x8, addend: 0x0, symName: __ZNKSt3__117__compressed_pairIPNS_4pairINS_12basic_stringIcNS_11char_traitsIcEENS_9allocatorIcEEEES7_EERNS5_IS8_EEE5firstB7v160006Ev, symObjAddr: 0x1F240, symBinAddr: 0x1000218C0, symSize: 0x20 }
  - { offsetInCU: 0x360A0, offset: 0x360A0, size: 0x8, addend: 0x0, symName: __ZNSt3__14pairINS_12basic_stringIcNS_11char_traitsIcEENS_9allocatorIcEEEES6_EC1B7v160006IS6_S6_LPv0EEEOT_OT0_, symObjAddr: 0x1F260, symBinAddr: 0x1000218E0, symSize: 0x30 }
  - { offsetInCU: 0x360FE, offset: 0x360FE, size: 0x8, addend: 0x0, symName: __ZNSt3__14pairINS_12basic_stringIcNS_11char_traitsIcEENS_9allocatorIcEEEES6_EC2B7v160006IS6_S6_LPv0EEEOT_OT0_, symObjAddr: 0x1F290, symBinAddr: 0x100021910, symSize: 0x40 }
  - { offsetInCU: 0x3615C, offset: 0x3615C, size: 0x8, addend: 0x0, symName: __ZNSt3__16vectorINS_4pairIccEENS_9allocatorIS2_EEE9push_backB7v160006EOS2_, symObjAddr: 0x1F2D0, symBinAddr: 0x100021950, symSize: 0x60 }
  - { offsetInCU: 0x36193, offset: 0x36193, size: 0x8, addend: 0x0, symName: __ZNSt3__16vectorINS_4pairIccEENS_9allocatorIS2_EEE9__end_capB7v160006Ev, symObjAddr: 0x1F390, symBinAddr: 0x100021A10, symSize: 0x20 }
  - { offsetInCU: 0x361B9, offset: 0x361B9, size: 0x8, addend: 0x0, symName: __ZNSt3__16vectorINS_4pairIccEENS_9allocatorIS2_EEE22__construct_one_at_endB7v160006IJS2_EEEvDpOT_, symObjAddr: 0x1F3B0, symBinAddr: 0x100021A30, symSize: 0x90 }
  - { offsetInCU: 0x36208, offset: 0x36208, size: 0x8, addend: 0x0, symName: __ZNSt3__16vectorINS_4pairIccEENS_9allocatorIS2_EEE21__push_back_slow_pathIS2_EEvOT_, symObjAddr: 0x1F440, symBinAddr: 0x100021AC0, symSize: 0xD0 }
  - { offsetInCU: 0x36266, offset: 0x36266, size: 0x8, addend: 0x0, symName: __ZNSt3__117__compressed_pairIPNS_4pairIccEENS_9allocatorIS2_EEE5firstB7v160006Ev, symObjAddr: 0x1F510, symBinAddr: 0x100021B90, symSize: 0x20 }
  - { offsetInCU: 0x3628C, offset: 0x3628C, size: 0x8, addend: 0x0, symName: __ZNSt3__122__compressed_pair_elemIPNS_4pairIccEELi0ELb0EE5__getB7v160006Ev, symObjAddr: 0x1F530, symBinAddr: 0x100021BB0, symSize: 0x10 }
  - { offsetInCU: 0x362CB, offset: 0x362CB, size: 0x8, addend: 0x0, symName: __ZNSt3__16vectorINS_4pairIccEENS_9allocatorIS2_EEE21_ConstructTransactionC1B7v160006ERS5_m, symObjAddr: 0x1F540, symBinAddr: 0x100021BC0, symSize: 0x30 }
  - { offsetInCU: 0x36313, offset: 0x36313, size: 0x8, addend: 0x0, symName: __ZNSt3__116allocator_traitsINS_9allocatorINS_4pairIccEEEEE9constructB7v160006IS3_JS3_EvvEEvRS4_PT_DpOT0_, symObjAddr: 0x1F570, symBinAddr: 0x100021BF0, symSize: 0x30 }
  - { offsetInCU: 0x36367, offset: 0x36367, size: 0x8, addend: 0x0, symName: __ZNSt3__16vectorINS_4pairIccEENS_9allocatorIS2_EEE21_ConstructTransactionD1B7v160006Ev, symObjAddr: 0x1F5A0, symBinAddr: 0x100021C20, symSize: 0x20 }
  - { offsetInCU: 0x36391, offset: 0x36391, size: 0x8, addend: 0x0, symName: __ZNSt3__16vectorINS_4pairIccEENS_9allocatorIS2_EEE21_ConstructTransactionC2B7v160006ERS5_m, symObjAddr: 0x1F5C0, symBinAddr: 0x100021C40, symSize: 0x40 }
  - { offsetInCU: 0x363D9, offset: 0x363D9, size: 0x8, addend: 0x0, symName: __ZNSt3__16vectorINS_4pairIccEENS_9allocatorIS2_EEE21_ConstructTransactionD2B7v160006Ev, symObjAddr: 0x1F630, symBinAddr: 0x100021CB0, symSize: 0x20 }
  - { offsetInCU: 0x36403, offset: 0x36403, size: 0x8, addend: 0x0, symName: __ZNKSt3__16vectorINS_4pairIccEENS_9allocatorIS2_EEE11__recommendB7v160006Em, symObjAddr: 0x1F650, symBinAddr: 0x100021CD0, symSize: 0xA0 }
  - { offsetInCU: 0x36458, offset: 0x36458, size: 0x8, addend: 0x0, symName: __ZNSt3__114__split_bufferINS_4pairIccEERNS_9allocatorIS2_EEEC1EmmS5_, symObjAddr: 0x1F6F0, symBinAddr: 0x100021D70, symSize: 0x40 }
  - { offsetInCU: 0x364AE, offset: 0x364AE, size: 0x8, addend: 0x0, symName: __ZNSt3__114__split_bufferINS_4pairIccEERNS_9allocatorIS2_EEED1Ev, symObjAddr: 0x1F860, symBinAddr: 0x100021EE0, symSize: 0x20 }
  - { offsetInCU: 0x364DA, offset: 0x364DA, size: 0x8, addend: 0x0, symName: __ZNKSt3__16vectorINS_4pairIccEENS_9allocatorIS2_EEE8max_sizeEv, symObjAddr: 0x1F880, symBinAddr: 0x100021F00, symSize: 0x60 }
  - { offsetInCU: 0x36502, offset: 0x36502, size: 0x8, addend: 0x0, symName: __ZNKSt3__16vectorINS_4pairIccEENS_9allocatorIS2_EEE20__throw_length_errorB7v160006Ev, symObjAddr: 0x1F8E0, symBinAddr: 0x100021F60, symSize: 0x20 }
  - { offsetInCU: 0x36532, offset: 0x36532, size: 0x8, addend: 0x0, symName: __ZNSt3__116allocator_traitsINS_9allocatorINS_4pairIccEEEEE8max_sizeB7v160006IS4_vvEEmRKS4_, symObjAddr: 0x1F900, symBinAddr: 0x100021F80, symSize: 0x20 }
  - { offsetInCU: 0x3655D, offset: 0x3655D, size: 0x8, addend: 0x0, symName: __ZNKSt3__16vectorINS_4pairIccEENS_9allocatorIS2_EEE7__allocB7v160006Ev, symObjAddr: 0x1F920, symBinAddr: 0x100021FA0, symSize: 0x20 }
  - { offsetInCU: 0x36583, offset: 0x36583, size: 0x8, addend: 0x0, symName: __ZNKSt3__117__compressed_pairIPNS_4pairIccEENS_9allocatorIS2_EEE6secondB7v160006Ev, symObjAddr: 0x1F940, symBinAddr: 0x100021FC0, symSize: 0x20 }
  - { offsetInCU: 0x365A9, offset: 0x365A9, size: 0x8, addend: 0x0, symName: __ZNKSt3__122__compressed_pair_elemINS_9allocatorINS_4pairIccEEEELi1ELb1EE5__getB7v160006Ev, symObjAddr: 0x1F960, symBinAddr: 0x100021FE0, symSize: 0x10 }
  - { offsetInCU: 0x365CF, offset: 0x365CF, size: 0x8, addend: 0x0, symName: __ZNSt3__114__split_bufferINS_4pairIccEERNS_9allocatorIS2_EEEC2EmmS5_, symObjAddr: 0x1F970, symBinAddr: 0x100021FF0, symSize: 0xD0 }
  - { offsetInCU: 0x36642, offset: 0x36642, size: 0x8, addend: 0x0, symName: __ZNSt3__117__compressed_pairIPNS_4pairIccEERNS_9allocatorIS2_EEEC1B7v160006IDnS6_EEOT_OT0_, symObjAddr: 0x1FA40, symBinAddr: 0x1000220C0, symSize: 0x30 }
  - { offsetInCU: 0x3669A, offset: 0x3669A, size: 0x8, addend: 0x0, symName: __ZNSt3__114__split_bufferINS_4pairIccEERNS_9allocatorIS2_EEE7__allocB7v160006Ev, symObjAddr: 0x1FAB0, symBinAddr: 0x100022130, symSize: 0x20 }
  - { offsetInCU: 0x366C0, offset: 0x366C0, size: 0x8, addend: 0x0, symName: __ZNSt3__114__split_bufferINS_4pairIccEERNS_9allocatorIS2_EEE9__end_capB7v160006Ev, symObjAddr: 0x1FAD0, symBinAddr: 0x100022150, symSize: 0x20 }
  - { offsetInCU: 0x366E6, offset: 0x366E6, size: 0x8, addend: 0x0, symName: __ZNSt3__117__compressed_pairIPNS_4pairIccEERNS_9allocatorIS2_EEEC2B7v160006IDnS6_EEOT_OT0_, symObjAddr: 0x1FAF0, symBinAddr: 0x100022170, symSize: 0x40 }
  - { offsetInCU: 0x3673E, offset: 0x3673E, size: 0x8, addend: 0x0, symName: __ZNSt3__122__compressed_pair_elemIRNS_9allocatorINS_4pairIccEEEELi1ELb0EEC2B7v160006IS5_vEEOT_, symObjAddr: 0x1FB30, symBinAddr: 0x1000221B0, symSize: 0x20 }
  - { offsetInCU: 0x36780, offset: 0x36780, size: 0x8, addend: 0x0, symName: __ZNSt3__19allocatorINS_4pairIccEEE8allocateB7v160006Em, symObjAddr: 0x1FB50, symBinAddr: 0x1000221D0, symSize: 0x50 }
  - { offsetInCU: 0x367B4, offset: 0x367B4, size: 0x8, addend: 0x0, symName: __ZNSt3__117__compressed_pairIPNS_4pairIccEERNS_9allocatorIS2_EEE6secondB7v160006Ev, symObjAddr: 0x1FBA0, symBinAddr: 0x100022220, symSize: 0x20 }
  - { offsetInCU: 0x367DA, offset: 0x367DA, size: 0x8, addend: 0x0, symName: __ZNSt3__122__compressed_pair_elemIRNS_9allocatorINS_4pairIccEEEELi1ELb0EE5__getB7v160006Ev, symObjAddr: 0x1FBC0, symBinAddr: 0x100022240, symSize: 0x20 }
  - { offsetInCU: 0x36800, offset: 0x36800, size: 0x8, addend: 0x0, symName: __ZNSt3__117__compressed_pairIPNS_4pairIccEERNS_9allocatorIS2_EEE5firstB7v160006Ev, symObjAddr: 0x1FBE0, symBinAddr: 0x100022260, symSize: 0x20 }
  - { offsetInCU: 0x36826, offset: 0x36826, size: 0x8, addend: 0x0, symName: __ZNSt3__116reverse_iteratorIPNS_4pairIccEEEC1B7v160006ES3_, symObjAddr: 0x1FD80, symBinAddr: 0x100022400, symSize: 0x30 }
  - { offsetInCU: 0x3685E, offset: 0x3685E, size: 0x8, addend: 0x0, symName: __ZNKSt3__116reverse_iteratorIPNS_4pairIccEEE4baseB7v160006Ev, symObjAddr: 0x1FDB0, symBinAddr: 0x100022430, symSize: 0x20 }
  - { offsetInCU: 0x36884, offset: 0x36884, size: 0x8, addend: 0x0, symName: __ZNKSt3__16vectorINS_4pairIccEENS_9allocatorIS2_EEE14__annotate_newB7v160006Em, symObjAddr: 0x1FE10, symBinAddr: 0x100022490, symSize: 0xB0 }
  - { offsetInCU: 0x368B9, offset: 0x368B9, size: 0x8, addend: 0x0, symName: __ZNSt3__129_AllocatorDestroyRangeReverseINS_9allocatorINS_4pairIccEEEENS_16reverse_iteratorIPS3_EEEC1B7v160006ERS4_RS7_SA_, symObjAddr: 0x1FF30, symBinAddr: 0x1000225B0, symSize: 0x40 }
  - { offsetInCU: 0x36910, offset: 0x36910, size: 0x8, addend: 0x0, symName: __ZNKSt3__116reverse_iteratorIPNS_4pairIccEEEdeB7v160006Ev, symObjAddr: 0x1FFD0, symBinAddr: 0x100022650, symSize: 0x30 }
  - { offsetInCU: 0x36944, offset: 0x36944, size: 0x8, addend: 0x0, symName: __ZNSt3__116reverse_iteratorIPNS_4pairIccEEEppB7v160006Ev, symObjAddr: 0x20000, symBinAddr: 0x100022680, symSize: 0x20 }
  - { offsetInCU: 0x3696A, offset: 0x3696A, size: 0x8, addend: 0x0, symName: __ZNSt3__128__exception_guard_exceptionsINS_29_AllocatorDestroyRangeReverseINS_9allocatorINS_4pairIccEEEENS_16reverse_iteratorIPS4_EEEEE10__completeB7v160006Ev, symObjAddr: 0x20020, symBinAddr: 0x1000226A0, symSize: 0x20 }
  - { offsetInCU: 0x36990, offset: 0x36990, size: 0x8, addend: 0x0, symName: __ZNSt3__128__exception_guard_exceptionsINS_29_AllocatorDestroyRangeReverseINS_9allocatorINS_4pairIccEEEENS_16reverse_iteratorIPS4_EEEEED1B7v160006Ev, symObjAddr: 0x20040, symBinAddr: 0x1000226C0, symSize: 0x20 }
  - { offsetInCU: 0x369BA, offset: 0x369BA, size: 0x8, addend: 0x0, symName: __ZNSt3__128__exception_guard_exceptionsINS_29_AllocatorDestroyRangeReverseINS_9allocatorINS_4pairIccEEEENS_16reverse_iteratorIPS4_EEEEEC1B7v160006ES9_, symObjAddr: 0x20060, symBinAddr: 0x1000226E0, symSize: 0x40 }
  - { offsetInCU: 0x369F2, offset: 0x369F2, size: 0x8, addend: 0x0, symName: __ZNSt3__128__exception_guard_exceptionsINS_29_AllocatorDestroyRangeReverseINS_9allocatorINS_4pairIccEEEENS_16reverse_iteratorIPS4_EEEEEC2B7v160006ES9_, symObjAddr: 0x200A0, symBinAddr: 0x100022720, symSize: 0x30 }
  - { offsetInCU: 0x36A2A, offset: 0x36A2A, size: 0x8, addend: 0x0, symName: __ZNSt3__129_AllocatorDestroyRangeReverseINS_9allocatorINS_4pairIccEEEENS_16reverse_iteratorIPS3_EEEC2B7v160006ERS4_RS7_SA_, symObjAddr: 0x200D0, symBinAddr: 0x100022750, symSize: 0x40 }
  - { offsetInCU: 0x36A86, offset: 0x36A86, size: 0x8, addend: 0x0, symName: __ZNSt3__119__to_address_helperINS_16reverse_iteratorIPNS_4pairIccEEEEvE6__callB7v160006ERKS5_, symObjAddr: 0x20110, symBinAddr: 0x100022790, symSize: 0x40 }
  - { offsetInCU: 0x36AA9, offset: 0x36AA9, size: 0x8, addend: 0x0, symName: __ZNKSt3__116reverse_iteratorIPNS_4pairIccEEEptB7v160006Ev, symObjAddr: 0x20150, symBinAddr: 0x1000227D0, symSize: 0x30 }
  - { offsetInCU: 0x36ACF, offset: 0x36ACF, size: 0x8, addend: 0x0, symName: __ZNSt3__128__exception_guard_exceptionsINS_29_AllocatorDestroyRangeReverseINS_9allocatorINS_4pairIccEEEENS_16reverse_iteratorIPS4_EEEEED2B7v160006Ev, symObjAddr: 0x20240, symBinAddr: 0x1000228C0, symSize: 0x40 }
  - { offsetInCU: 0x36AF9, offset: 0x36AF9, size: 0x8, addend: 0x0, symName: __ZNKSt3__129_AllocatorDestroyRangeReverseINS_9allocatorINS_4pairIccEEEENS_16reverse_iteratorIPS3_EEEclB7v160006Ev, symObjAddr: 0x20280, symBinAddr: 0x100022900, symSize: 0xF0 }
  - { offsetInCU: 0x36B20, offset: 0x36B20, size: 0x8, addend: 0x0, symName: __ZNSt3__116reverse_iteratorINS0_IPNS_4pairIccEEEEEC1B7v160006ES4_, symObjAddr: 0x203E0, symBinAddr: 0x100022A60, symSize: 0x30 }
  - { offsetInCU: 0x36B58, offset: 0x36B58, size: 0x8, addend: 0x0, symName: __ZNSt3__116reverse_iteratorINS0_IPNS_4pairIccEEEEEppB7v160006Ev, symObjAddr: 0x20480, symBinAddr: 0x100022B00, symSize: 0x30 }
  - { offsetInCU: 0x36B7E, offset: 0x36B7E, size: 0x8, addend: 0x0, symName: __ZNKSt3__116reverse_iteratorINS0_IPNS_4pairIccEEEEE4baseB7v160006Ev, symObjAddr: 0x204B0, symBinAddr: 0x100022B30, symSize: 0x20 }
  - { offsetInCU: 0x36BA9, offset: 0x36BA9, size: 0x8, addend: 0x0, symName: __ZNSt3__119__to_address_helperINS_16reverse_iteratorINS1_IPNS_4pairIccEEEEEEvE6__callB7v160006ERKS6_, symObjAddr: 0x204D0, symBinAddr: 0x100022B50, symSize: 0x40 }
  - { offsetInCU: 0x36BCC, offset: 0x36BCC, size: 0x8, addend: 0x0, symName: __ZNKSt3__116reverse_iteratorINS0_IPNS_4pairIccEEEEEptB7v160006Ev, symObjAddr: 0x20510, symBinAddr: 0x100022B90, symSize: 0x50 }
  - { offsetInCU: 0x36BF2, offset: 0x36BF2, size: 0x8, addend: 0x0, symName: __ZNSt3__116reverse_iteratorIPNS_4pairIccEEEpLB7v160006El, symObjAddr: 0x20640, symBinAddr: 0x100022CC0, symSize: 0x30 }
  - { offsetInCU: 0x36C26, offset: 0x36C26, size: 0x8, addend: 0x0, symName: __ZNSt3__116reverse_iteratorIPNS_4pairIccEEEmmB7v160006Ev, symObjAddr: 0x20670, symBinAddr: 0x100022CF0, symSize: 0x20 }
  - { offsetInCU: 0x36C4C, offset: 0x36C4C, size: 0x8, addend: 0x0, symName: __ZNSt3__116reverse_iteratorINS0_IPNS_4pairIccEEEEEC2B7v160006ES4_, symObjAddr: 0x20690, symBinAddr: 0x100022D10, symSize: 0x40 }
  - { offsetInCU: 0x36C84, offset: 0x36C84, size: 0x8, addend: 0x0, symName: __ZNSt3__116reverse_iteratorIPNS_4pairIccEEEC2B7v160006ES3_, symObjAddr: 0x206D0, symBinAddr: 0x100022D50, symSize: 0x30 }
  - { offsetInCU: 0x36CBC, offset: 0x36CBC, size: 0x8, addend: 0x0, symName: __ZNSt3__114__split_bufferINS_4pairIccEERNS_9allocatorIS2_EEED2Ev, symObjAddr: 0x20700, symBinAddr: 0x100022D80, symSize: 0x70 }
  - { offsetInCU: 0x36CE8, offset: 0x36CE8, size: 0x8, addend: 0x0, symName: __ZNSt3__114__split_bufferINS_4pairIccEERNS_9allocatorIS2_EEE5clearB7v160006Ev, symObjAddr: 0x20770, symBinAddr: 0x100022DF0, symSize: 0x20 }
  - { offsetInCU: 0x36D0E, offset: 0x36D0E, size: 0x8, addend: 0x0, symName: __ZNKSt3__114__split_bufferINS_4pairIccEERNS_9allocatorIS2_EEE8capacityB7v160006Ev, symObjAddr: 0x20790, symBinAddr: 0x100022E10, symSize: 0x30 }
  - { offsetInCU: 0x36D34, offset: 0x36D34, size: 0x8, addend: 0x0, symName: __ZNSt3__114__split_bufferINS_4pairIccEERNS_9allocatorIS2_EEE17__destruct_at_endB7v160006EPS2_, symObjAddr: 0x207C0, symBinAddr: 0x100022E40, symSize: 0x30 }
  - { offsetInCU: 0x36D68, offset: 0x36D68, size: 0x8, addend: 0x0, symName: __ZNSt3__114__split_bufferINS_4pairIccEERNS_9allocatorIS2_EEE17__destruct_at_endB7v160006EPS2_NS_17integral_constantIbLb0EEE, symObjAddr: 0x207F0, symBinAddr: 0x100022E70, symSize: 0x80 }
  - { offsetInCU: 0x36DA8, offset: 0x36DA8, size: 0x8, addend: 0x0, symName: __ZNKSt3__114__split_bufferINS_4pairIccEERNS_9allocatorIS2_EEE9__end_capB7v160006Ev, symObjAddr: 0x20870, symBinAddr: 0x100022EF0, symSize: 0x20 }
  - { offsetInCU: 0x36DCE, offset: 0x36DCE, size: 0x8, addend: 0x0, symName: __ZNKSt3__117__compressed_pairIPNS_4pairIccEERNS_9allocatorIS2_EEE5firstB7v160006Ev, symObjAddr: 0x20890, symBinAddr: 0x100022F10, symSize: 0x20 }
  - { offsetInCU: 0x36DF4, offset: 0x36DF4, size: 0x8, addend: 0x0, symName: __ZNSt3__14pairIccEC1B7v160006IccLPv0EEEOT_OT0_, symObjAddr: 0x208B0, symBinAddr: 0x100022F30, symSize: 0x30 }
  - { offsetInCU: 0x36E52, offset: 0x36E52, size: 0x8, addend: 0x0, symName: __ZNSt3__14pairIccEC2B7v160006IccLPv0EEEOT_OT0_, symObjAddr: 0x208E0, symBinAddr: 0x100022F60, symSize: 0x30 }
  - { offsetInCU: 0x36EB0, offset: 0x36EB0, size: 0x8, addend: 0x0, symName: __ZNSt3__14pairIccEC1B7v160006IRcS3_LPv0EEEOT_OT0_, symObjAddr: 0x20910, symBinAddr: 0x100022F90, symSize: 0x30 }
  - { offsetInCU: 0x36F0E, offset: 0x36F0E, size: 0x8, addend: 0x0, symName: __ZNSt3__14pairIccEC2B7v160006IRcS3_LPv0EEEOT_OT0_, symObjAddr: 0x20940, symBinAddr: 0x100022FC0, symSize: 0x30 }
  - { offsetInCU: 0x36F80, offset: 0x36F80, size: 0x8, addend: 0x0, symName: __ZNSt3__128__begin_marked_subexpressionIcEC1B7v160006EjPNS_6__nodeIcEE, symObjAddr: 0x20970, symBinAddr: 0x100022FF0, symSize: 0x30 }
  - { offsetInCU: 0x36FC8, offset: 0x36FC8, size: 0x8, addend: 0x0, symName: __ZNSt3__128__begin_marked_subexpressionIcEC2B7v160006EjPNS_6__nodeIcEE, symObjAddr: 0x209A0, symBinAddr: 0x100023020, symSize: 0x50 }
  - { offsetInCU: 0x37010, offset: 0x37010, size: 0x8, addend: 0x0, symName: __ZNSt3__128__begin_marked_subexpressionIcED1Ev, symObjAddr: 0x209F0, symBinAddr: 0x100023070, symSize: 0x20 }
  - { offsetInCU: 0x3703D, offset: 0x3703D, size: 0x8, addend: 0x0, symName: __ZNSt3__128__begin_marked_subexpressionIcED0Ev, symObjAddr: 0x20A10, symBinAddr: 0x100023090, symSize: 0x30 }
  - { offsetInCU: 0x3706A, offset: 0x3706A, size: 0x8, addend: 0x0, symName: __ZNKSt3__128__begin_marked_subexpressionIcE6__execERNS_7__stateIcEE, symObjAddr: 0x20A40, symBinAddr: 0x1000230C0, symSize: 0x70 }
  - { offsetInCU: 0x370A1, offset: 0x370A1, size: 0x8, addend: 0x0, symName: __ZNSt3__128__begin_marked_subexpressionIcED2Ev, symObjAddr: 0x20AB0, symBinAddr: 0x100023130, symSize: 0x20 }
  - { offsetInCU: 0x370E2, offset: 0x370E2, size: 0x8, addend: 0x0, symName: __ZNSt3__126__end_marked_subexpressionIcEC1B7v160006EjPNS_6__nodeIcEE, symObjAddr: 0x20AD0, symBinAddr: 0x100023150, symSize: 0x30 }
  - { offsetInCU: 0x3712A, offset: 0x3712A, size: 0x8, addend: 0x0, symName: __ZNSt3__126__end_marked_subexpressionIcEC2B7v160006EjPNS_6__nodeIcEE, symObjAddr: 0x20B00, symBinAddr: 0x100023180, symSize: 0x50 }
  - { offsetInCU: 0x37172, offset: 0x37172, size: 0x8, addend: 0x0, symName: __ZNSt3__126__end_marked_subexpressionIcED1Ev, symObjAddr: 0x20B50, symBinAddr: 0x1000231D0, symSize: 0x20 }
  - { offsetInCU: 0x3719F, offset: 0x3719F, size: 0x8, addend: 0x0, symName: __ZNSt3__126__end_marked_subexpressionIcED0Ev, symObjAddr: 0x20B70, symBinAddr: 0x1000231F0, symSize: 0x30 }
  - { offsetInCU: 0x371CC, offset: 0x371CC, size: 0x8, addend: 0x0, symName: __ZNKSt3__126__end_marked_subexpressionIcE6__execERNS_7__stateIcEE, symObjAddr: 0x20BA0, symBinAddr: 0x100023220, symSize: 0x90 }
  - { offsetInCU: 0x37203, offset: 0x37203, size: 0x8, addend: 0x0, symName: __ZNSt3__126__end_marked_subexpressionIcED2Ev, symObjAddr: 0x20C30, symBinAddr: 0x1000232B0, symSize: 0x20 }
  - { offsetInCU: 0x37230, offset: 0x37230, size: 0x8, addend: 0x0, symName: __ZNSt3__111basic_regexIcNS_12regex_traitsIcEEE27__push_nongreedy_inf_repeatB7v160006EmPNS_16__owns_one_stateIcEEjj, symObjAddr: 0x20C50, symBinAddr: 0x1000232D0, symSize: 0x60 }
  - { offsetInCU: 0x37292, offset: 0x37292, size: 0x8, addend: 0x0, symName: __ZNSt3__111basic_regexIcNS_12regex_traitsIcEEE24__push_greedy_inf_repeatB7v160006EmPNS_16__owns_one_stateIcEEjj, symObjAddr: 0x20CB0, symBinAddr: 0x100023330, symSize: 0x60 }
  - { offsetInCU: 0x372F4, offset: 0x372F4, size: 0x8, addend: 0x0, symName: __ZNSt3__111basic_regexIcNS_12regex_traitsIcEEE11__push_loopEmmPNS_16__owns_one_stateIcEEmmb, symObjAddr: 0x20D10, symBinAddr: 0x100023390, symSize: 0x280 }
  - { offsetInCU: 0x3739B, offset: 0x3739B, size: 0x8, addend: 0x0, symName: __ZNSt3__111basic_regexIcNS_12regex_traitsIcEEE17__parse_DUP_COUNTIPKcEET_S7_S7_Ri, symObjAddr: 0x20F90, symBinAddr: 0x100023610, symSize: 0x110 }
  - { offsetInCU: 0x37416, offset: 0x37416, size: 0x8, addend: 0x0, symName: __ZNKSt3__110unique_ptrINS_13__empty_stateIcEENS_14default_deleteIS2_EEE3getB7v160006Ev, symObjAddr: 0x21160, symBinAddr: 0x1000237E0, symSize: 0x20 }
  - { offsetInCU: 0x37469, offset: 0x37469, size: 0x8, addend: 0x0, symName: __ZNSt3__16__loopIcEC1B7v160006EjPNS_6__nodeIcEEPNS_16__owns_one_stateIcEEjjbmm, symObjAddr: 0x21180, symBinAddr: 0x100023800, symSize: 0x80 }
  - { offsetInCU: 0x375A6, offset: 0x375A6, size: 0x8, addend: 0x0, symName: __ZNSt3__110unique_ptrINS_6__loopIcEENS_14default_deleteIS2_EEEC1B7v160006ILb1EvEEPS2_, symObjAddr: 0x21200, symBinAddr: 0x100023880, symSize: 0x30 }
  - { offsetInCU: 0x375E9, offset: 0x375E9, size: 0x8, addend: 0x0, symName: __ZNKSt3__110unique_ptrINS_6__loopIcEENS_14default_deleteIS2_EEE3getB7v160006Ev, symObjAddr: 0x21230, symBinAddr: 0x1000238B0, symSize: 0x20 }
  - { offsetInCU: 0x37623, offset: 0x37623, size: 0x8, addend: 0x0, symName: __ZNSt3__117__repeat_one_loopIcEC1B7v160006EPNS_6__nodeIcEE, symObjAddr: 0x21250, symBinAddr: 0x1000238D0, symSize: 0x30 }
  - { offsetInCU: 0x3765C, offset: 0x3765C, size: 0x8, addend: 0x0, symName: __ZNKSt3__110unique_ptrINS_6__loopIcEENS_14default_deleteIS2_EEEptB7v160006Ev, symObjAddr: 0x21280, symBinAddr: 0x100023900, symSize: 0x20 }
  - { offsetInCU: 0x37682, offset: 0x37682, size: 0x8, addend: 0x0, symName: __ZNSt3__117__owns_two_statesIcE6secondB7v160006Ev, symObjAddr: 0x212A0, symBinAddr: 0x100023920, symSize: 0x20 }
  - { offsetInCU: 0x376A8, offset: 0x376A8, size: 0x8, addend: 0x0, symName: __ZNSt3__110unique_ptrINS_6__loopIcEENS_14default_deleteIS2_EEE7releaseB7v160006Ev, symObjAddr: 0x212C0, symBinAddr: 0x100023940, symSize: 0x40 }
  - { offsetInCU: 0x376DD, offset: 0x376DD, size: 0x8, addend: 0x0, symName: __ZNSt3__110unique_ptrINS_6__loopIcEENS_14default_deleteIS2_EEED1B7v160006Ev, symObjAddr: 0x21300, symBinAddr: 0x100023980, symSize: 0x20 }
  - { offsetInCU: 0x37707, offset: 0x37707, size: 0x8, addend: 0x0, symName: __ZNKSt3__117__compressed_pairIPNS_13__empty_stateIcEENS_14default_deleteIS2_EEE5firstB7v160006Ev, symObjAddr: 0x21320, symBinAddr: 0x1000239A0, symSize: 0x20 }
  - { offsetInCU: 0x3772D, offset: 0x3772D, size: 0x8, addend: 0x0, symName: __ZNKSt3__122__compressed_pair_elemIPNS_13__empty_stateIcEELi0ELb0EE5__getB7v160006Ev, symObjAddr: 0x21340, symBinAddr: 0x1000239C0, symSize: 0x10 }
  - { offsetInCU: 0x37753, offset: 0x37753, size: 0x8, addend: 0x0, symName: __ZNSt3__16__loopIcEC2B7v160006EjPNS_6__nodeIcEEPNS_16__owns_one_stateIcEEjjbmm, symObjAddr: 0x21350, symBinAddr: 0x1000239D0, symSize: 0x90 }
  - { offsetInCU: 0x377F5, offset: 0x377F5, size: 0x8, addend: 0x0, symName: __ZNSt3__117__owns_two_statesIcEC2B7v160006EPNS_6__nodeIcEEPNS_16__owns_one_stateIcEE, symObjAddr: 0x213E0, symBinAddr: 0x100023A60, symSize: 0x50 }
  - { offsetInCU: 0x3783D, offset: 0x3783D, size: 0x8, addend: 0x0, symName: __ZNSt3__16__loopIcED1Ev, symObjAddr: 0x21430, symBinAddr: 0x100023AB0, symSize: 0x20 }
  - { offsetInCU: 0x3786A, offset: 0x3786A, size: 0x8, addend: 0x0, symName: __ZNSt3__16__loopIcED0Ev, symObjAddr: 0x21450, symBinAddr: 0x100023AD0, symSize: 0x30 }
  - { offsetInCU: 0x37897, offset: 0x37897, size: 0x8, addend: 0x0, symName: __ZNKSt3__16__loopIcE6__execERNS_7__stateIcEE, symObjAddr: 0x21480, symBinAddr: 0x100023B00, symSize: 0x210 }
  - { offsetInCU: 0x37926, offset: 0x37926, size: 0x8, addend: 0x0, symName: __ZNKSt3__16__loopIcE12__exec_splitEbRNS_7__stateIcEE, symObjAddr: 0x21690, symBinAddr: 0x100023D10, symSize: 0x90 }
  - { offsetInCU: 0x3796C, offset: 0x3796C, size: 0x8, addend: 0x0, symName: __ZNSt3__117__owns_two_statesIcED1Ev, symObjAddr: 0x21720, symBinAddr: 0x100023DA0, symSize: 0x20 }
  - { offsetInCU: 0x37998, offset: 0x37998, size: 0x8, addend: 0x0, symName: __ZNSt3__117__owns_two_statesIcED0Ev, symObjAddr: 0x21740, symBinAddr: 0x100023DC0, symSize: 0x30 }
  - { offsetInCU: 0x379C4, offset: 0x379C4, size: 0x8, addend: 0x0, symName: __ZNSt3__117__owns_two_statesIcED2Ev, symObjAddr: 0x21770, symBinAddr: 0x100023DF0, symSize: 0x50 }
  - { offsetInCU: 0x379F0, offset: 0x379F0, size: 0x8, addend: 0x0, symName: __ZNSt3__16__loopIcED2Ev, symObjAddr: 0x217C0, symBinAddr: 0x100023E40, symSize: 0x20 }
  - { offsetInCU: 0x37A1D, offset: 0x37A1D, size: 0x8, addend: 0x0, symName: __ZNSt3__16vectorINS_4pairImPKcEENS_9allocatorIS4_EEEixB7v160006Em, symObjAddr: 0x217E0, symBinAddr: 0x100023E60, symSize: 0x20 }
  - { offsetInCU: 0x37A54, offset: 0x37A54, size: 0x8, addend: 0x0, symName: __ZNKSt3__16__loopIcE13__init_repeatB7v160006ERNS_7__stateIcEE, symObjAddr: 0x21800, symBinAddr: 0x100023E80, symSize: 0xE0 }
  - { offsetInCU: 0x37AA6, offset: 0x37AA6, size: 0x8, addend: 0x0, symName: __ZNKSt3__117__owns_two_statesIcE6secondB7v160006Ev, symObjAddr: 0x218E0, symBinAddr: 0x100023F60, symSize: 0x20 }
  - { offsetInCU: 0x37ACC, offset: 0x37ACC, size: 0x8, addend: 0x0, symName: __ZNSt3__110unique_ptrINS_6__loopIcEENS_14default_deleteIS2_EEEC2B7v160006ILb1EvEEPS2_, symObjAddr: 0x21900, symBinAddr: 0x100023F80, symSize: 0x40 }
  - { offsetInCU: 0x37B0F, offset: 0x37B0F, size: 0x8, addend: 0x0, symName: __ZNSt3__117__compressed_pairIPNS_6__loopIcEENS_14default_deleteIS2_EEEC1B7v160006IRS3_NS_16__value_init_tagEEEOT_OT0_, symObjAddr: 0x21940, symBinAddr: 0x100023FC0, symSize: 0x30 }
  - { offsetInCU: 0x37B67, offset: 0x37B67, size: 0x8, addend: 0x0, symName: __ZNSt3__117__compressed_pairIPNS_6__loopIcEENS_14default_deleteIS2_EEEC2B7v160006IRS3_NS_16__value_init_tagEEEOT_OT0_, symObjAddr: 0x21970, symBinAddr: 0x100023FF0, symSize: 0x40 }
  - { offsetInCU: 0x37BBF, offset: 0x37BBF, size: 0x8, addend: 0x0, symName: __ZNSt3__122__compressed_pair_elemIPNS_6__loopIcEELi0ELb0EEC2B7v160006IRS3_vEEOT_, symObjAddr: 0x219B0, symBinAddr: 0x100024030, symSize: 0x20 }
  - { offsetInCU: 0x37C01, offset: 0x37C01, size: 0x8, addend: 0x0, symName: __ZNSt3__122__compressed_pair_elemINS_14default_deleteINS_6__loopIcEEEELi1ELb1EEC2B7v160006ENS_16__value_init_tagE, symObjAddr: 0x219D0, symBinAddr: 0x100024050, symSize: 0x10 }
  - { offsetInCU: 0x37C35, offset: 0x37C35, size: 0x8, addend: 0x0, symName: __ZNKSt3__117__compressed_pairIPNS_6__loopIcEENS_14default_deleteIS2_EEE5firstB7v160006Ev, symObjAddr: 0x219E0, symBinAddr: 0x100024060, symSize: 0x20 }
  - { offsetInCU: 0x37C5B, offset: 0x37C5B, size: 0x8, addend: 0x0, symName: __ZNKSt3__122__compressed_pair_elemIPNS_6__loopIcEELi0ELb0EE5__getB7v160006Ev, symObjAddr: 0x21A00, symBinAddr: 0x100024080, symSize: 0x10 }
  - { offsetInCU: 0x37C81, offset: 0x37C81, size: 0x8, addend: 0x0, symName: __ZNSt3__117__repeat_one_loopIcEC2B7v160006EPNS_6__nodeIcEE, symObjAddr: 0x21A10, symBinAddr: 0x100024090, symSize: 0x40 }
  - { offsetInCU: 0x37CBA, offset: 0x37CBA, size: 0x8, addend: 0x0, symName: __ZNSt3__117__repeat_one_loopIcED1Ev, symObjAddr: 0x21A50, symBinAddr: 0x1000240D0, symSize: 0x20 }
  - { offsetInCU: 0x37CE7, offset: 0x37CE7, size: 0x8, addend: 0x0, symName: __ZNSt3__117__repeat_one_loopIcED0Ev, symObjAddr: 0x21A70, symBinAddr: 0x1000240F0, symSize: 0x30 }
  - { offsetInCU: 0x37D14, offset: 0x37D14, size: 0x8, addend: 0x0, symName: __ZNKSt3__117__repeat_one_loopIcE6__execERNS_7__stateIcEE, symObjAddr: 0x21AA0, symBinAddr: 0x100024120, symSize: 0x40 }
  - { offsetInCU: 0x37D4B, offset: 0x37D4B, size: 0x8, addend: 0x0, symName: __ZNSt3__117__repeat_one_loopIcED2Ev, symObjAddr: 0x21AE0, symBinAddr: 0x100024160, symSize: 0x20 }
  - { offsetInCU: 0x37D78, offset: 0x37D78, size: 0x8, addend: 0x0, symName: __ZNSt3__117__compressed_pairIPNS_6__loopIcEENS_14default_deleteIS2_EEE5firstB7v160006Ev, symObjAddr: 0x21B00, symBinAddr: 0x100024180, symSize: 0x20 }
  - { offsetInCU: 0x37D9E, offset: 0x37D9E, size: 0x8, addend: 0x0, symName: __ZNSt3__122__compressed_pair_elemIPNS_6__loopIcEELi0ELb0EE5__getB7v160006Ev, symObjAddr: 0x21B20, symBinAddr: 0x1000241A0, symSize: 0x10 }
  - { offsetInCU: 0x37DC4, offset: 0x37DC4, size: 0x8, addend: 0x0, symName: __ZNSt3__110unique_ptrINS_6__loopIcEENS_14default_deleteIS2_EEED2B7v160006Ev, symObjAddr: 0x21B30, symBinAddr: 0x1000241B0, symSize: 0x20 }
  - { offsetInCU: 0x37DEE, offset: 0x37DEE, size: 0x8, addend: 0x0, symName: __ZNSt3__110unique_ptrINS_6__loopIcEENS_14default_deleteIS2_EEE5resetB7v160006EPS2_, symObjAddr: 0x21B50, symBinAddr: 0x1000241D0, symSize: 0x70 }
  - { offsetInCU: 0x37E32, offset: 0x37E32, size: 0x8, addend: 0x0, symName: __ZNSt3__117__compressed_pairIPNS_6__loopIcEENS_14default_deleteIS2_EEE6secondB7v160006Ev, symObjAddr: 0x21BC0, symBinAddr: 0x100024240, symSize: 0x20 }
  - { offsetInCU: 0x37E58, offset: 0x37E58, size: 0x8, addend: 0x0, symName: __ZNKSt3__114default_deleteINS_6__loopIcEEEclB7v160006EPS2_, symObjAddr: 0x21BE0, symBinAddr: 0x100024260, symSize: 0x40 }
  - { offsetInCU: 0x37E8C, offset: 0x37E8C, size: 0x8, addend: 0x0, symName: __ZNSt3__122__compressed_pair_elemINS_14default_deleteINS_6__loopIcEEEELi1ELb1EE5__getB7v160006Ev, symObjAddr: 0x21C20, symBinAddr: 0x1000242A0, symSize: 0x10 }
  - { offsetInCU: 0x37EB2, offset: 0x37EB2, size: 0x8, addend: 0x0, symName: __ZNSt3__114numeric_limitsIiE3maxB7v160006Ev, symObjAddr: 0x21C30, symBinAddr: 0x1000242B0, symSize: 0x10 }
  - { offsetInCU: 0x37EC6, offset: 0x37EC6, size: 0x8, addend: 0x0, symName: __ZNSt3__123__libcpp_numeric_limitsIiLb1EE3maxB7v160006Ev, symObjAddr: 0x21C40, symBinAddr: 0x1000242C0, symSize: 0x10 }
  - { offsetInCU: 0x37EEE, offset: 0x37EEE, size: 0x8, addend: 0x0, symName: __ZNSt3__111__alternateIcEC1B7v160006EPNS_16__owns_one_stateIcEES4_, symObjAddr: 0x21C50, symBinAddr: 0x1000242D0, symSize: 0x30 }
  - { offsetInCU: 0x37F4A, offset: 0x37F4A, size: 0x8, addend: 0x0, symName: __ZNSt3__121__empty_non_own_stateIcEC1B7v160006EPNS_6__nodeIcEE, symObjAddr: 0x21C80, symBinAddr: 0x100024300, symSize: 0x30 }
  - { offsetInCU: 0x37F83, offset: 0x37F83, size: 0x8, addend: 0x0, symName: __ZNSt3__111__alternateIcEC2B7v160006EPNS_16__owns_one_stateIcEES4_, symObjAddr: 0x21CB0, symBinAddr: 0x100024330, symSize: 0x50 }
  - { offsetInCU: 0x37FCB, offset: 0x37FCB, size: 0x8, addend: 0x0, symName: __ZNSt3__111__alternateIcED1Ev, symObjAddr: 0x21D00, symBinAddr: 0x100024380, symSize: 0x20 }
  - { offsetInCU: 0x37FF8, offset: 0x37FF8, size: 0x8, addend: 0x0, symName: __ZNSt3__111__alternateIcED0Ev, symObjAddr: 0x21D20, symBinAddr: 0x1000243A0, symSize: 0x30 }
  - { offsetInCU: 0x38025, offset: 0x38025, size: 0x8, addend: 0x0, symName: __ZNKSt3__111__alternateIcE6__execERNS_7__stateIcEE, symObjAddr: 0x21D50, symBinAddr: 0x1000243D0, symSize: 0x20 }
  - { offsetInCU: 0x3805C, offset: 0x3805C, size: 0x8, addend: 0x0, symName: __ZNKSt3__111__alternateIcE12__exec_splitEbRNS_7__stateIcEE, symObjAddr: 0x21D70, symBinAddr: 0x1000243F0, symSize: 0x70 }
  - { offsetInCU: 0x380A2, offset: 0x380A2, size: 0x8, addend: 0x0, symName: __ZNSt3__111__alternateIcED2Ev, symObjAddr: 0x21DE0, symBinAddr: 0x100024460, symSize: 0x20 }
  - { offsetInCU: 0x380CF, offset: 0x380CF, size: 0x8, addend: 0x0, symName: __ZNSt3__121__empty_non_own_stateIcEC2B7v160006EPNS_6__nodeIcEE, symObjAddr: 0x21E00, symBinAddr: 0x100024480, symSize: 0x40 }
  - { offsetInCU: 0x38108, offset: 0x38108, size: 0x8, addend: 0x0, symName: __ZNSt3__121__empty_non_own_stateIcED1Ev, symObjAddr: 0x21E40, symBinAddr: 0x1000244C0, symSize: 0x20 }
  - { offsetInCU: 0x38135, offset: 0x38135, size: 0x8, addend: 0x0, symName: __ZNSt3__121__empty_non_own_stateIcED0Ev, symObjAddr: 0x21E60, symBinAddr: 0x1000244E0, symSize: 0x30 }
  - { offsetInCU: 0x38162, offset: 0x38162, size: 0x8, addend: 0x0, symName: __ZNKSt3__121__empty_non_own_stateIcE6__execERNS_7__stateIcEE, symObjAddr: 0x21E90, symBinAddr: 0x100024510, symSize: 0x40 }
  - { offsetInCU: 0x38199, offset: 0x38199, size: 0x8, addend: 0x0, symName: __ZNSt3__121__empty_non_own_stateIcED2Ev, symObjAddr: 0x21ED0, symBinAddr: 0x100024550, symSize: 0x20 }
  - { offsetInCU: 0x381C6, offset: 0x381C6, size: 0x8, addend: 0x0, symName: __ZNSt3__111basic_regexIcNS_12regex_traitsIcEEE21__parse_RE_expressionIPKcEET_S7_S7_, symObjAddr: 0x21EF0, symBinAddr: 0x100024570, symSize: 0x60 }
  - { offsetInCU: 0x38232, offset: 0x38232, size: 0x8, addend: 0x0, symName: __ZNSt3__111basic_regexIcNS_12regex_traitsIcEEE17__parse_simple_REIPKcEET_S7_S7_, symObjAddr: 0x21FB0, symBinAddr: 0x100024630, symSize: 0xA0 }
  - { offsetInCU: 0x382BC, offset: 0x382BC, size: 0x8, addend: 0x0, symName: __ZNSt3__111basic_regexIcNS_12regex_traitsIcEEE18__parse_nondupl_REIPKcEET_S7_S7_, symObjAddr: 0x22050, symBinAddr: 0x1000246D0, symSize: 0xF0 }
  - { offsetInCU: 0x38337, offset: 0x38337, size: 0x8, addend: 0x0, symName: __ZNSt3__111basic_regexIcNS_12regex_traitsIcEEE22__parse_RE_dupl_symbolIPKcEET_S7_S7_PNS_16__owns_one_stateIcEEjj, symObjAddr: 0x22140, symBinAddr: 0x1000247C0, symSize: 0x230 }
  - { offsetInCU: 0x3840A, offset: 0x3840A, size: 0x8, addend: 0x0, symName: __ZNSt3__111basic_regexIcNS_12regex_traitsIcEEE32__parse_one_char_or_coll_elem_REIPKcEET_S7_S7_, symObjAddr: 0x22370, symBinAddr: 0x1000249F0, symSize: 0xD0 }
  - { offsetInCU: 0x38468, offset: 0x38468, size: 0x8, addend: 0x0, symName: __ZNSt3__111basic_regexIcNS_12regex_traitsIcEEE23__parse_Back_open_parenIPKcEET_S7_S7_, symObjAddr: 0x22440, symBinAddr: 0x100024AC0, symSize: 0x90 }
  - { offsetInCU: 0x384D4, offset: 0x384D4, size: 0x8, addend: 0x0, symName: __ZNSt3__111basic_regexIcNS_12regex_traitsIcEEE24__parse_Back_close_parenIPKcEET_S7_S7_, symObjAddr: 0x224D0, symBinAddr: 0x100024B50, symSize: 0x90 }
  - { offsetInCU: 0x38540, offset: 0x38540, size: 0x8, addend: 0x0, symName: __ZNSt3__111basic_regexIcNS_12regex_traitsIcEEE15__parse_BACKREFIPKcEET_S7_S7_, symObjAddr: 0x22560, symBinAddr: 0x100024BE0, symSize: 0xA0 }
  - { offsetInCU: 0x385AC, offset: 0x385AC, size: 0x8, addend: 0x0, symName: __ZNSt3__111basic_regexIcNS_12regex_traitsIcEEE16__parse_ORD_CHARIPKcEET_S7_S7_, symObjAddr: 0x22600, symBinAddr: 0x100024C80, symSize: 0xE0 }
  - { offsetInCU: 0x38618, offset: 0x38618, size: 0x8, addend: 0x0, symName: __ZNSt3__111basic_regexIcNS_12regex_traitsIcEEE19__parse_QUOTED_CHARIPKcEET_S7_S7_, symObjAddr: 0x226E0, symBinAddr: 0x100024D60, symSize: 0x100 }
  - { offsetInCU: 0x38684, offset: 0x38684, size: 0x8, addend: 0x0, symName: __ZNSt3__111basic_regexIcNS_12regex_traitsIcEEE16__push_match_anyEv, symObjAddr: 0x227E0, symBinAddr: 0x100024E60, symSize: 0xA0 }
  - { offsetInCU: 0x386C0, offset: 0x386C0, size: 0x8, addend: 0x0, symName: __ZNSt3__111__match_anyIcEC1B7v160006EPNS_6__nodeIcEE, symObjAddr: 0x22880, symBinAddr: 0x100024F00, symSize: 0x30 }
  - { offsetInCU: 0x386F9, offset: 0x386F9, size: 0x8, addend: 0x0, symName: __ZNSt3__111__match_anyIcEC2B7v160006EPNS_6__nodeIcEE, symObjAddr: 0x228B0, symBinAddr: 0x100024F30, symSize: 0x40 }
  - { offsetInCU: 0x38732, offset: 0x38732, size: 0x8, addend: 0x0, symName: __ZNSt3__111__match_anyIcED1Ev, symObjAddr: 0x228F0, symBinAddr: 0x100024F70, symSize: 0x20 }
  - { offsetInCU: 0x3875F, offset: 0x3875F, size: 0x8, addend: 0x0, symName: __ZNSt3__111__match_anyIcED0Ev, symObjAddr: 0x22910, symBinAddr: 0x100024F90, symSize: 0x30 }
  - { offsetInCU: 0x3878C, offset: 0x3878C, size: 0x8, addend: 0x0, symName: __ZNKSt3__111__match_anyIcE6__execERNS_7__stateIcEE, symObjAddr: 0x22940, symBinAddr: 0x100024FC0, symSize: 0xA0 }
  - { offsetInCU: 0x387C3, offset: 0x387C3, size: 0x8, addend: 0x0, symName: __ZNSt3__111__match_anyIcED2Ev, symObjAddr: 0x229E0, symBinAddr: 0x100025060, symSize: 0x20 }
  - { offsetInCU: 0x387F0, offset: 0x387F0, size: 0x8, addend: 0x0, symName: __ZNSt3__111basic_regexIcNS_12regex_traitsIcEEE15__test_back_refEc, symObjAddr: 0x22A00, symBinAddr: 0x100025080, symSize: 0x90 }
  - { offsetInCU: 0x38836, offset: 0x38836, size: 0x8, addend: 0x0, symName: __ZNSt3__111basic_regexIcNS_12regex_traitsIcEEE23__parse_Back_open_braceIPKcEET_S7_S7_, symObjAddr: 0x22A90, symBinAddr: 0x100025110, symSize: 0x90 }
  - { offsetInCU: 0x388A2, offset: 0x388A2, size: 0x8, addend: 0x0, symName: __ZNSt3__111basic_regexIcNS_12regex_traitsIcEEE24__parse_Back_close_braceIPKcEET_S7_S7_, symObjAddr: 0x22B20, symBinAddr: 0x1000251A0, symSize: 0x90 }
  - { offsetInCU: 0x3890E, offset: 0x3890E, size: 0x8, addend: 0x0, symName: __ZNSt3__111basic_regexIcNS_12regex_traitsIcEEE18__parse_ERE_branchIPKcEET_S7_S7_, symObjAddr: 0x22BB0, symBinAddr: 0x100025230, symSize: 0x80 }
  - { offsetInCU: 0x3896C, offset: 0x3896C, size: 0x8, addend: 0x0, symName: __ZNSt3__111basic_regexIcNS_12regex_traitsIcEEE22__parse_ERE_expressionIPKcEET_S7_S7_, symObjAddr: 0x22C30, symBinAddr: 0x1000252B0, symSize: 0x190 }
  - { offsetInCU: 0x38A05, offset: 0x38A05, size: 0x8, addend: 0x0, symName: __ZNSt3__111basic_regexIcNS_12regex_traitsIcEEE33__parse_one_char_or_coll_elem_EREIPKcEET_S7_S7_, symObjAddr: 0x22DC0, symBinAddr: 0x100025440, symSize: 0xD0 }
  - { offsetInCU: 0x38A63, offset: 0x38A63, size: 0x8, addend: 0x0, symName: __ZNSt3__111basic_regexIcNS_12regex_traitsIcEEE20__parse_ORD_CHAR_EREIPKcEET_S7_S7_, symObjAddr: 0x22E90, symBinAddr: 0x100025510, symSize: 0x220 }
  - { offsetInCU: 0x38AB2, offset: 0x38AB2, size: 0x8, addend: 0x0, symName: __ZNSt3__111basic_regexIcNS_12regex_traitsIcEEE23__parse_QUOTED_CHAR_EREIPKcEET_S7_S7_, symObjAddr: 0x230B0, symBinAddr: 0x100025730, symSize: 0x2A0 }
...
