---
triple:          'x86_64-apple-darwin'
binary-path:     item20
relocations:
  - { offsetInCU: 0x131B, offset: 0x131B, size: 0x8, addend: 0x0, symName: __ZNSt3__111make_sharedB7v160006I6WidgetJEvEENS_10shared_ptrIT_EEDpOT0_, symObjAddr: 0x40, symBinAddr: 0x1000030B0, symSize: 0x40 }
  - { offsetInCU: 0x1724, offset: 0x1724, size: 0x8, addend: 0x0, symName: __ZNSt3__115allocate_sharedB7v160006I6WidgetNS_9allocatorIS1_EEJEvEENS_10shared_ptrIT_EERKT0_DpOT1_, symObjAddr: 0xF0, symBinAddr: 0x100003160, symSize: 0xA0 }
  - { offsetInCU: 0x196C, offset: 0x196C, size: 0x8, addend: 0x0, symName: __ZNSt3__117__libcpp_allocateB7v160006Emm, symObjAddr: 0x490, symBinAddr: 0x100003500, symSize: 0x60 }
  - { offsetInCU: 0x1BB2, offset: 0x1BB2, size: 0x8, addend: 0x0, symName: __ZNSt3__124__is_overaligned_for_newB7v160006Em, symObjAddr: 0x510, symBinAddr: 0x100003580, symSize: 0x20 }
  - { offsetInCU: 0x1BE0, offset: 0x1BE0, size: 0x8, addend: 0x0, symName: __ZNSt3__121__libcpp_operator_newB7v160006IJmSt11align_val_tEEEPvDpT_, symObjAddr: 0x530, symBinAddr: 0x1000035A0, symSize: 0x30 }
  - { offsetInCU: 0x1C2D, offset: 0x1C2D, size: 0x8, addend: 0x0, symName: __ZNSt3__121__libcpp_operator_newB7v160006IJmEEEPvDpT_, symObjAddr: 0x560, symBinAddr: 0x1000035D0, symSize: 0x20 }
  - { offsetInCU: 0x1D3F, offset: 0x1D3F, size: 0x8, addend: 0x0, symName: __ZNSt3__112construct_atB7v160006I6WidgetJEPS1_EEPT_S4_DpOT0_, symObjAddr: 0x8B0, symBinAddr: 0x100003920, symSize: 0x20 }
  - { offsetInCU: 0x1D9B, offset: 0x1D9B, size: 0x8, addend: 0x0, symName: __ZNSt3__110destroy_atB7v160006I6WidgetLi0EEEvPT_, symObjAddr: 0x960, symBinAddr: 0x1000039D0, symSize: 0x20 }
  - { offsetInCU: 0x1DD2, offset: 0x1DD2, size: 0x8, addend: 0x0, symName: __ZNSt3__112__destroy_atB7v160006I6WidgetLi0EEEvPT_, symObjAddr: 0x980, symBinAddr: 0x1000039F0, symSize: 0x10 }
  - { offsetInCU: 0x1E3C, offset: 0x1E3C, size: 0x8, addend: 0x0, symName: __ZNSt3__119__libcpp_deallocateB7v160006EPvmm, symObjAddr: 0xA10, symBinAddr: 0x100003A80, symSize: 0x60 }
  - { offsetInCU: 0x1EA1, offset: 0x1EA1, size: 0x8, addend: 0x0, symName: __ZNSt3__127__do_deallocate_handle_sizeB7v160006IJSt11align_val_tEEEvPvmDpT_, symObjAddr: 0xA70, symBinAddr: 0x100003AE0, symSize: 0x30 }
  - { offsetInCU: 0x1EF4, offset: 0x1EF4, size: 0x8, addend: 0x0, symName: __ZNSt3__127__do_deallocate_handle_sizeB7v160006IJEEEvPvmDpT_, symObjAddr: 0xAA0, symBinAddr: 0x100003B10, symSize: 0x20 }
  - { offsetInCU: 0x1F32, offset: 0x1F32, size: 0x8, addend: 0x0, symName: __ZNSt3__124__libcpp_operator_deleteB7v160006IJPvSt11align_val_tEEEvDpT_, symObjAddr: 0xAC0, symBinAddr: 0x100003B30, symSize: 0x30 }
  - { offsetInCU: 0x1F7B, offset: 0x1F7B, size: 0x8, addend: 0x0, symName: __ZNSt3__124__libcpp_operator_deleteB7v160006IJPvEEEvDpT_, symObjAddr: 0xAF0, symBinAddr: 0x100003B60, symSize: 0x20 }
  - { offsetInCU: 0x1FB0, offset: 0x1FB0, size: 0x8, addend: 0x0, symName: __ZNSt3__134__libcpp_atomic_refcount_decrementB7v160006IlEET_RS1_, symObjAddr: 0xCF0, symBinAddr: 0x100003D60, symSize: 0x30 }
  - { offsetInCU: 0x1FE5, offset: 0x1FE5, size: 0x8, addend: 0x0, symName: __ZNSt3__134__libcpp_atomic_refcount_incrementB7v160006IlEET_RS1_, symObjAddr: 0xD90, symBinAddr: 0x100003E00, symSize: 0x30 }
  - { offsetInCU: 0x2156, offset: 0x2156, size: 0x8, addend: 0x0, symName: __ZSt28__throw_bad_array_new_lengthB7v160006v, symObjAddr: 0x450, symBinAddr: 0x1000034C0, symSize: 0x40 }
  - { offsetInCU: 0x4462, offset: 0x4462, size: 0x8, addend: 0x0, symName: _main, symObjAddr: 0x0, symBinAddr: 0x100003070, symSize: 0x40 }
  - { offsetInCU: 0x44F7, offset: 0x44F7, size: 0x8, addend: 0x0, symName: __ZNSt3__18weak_ptrI6WidgetEC1IS1_EERKNS_10shared_ptrIT_EENS_9enable_ifIXsr17__compatible_withIS5_S1_EE5valueEPNS_5__natEE4typeE, symObjAddr: 0x80, symBinAddr: 0x1000030F0, symSize: 0x30 }
  - { offsetInCU: 0x4544, offset: 0x4544, size: 0x8, addend: 0x0, symName: __ZNSt3__18weak_ptrI6WidgetED1Ev, symObjAddr: 0xB0, symBinAddr: 0x100003120, symSize: 0x20 }
  - { offsetInCU: 0x456E, offset: 0x456E, size: 0x8, addend: 0x0, symName: __ZNSt3__110shared_ptrI6WidgetED1B7v160006Ev, symObjAddr: 0xD0, symBinAddr: 0x100003140, symSize: 0x20 }
  - { offsetInCU: 0x4596, offset: 0x4596, size: 0x8, addend: 0x0, symName: __ZNSt3__19allocatorI6WidgetEC1B7v160006Ev, symObjAddr: 0x190, symBinAddr: 0x100003200, symSize: 0x20 }
  - { offsetInCU: 0x45DC, offset: 0x45DC, size: 0x8, addend: 0x0, symName: __ZNSt3__118__allocation_guardINS_9allocatorINS_20__shared_ptr_emplaceI6WidgetNS1_IS3_EEEEEEEC1B7v160006IS4_EET_m, symObjAddr: 0x1B0, symBinAddr: 0x100003220, symSize: 0x30 }
  - { offsetInCU: 0x4629, offset: 0x4629, size: 0x8, addend: 0x0, symName: __ZNKSt3__118__allocation_guardINS_9allocatorINS_20__shared_ptr_emplaceI6WidgetNS1_IS3_EEEEEEE5__getB7v160006Ev, symObjAddr: 0x1E0, symBinAddr: 0x100003250, symSize: 0x20 }
  - { offsetInCU: 0x464D, offset: 0x464D, size: 0x8, addend: 0x0, symName: __ZNSt3__120__shared_ptr_emplaceI6WidgetNS_9allocatorIS1_EEEC1B7v160006IJEEES3_DpOT_, symObjAddr: 0x200, symBinAddr: 0x100003270, symSize: 0x20 }
  - { offsetInCU: 0x4689, offset: 0x4689, size: 0x8, addend: 0x0, symName: __ZNSt3__118__allocation_guardINS_9allocatorINS_20__shared_ptr_emplaceI6WidgetNS1_IS3_EEEEEEE13__release_ptrB7v160006Ev, symObjAddr: 0x220, symBinAddr: 0x100003290, symSize: 0x30 }
  - { offsetInCU: 0x46BB, offset: 0x46BB, size: 0x8, addend: 0x0, symName: __ZNSt3__110shared_ptrI6WidgetE27__create_with_control_blockB7v160006IS1_NS_20__shared_ptr_emplaceIS1_NS_9allocatorIS1_EEEEEES2_PT_PT0_, symObjAddr: 0x250, symBinAddr: 0x1000032C0, symSize: 0x70 }
  - { offsetInCU: 0x470F, offset: 0x470F, size: 0x8, addend: 0x0, symName: __ZNSt3__120__shared_ptr_emplaceI6WidgetNS_9allocatorIS1_EEE10__get_elemB7v160006Ev, symObjAddr: 0x2C0, symBinAddr: 0x100003330, symSize: 0x20 }
  - { offsetInCU: 0x4733, offset: 0x4733, size: 0x8, addend: 0x0, symName: __ZNSt3__118__allocation_guardINS_9allocatorINS_20__shared_ptr_emplaceI6WidgetNS1_IS3_EEEEEEED1B7v160006Ev, symObjAddr: 0x2E0, symBinAddr: 0x100003350, symSize: 0x20 }
  - { offsetInCU: 0x475B, offset: 0x475B, size: 0x8, addend: 0x0, symName: __ZNSt3__118__allocation_guardINS_9allocatorINS_20__shared_ptr_emplaceI6WidgetNS1_IS3_EEEEEEEC2B7v160006IS4_EET_m, symObjAddr: 0x300, symBinAddr: 0x100003370, symSize: 0x50 }
  - { offsetInCU: 0x47A8, offset: 0x47A8, size: 0x8, addend: 0x0, symName: __ZNSt3__19allocatorINS_20__shared_ptr_emplaceI6WidgetNS0_IS2_EEEEEC1B7v160006IS2_EERKNS0_IT_EE, symObjAddr: 0x350, symBinAddr: 0x1000033C0, symSize: 0x30 }
  - { offsetInCU: 0x47E3, offset: 0x47E3, size: 0x8, addend: 0x0, symName: __ZNSt3__116allocator_traitsINS_9allocatorINS_20__shared_ptr_emplaceI6WidgetNS1_IS3_EEEEEEE8allocateB7v160006ERS6_m, symObjAddr: 0x380, symBinAddr: 0x1000033F0, symSize: 0x30 }
  - { offsetInCU: 0x4815, offset: 0x4815, size: 0x8, addend: 0x0, symName: __ZNSt3__19allocatorINS_20__shared_ptr_emplaceI6WidgetNS0_IS2_EEEEEC2B7v160006IS2_EERKNS0_IT_EE, symObjAddr: 0x3B0, symBinAddr: 0x100003420, symSize: 0x20 }
  - { offsetInCU: 0x4850, offset: 0x4850, size: 0x8, addend: 0x0, symName: __ZNSt3__116__non_trivial_ifILb1ENS_9allocatorINS_20__shared_ptr_emplaceI6WidgetNS1_IS3_EEEEEEEC2B7v160006Ev, symObjAddr: 0x3D0, symBinAddr: 0x100003440, symSize: 0x10 }
  - { offsetInCU: 0x4878, offset: 0x4878, size: 0x8, addend: 0x0, symName: __ZNSt3__19allocatorINS_20__shared_ptr_emplaceI6WidgetNS0_IS2_EEEEE8allocateB7v160006Em, symObjAddr: 0x3E0, symBinAddr: 0x100003450, symSize: 0x50 }
  - { offsetInCU: 0x48B4, offset: 0x48B4, size: 0x8, addend: 0x0, symName: __ZNSt3__116allocator_traitsINS_9allocatorINS_20__shared_ptr_emplaceI6WidgetNS1_IS3_EEEEEEE8max_sizeB7v160006IS6_vvEEmRKS6_, symObjAddr: 0x430, symBinAddr: 0x1000034A0, symSize: 0x20 }
  - { offsetInCU: 0x48DE, offset: 0x48DE, size: 0x8, addend: 0x0, symName: __ZNSt3__114numeric_limitsImE3maxB7v160006Ev, symObjAddr: 0x4F0, symBinAddr: 0x100003560, symSize: 0x10 }
  - { offsetInCU: 0x48F1, offset: 0x48F1, size: 0x8, addend: 0x0, symName: __ZNSt3__123__libcpp_numeric_limitsImLb1EE3maxB7v160006Ev, symObjAddr: 0x500, symBinAddr: 0x100003570, symSize: 0x10 }
  - { offsetInCU: 0x4904, offset: 0x4904, size: 0x8, addend: 0x0, symName: __ZNSt3__120__shared_ptr_emplaceI6WidgetNS_9allocatorIS1_EEEC2B7v160006IJEEES3_DpOT_, symObjAddr: 0x580, symBinAddr: 0x1000035F0, symSize: 0xB0 }
  - { offsetInCU: 0x4961, offset: 0x4961, size: 0x8, addend: 0x0, symName: __ZNSt3__119__shared_weak_countC2B7v160006El, symObjAddr: 0x630, symBinAddr: 0x1000036A0, symSize: 0x50 }
  - { offsetInCU: 0x4997, offset: 0x4997, size: 0x8, addend: 0x0, symName: __ZNSt3__120__shared_ptr_emplaceI6WidgetNS_9allocatorIS1_EEE8_StorageC1B7v160006EOS3_, symObjAddr: 0x680, symBinAddr: 0x1000036F0, symSize: 0x30 }
  - { offsetInCU: 0x49CE, offset: 0x49CE, size: 0x8, addend: 0x0, symName: __ZNSt3__120__shared_ptr_emplaceI6WidgetNS_9allocatorIS1_EEE11__get_allocB7v160006Ev, symObjAddr: 0x6B0, symBinAddr: 0x100003720, symSize: 0x20 }
  - { offsetInCU: 0x49F7, offset: 0x49F7, size: 0x8, addend: 0x0, symName: __ZNSt3__116allocator_traitsINS_9allocatorI6WidgetEEE9constructB7v160006IS2_JEvvEEvRS3_PT_DpOT0_, symObjAddr: 0x6D0, symBinAddr: 0x100003740, symSize: 0x20 }
  - { offsetInCU: 0x4A35, offset: 0x4A35, size: 0x8, addend: 0x0, symName: __ZNSt3__120__shared_ptr_emplaceI6WidgetNS_9allocatorIS1_EEE8_StorageD1B7v160006Ev, symObjAddr: 0x6F0, symBinAddr: 0x100003760, symSize: 0x20 }
  - { offsetInCU: 0x4A5D, offset: 0x4A5D, size: 0x8, addend: 0x0, symName: __ZNSt3__120__shared_ptr_emplaceI6WidgetNS_9allocatorIS1_EEED1Ev, symObjAddr: 0x710, symBinAddr: 0x100003780, symSize: 0x20 }
  - { offsetInCU: 0x4A88, offset: 0x4A88, size: 0x8, addend: 0x0, symName: __ZNSt3__120__shared_ptr_emplaceI6WidgetNS_9allocatorIS1_EEED0Ev, symObjAddr: 0x730, symBinAddr: 0x1000037A0, symSize: 0x30 }
  - { offsetInCU: 0x4AB3, offset: 0x4AB3, size: 0x8, addend: 0x0, symName: __ZNSt3__120__shared_ptr_emplaceI6WidgetNS_9allocatorIS1_EEE16__on_zero_sharedEv, symObjAddr: 0x760, symBinAddr: 0x1000037D0, symSize: 0x50 }
  - { offsetInCU: 0x4AF8, offset: 0x4AF8, size: 0x8, addend: 0x0, symName: __ZNSt3__120__shared_ptr_emplaceI6WidgetNS_9allocatorIS1_EEE21__on_zero_shared_weakEv, symObjAddr: 0x7B0, symBinAddr: 0x100003820, symSize: 0x60 }
  - { offsetInCU: 0x4B37, offset: 0x4B37, size: 0x8, addend: 0x0, symName: __ZNSt3__114__shared_countC2B7v160006El, symObjAddr: 0x810, symBinAddr: 0x100003880, symSize: 0x30 }
  - { offsetInCU: 0x4B6D, offset: 0x4B6D, size: 0x8, addend: 0x0, symName: __ZNSt3__120__shared_ptr_emplaceI6WidgetNS_9allocatorIS1_EEE8_StorageC2B7v160006EOS3_, symObjAddr: 0x840, symBinAddr: 0x1000038B0, symSize: 0x20 }
  - { offsetInCU: 0x4BA4, offset: 0x4BA4, size: 0x8, addend: 0x0, symName: __ZNSt3__120__shared_ptr_emplaceI6WidgetNS_9allocatorIS1_EEE8_Storage11__get_allocEv, symObjAddr: 0x860, symBinAddr: 0x1000038D0, symSize: 0x40 }
  - { offsetInCU: 0x4BF5, offset: 0x4BF5, size: 0x8, addend: 0x0, symName: __ZNSt3__117__compressed_pairINS_9allocatorI6WidgetEES2_E16__get_first_baseB7v160006EPS4_, symObjAddr: 0x8A0, symBinAddr: 0x100003910, symSize: 0x10 }
  - { offsetInCU: 0x4C17, offset: 0x4C17, size: 0x8, addend: 0x0, symName: __ZNSt3__120__shared_ptr_emplaceI6WidgetNS_9allocatorIS1_EEE8_StorageD2B7v160006Ev, symObjAddr: 0x8D0, symBinAddr: 0x100003940, symSize: 0x20 }
  - { offsetInCU: 0x4C3F, offset: 0x4C3F, size: 0x8, addend: 0x0, symName: __ZNSt3__120__shared_ptr_emplaceI6WidgetNS_9allocatorIS1_EEED2Ev, symObjAddr: 0x8F0, symBinAddr: 0x100003960, symSize: 0x40 }
  - { offsetInCU: 0x4C6A, offset: 0x4C6A, size: 0x8, addend: 0x0, symName: __ZNSt3__116allocator_traitsINS_9allocatorI6WidgetEEE7destroyB7v160006IS2_vvEEvRS3_PT_, symObjAddr: 0x930, symBinAddr: 0x1000039A0, symSize: 0x20 }
  - { offsetInCU: 0x4CA3, offset: 0x4CA3, size: 0x8, addend: 0x0, symName: __ZNSt3__116allocator_traitsINS_9allocatorINS_20__shared_ptr_emplaceI6WidgetNS1_IS3_EEEEEEE10deallocateB7v160006ERS6_PS5_m, symObjAddr: 0x990, symBinAddr: 0x100003A00, symSize: 0x30 }
  - { offsetInCU: 0x4CE9, offset: 0x4CE9, size: 0x8, addend: 0x0, symName: __ZNSt3__114pointer_traitsIPNS_20__shared_ptr_emplaceI6WidgetNS_9allocatorIS2_EEEEE10pointer_toB7v160006ERS5_, symObjAddr: 0x9C0, symBinAddr: 0x100003A30, symSize: 0x10 }
  - { offsetInCU: 0x4D0B, offset: 0x4D0B, size: 0x8, addend: 0x0, symName: __ZNSt3__19allocatorINS_20__shared_ptr_emplaceI6WidgetNS0_IS2_EEEEE10deallocateB7v160006EPS4_m, symObjAddr: 0x9D0, symBinAddr: 0x100003A40, symSize: 0x40 }
  - { offsetInCU: 0x4D4B, offset: 0x4D4B, size: 0x8, addend: 0x0, symName: __ZNSt3__110shared_ptrI6WidgetEC1B7v160006Ev, symObjAddr: 0xB10, symBinAddr: 0x100003B80, symSize: 0x20 }
  - { offsetInCU: 0x4D73, offset: 0x4D73, size: 0x8, addend: 0x0, symName: __ZNSt3__110shared_ptrI6WidgetE18__enable_weak_thisB7v160006Ez, symObjAddr: 0xB30, symBinAddr: 0x100003BA0, symSize: 0x10 }
  - { offsetInCU: 0x4D98, offset: 0x4D98, size: 0x8, addend: 0x0, symName: __ZNSt3__110shared_ptrI6WidgetEC2B7v160006Ev, symObjAddr: 0xB40, symBinAddr: 0x100003BB0, symSize: 0x20 }
  - { offsetInCU: 0x4DC0, offset: 0x4DC0, size: 0x8, addend: 0x0, symName: __ZNSt3__120__shared_ptr_emplaceI6WidgetNS_9allocatorIS1_EEE8_Storage10__get_elemEv, symObjAddr: 0xB60, symBinAddr: 0x100003BD0, symSize: 0x40 }
  - { offsetInCU: 0x4E11, offset: 0x4E11, size: 0x8, addend: 0x0, symName: __ZNSt3__117__compressed_pairINS_9allocatorI6WidgetEES2_E17__get_second_baseB7v160006EPS4_, symObjAddr: 0xBA0, symBinAddr: 0x100003C10, symSize: 0x10 }
  - { offsetInCU: 0x4E33, offset: 0x4E33, size: 0x8, addend: 0x0, symName: __ZNSt3__118__allocation_guardINS_9allocatorINS_20__shared_ptr_emplaceI6WidgetNS1_IS3_EEEEEEED2B7v160006Ev, symObjAddr: 0xBB0, symBinAddr: 0x100003C20, symSize: 0x40 }
  - { offsetInCU: 0x4E5B, offset: 0x4E5B, size: 0x8, addend: 0x0, symName: __ZNSt3__19allocatorI6WidgetEC2B7v160006Ev, symObjAddr: 0xBF0, symBinAddr: 0x100003C60, symSize: 0x20 }
  - { offsetInCU: 0x4E83, offset: 0x4E83, size: 0x8, addend: 0x0, symName: __ZNSt3__116__non_trivial_ifILb1ENS_9allocatorI6WidgetEEEC2B7v160006Ev, symObjAddr: 0xC10, symBinAddr: 0x100003C80, symSize: 0x10 }
  - { offsetInCU: 0x4EAB, offset: 0x4EAB, size: 0x8, addend: 0x0, symName: __ZNSt3__110shared_ptrI6WidgetED2B7v160006Ev, symObjAddr: 0xC20, symBinAddr: 0x100003C90, symSize: 0x40 }
  - { offsetInCU: 0x4ED3, offset: 0x4ED3, size: 0x8, addend: 0x0, symName: __ZNSt3__119__shared_weak_count16__release_sharedB7v160006Ev, symObjAddr: 0xC60, symBinAddr: 0x100003CD0, symSize: 0x40 }
  - { offsetInCU: 0x4EF7, offset: 0x4EF7, size: 0x8, addend: 0x0, symName: __ZNSt3__114__shared_count16__release_sharedB7v160006Ev, symObjAddr: 0xCA0, symBinAddr: 0x100003D10, symSize: 0x50 }
  - { offsetInCU: 0x4F1B, offset: 0x4F1B, size: 0x8, addend: 0x0, symName: __ZNSt3__18weak_ptrI6WidgetEC2IS1_EERKNS_10shared_ptrIT_EENS_9enable_ifIXsr17__compatible_withIS5_S1_EE5valueEPNS_5__natEE4typeE, symObjAddr: 0xD20, symBinAddr: 0x100003D90, symSize: 0x50 }
  - { offsetInCU: 0x4F68, offset: 0x4F68, size: 0x8, addend: 0x0, symName: __ZNSt3__119__shared_weak_count10__add_weakB7v160006Ev, symObjAddr: 0xD70, symBinAddr: 0x100003DE0, symSize: 0x20 }
  - { offsetInCU: 0x4F8C, offset: 0x4F8C, size: 0x8, addend: 0x0, symName: __ZNSt3__18weak_ptrI6WidgetED2Ev, symObjAddr: 0xDC0, symBinAddr: 0x100003E30, symSize: 0x32 }
...
